ARM GAS  /var/folders/2m/zqg86yyd4hbf56w83tkxjpvr0000gn/T//ccMZY20G.s 			page 1


   1              		.cpu cortex-m0plus
   2              		.eabi_attribute 20, 1
   3              		.eabi_attribute 21, 1
   4              		.eabi_attribute 23, 3
   5              		.eabi_attribute 24, 1
   6              		.eabi_attribute 25, 1
   7              		.eabi_attribute 26, 1
   8              		.eabi_attribute 30, 1
   9              		.eabi_attribute 34, 0
  10              		.eabi_attribute 18, 4
  11              		.file	"mlm32l07x01.c"
  12              		.text
  13              	.Ltext0:
  14              		.cfi_sections	.debug_frame
  15              		.section	.text.SX1276GetWakeTime,"ax",%progbits
  16              		.align	1
  17              		.global	SX1276GetWakeTime
  18              		.syntax unified
  19              		.code	16
  20              		.thumb_func
  21              		.fpu softvfp
  23              	SX1276GetWakeTime:
  24              	.LFB40:
  25              		.file 1 "Drivers/BSP/MLM32L07X01/mlm32l07x01.c"
   1:Drivers/BSP/MLM32L07X01/mlm32l07x01.c **** /*
   2:Drivers/BSP/MLM32L07X01/mlm32l07x01.c ****  / _____)             _              | |
   3:Drivers/BSP/MLM32L07X01/mlm32l07x01.c **** ( (____  _____ ____ _| |_ _____  ____| |__
   4:Drivers/BSP/MLM32L07X01/mlm32l07x01.c ****  \____ \| ___ |    (_   _) ___ |/ ___)  _ \
   5:Drivers/BSP/MLM32L07X01/mlm32l07x01.c ****  _____) ) ____| | | || |_| ____( (___| | | |
   6:Drivers/BSP/MLM32L07X01/mlm32l07x01.c **** (______/|_____)_|_|_| \__)_____)\____)_| |_|
   7:Drivers/BSP/MLM32L07X01/mlm32l07x01.c ****     (C)2013 Semtech
   8:Drivers/BSP/MLM32L07X01/mlm32l07x01.c **** 
   9:Drivers/BSP/MLM32L07X01/mlm32l07x01.c **** Description: SX1276 driver specific target board functions implementation
  10:Drivers/BSP/MLM32L07X01/mlm32l07x01.c **** 
  11:Drivers/BSP/MLM32L07X01/mlm32l07x01.c **** License: Revised BSD License, see LICENSE.TXT file include in the project
  12:Drivers/BSP/MLM32L07X01/mlm32l07x01.c **** 
  13:Drivers/BSP/MLM32L07X01/mlm32l07x01.c **** Maintainer: Miguel Luis and Gregory Cristian
  14:Drivers/BSP/MLM32L07X01/mlm32l07x01.c **** */
  15:Drivers/BSP/MLM32L07X01/mlm32l07x01.c ****  /*******************************************************************************
  16:Drivers/BSP/MLM32L07X01/mlm32l07x01.c ****   * @file    mlm32l07x01.c
  17:Drivers/BSP/MLM32L07X01/mlm32l07x01.c ****   * @author  MCD Application Team
  18:Drivers/BSP/MLM32L07X01/mlm32l07x01.c ****   * @version V1.0.3
  19:Drivers/BSP/MLM32L07X01/mlm32l07x01.c ****   * @date    08-September-2017
  20:Drivers/BSP/MLM32L07X01/mlm32l07x01.c ****   * @brief   driver LoRa module murata cmwx1zzabz-078
  21:Drivers/BSP/MLM32L07X01/mlm32l07x01.c ****   ******************************************************************************
  22:Drivers/BSP/MLM32L07X01/mlm32l07x01.c ****   * @attention
  23:Drivers/BSP/MLM32L07X01/mlm32l07x01.c ****   *
  24:Drivers/BSP/MLM32L07X01/mlm32l07x01.c ****   * <h2><center>&copy; COPYRIGHT(c) 2017 STMicroelectronics</center></h2>
  25:Drivers/BSP/MLM32L07X01/mlm32l07x01.c ****   *
  26:Drivers/BSP/MLM32L07X01/mlm32l07x01.c ****   * Redistribution and use in source and binary forms, with or without modification,
  27:Drivers/BSP/MLM32L07X01/mlm32l07x01.c ****   * are permitted provided that the following conditions are met:
  28:Drivers/BSP/MLM32L07X01/mlm32l07x01.c ****   *   1. Redistributions of source code must retain the above copyright notice,
  29:Drivers/BSP/MLM32L07X01/mlm32l07x01.c ****   *      this list of conditions and the following disclaimer.
  30:Drivers/BSP/MLM32L07X01/mlm32l07x01.c ****   *   2. Redistributions in binary form must reproduce the above copyright notice,
  31:Drivers/BSP/MLM32L07X01/mlm32l07x01.c ****   *      this list of conditions and the following disclaimer in the documentation
  32:Drivers/BSP/MLM32L07X01/mlm32l07x01.c ****   *      and/or other materials provided with the distribution.
  33:Drivers/BSP/MLM32L07X01/mlm32l07x01.c ****   *   3. Neither the name of STMicroelectronics nor the names of its contributors
ARM GAS  /var/folders/2m/zqg86yyd4hbf56w83tkxjpvr0000gn/T//ccMZY20G.s 			page 2


  34:Drivers/BSP/MLM32L07X01/mlm32l07x01.c ****   *      may be used to endorse or promote products derived from this software
  35:Drivers/BSP/MLM32L07X01/mlm32l07x01.c ****   *      without specific prior written permission.
  36:Drivers/BSP/MLM32L07X01/mlm32l07x01.c ****   *
  37:Drivers/BSP/MLM32L07X01/mlm32l07x01.c ****   * THIS SOFTWARE IS PROVIDED BY THE COPYRIGHT HOLDERS AND CONTRIBUTORS "AS IS"
  38:Drivers/BSP/MLM32L07X01/mlm32l07x01.c ****   * AND ANY EXPRESS OR IMPLIED WARRANTIES, INCLUDING, BUT NOT LIMITED TO, THE
  39:Drivers/BSP/MLM32L07X01/mlm32l07x01.c ****   * IMPLIED WARRANTIES OF MERCHANTABILITY AND FITNESS FOR A PARTICULAR PURPOSE ARE
  40:Drivers/BSP/MLM32L07X01/mlm32l07x01.c ****   * DISCLAIMED. IN NO EVENT SHALL THE COPYRIGHT HOLDER OR CONTRIBUTORS BE LIABLE
  41:Drivers/BSP/MLM32L07X01/mlm32l07x01.c ****   * FOR ANY DIRECT, INDIRECT, INCIDENTAL, SPECIAL, EXEMPLARY, OR CONSEQUENTIAL
  42:Drivers/BSP/MLM32L07X01/mlm32l07x01.c ****   * DAMAGES (INCLUDING, BUT NOT LIMITED TO, PROCUREMENT OF SUBSTITUTE GOODS OR
  43:Drivers/BSP/MLM32L07X01/mlm32l07x01.c ****   * SERVICES; LOSS OF USE, DATA, OR PROFITS; OR BUSINESS INTERRUPTION) HOWEVER
  44:Drivers/BSP/MLM32L07X01/mlm32l07x01.c ****   * CAUSED AND ON ANY THEORY OF LIABILITY, WHETHER IN CONTRACT, STRICT LIABILITY,
  45:Drivers/BSP/MLM32L07X01/mlm32l07x01.c ****   * OR TORT (INCLUDING NEGLIGENCE OR OTHERWISE) ARISING IN ANY WAY OUT OF THE USE
  46:Drivers/BSP/MLM32L07X01/mlm32l07x01.c ****   * OF THIS SOFTWARE, EVEN IF ADVISED OF THE POSSIBILITY OF SUCH DAMAGE.
  47:Drivers/BSP/MLM32L07X01/mlm32l07x01.c ****   *
  48:Drivers/BSP/MLM32L07X01/mlm32l07x01.c ****   ******************************************************************************
  49:Drivers/BSP/MLM32L07X01/mlm32l07x01.c ****   */
  50:Drivers/BSP/MLM32L07X01/mlm32l07x01.c ****   
  51:Drivers/BSP/MLM32L07X01/mlm32l07x01.c **** /* Includes ------------------------------------------------------------------*/
  52:Drivers/BSP/MLM32L07X01/mlm32l07x01.c **** 
  53:Drivers/BSP/MLM32L07X01/mlm32l07x01.c **** #include "hw.h"
  54:Drivers/BSP/MLM32L07X01/mlm32l07x01.c **** #include "radio.h"
  55:Drivers/BSP/MLM32L07X01/mlm32l07x01.c **** #include "sx1276.h"
  56:Drivers/BSP/MLM32L07X01/mlm32l07x01.c **** #include "mlm32l07x01.h"
  57:Drivers/BSP/MLM32L07X01/mlm32l07x01.c **** #include "delay.h"
  58:Drivers/BSP/MLM32L07X01/mlm32l07x01.c **** 
  59:Drivers/BSP/MLM32L07X01/mlm32l07x01.c **** 
  60:Drivers/BSP/MLM32L07X01/mlm32l07x01.c **** #define IRQ_HIGH_PRIORITY  0
  61:Drivers/BSP/MLM32L07X01/mlm32l07x01.c **** 
  62:Drivers/BSP/MLM32L07X01/mlm32l07x01.c **** #define TCXO_ON()   HW_GPIO_Write( RADIO_TCXO_VCC_PORT, RADIO_TCXO_VCC_PIN, 1) 
  63:Drivers/BSP/MLM32L07X01/mlm32l07x01.c **** 
  64:Drivers/BSP/MLM32L07X01/mlm32l07x01.c **** #define TCXO_OFF()  HW_GPIO_Write( RADIO_TCXO_VCC_PORT, RADIO_TCXO_VCC_PIN, 0) 
  65:Drivers/BSP/MLM32L07X01/mlm32l07x01.c **** 
  66:Drivers/BSP/MLM32L07X01/mlm32l07x01.c **** static void SX1276AntSwInit( void );
  67:Drivers/BSP/MLM32L07X01/mlm32l07x01.c **** 
  68:Drivers/BSP/MLM32L07X01/mlm32l07x01.c **** static void SX1276AntSwDeInit( void );
  69:Drivers/BSP/MLM32L07X01/mlm32l07x01.c **** 
  70:Drivers/BSP/MLM32L07X01/mlm32l07x01.c **** void SX1276SetXO( uint8_t state );
  71:Drivers/BSP/MLM32L07X01/mlm32l07x01.c **** 
  72:Drivers/BSP/MLM32L07X01/mlm32l07x01.c **** uint32_t SX1276GetWakeTime( void );
  73:Drivers/BSP/MLM32L07X01/mlm32l07x01.c **** 
  74:Drivers/BSP/MLM32L07X01/mlm32l07x01.c **** void SX1276IoIrqInit( DioIrqHandler **irqHandlers );
  75:Drivers/BSP/MLM32L07X01/mlm32l07x01.c **** 
  76:Drivers/BSP/MLM32L07X01/mlm32l07x01.c **** uint8_t SX1276GetPaSelect( uint8_t power );
  77:Drivers/BSP/MLM32L07X01/mlm32l07x01.c **** 
  78:Drivers/BSP/MLM32L07X01/mlm32l07x01.c **** void SX1276SetAntSwLowPower( bool status );
  79:Drivers/BSP/MLM32L07X01/mlm32l07x01.c **** 
  80:Drivers/BSP/MLM32L07X01/mlm32l07x01.c **** void SX1276SetAntSw( uint8_t opMode );
  81:Drivers/BSP/MLM32L07X01/mlm32l07x01.c **** /*!
  82:Drivers/BSP/MLM32L07X01/mlm32l07x01.c ****  * \brief Controls the antena switch if necessary.
  83:Drivers/BSP/MLM32L07X01/mlm32l07x01.c ****  *
  84:Drivers/BSP/MLM32L07X01/mlm32l07x01.c ****  * \remark see errata note
  85:Drivers/BSP/MLM32L07X01/mlm32l07x01.c ****  *
  86:Drivers/BSP/MLM32L07X01/mlm32l07x01.c ****  * \param [IN] opMode Current radio operating mode
  87:Drivers/BSP/MLM32L07X01/mlm32l07x01.c ****  */
  88:Drivers/BSP/MLM32L07X01/mlm32l07x01.c **** static LoRaBoardCallback_t BoardCallbacks = { SX1276SetXO,
  89:Drivers/BSP/MLM32L07X01/mlm32l07x01.c ****                                               SX1276GetWakeTime,
  90:Drivers/BSP/MLM32L07X01/mlm32l07x01.c ****                                               SX1276IoIrqInit,
ARM GAS  /var/folders/2m/zqg86yyd4hbf56w83tkxjpvr0000gn/T//ccMZY20G.s 			page 3


  91:Drivers/BSP/MLM32L07X01/mlm32l07x01.c ****                                               SX1276SetRfTxPower,
  92:Drivers/BSP/MLM32L07X01/mlm32l07x01.c ****                                               SX1276SetAntSwLowPower,
  93:Drivers/BSP/MLM32L07X01/mlm32l07x01.c ****                                               SX1276SetAntSw};
  94:Drivers/BSP/MLM32L07X01/mlm32l07x01.c **** 
  95:Drivers/BSP/MLM32L07X01/mlm32l07x01.c **** /*!
  96:Drivers/BSP/MLM32L07X01/mlm32l07x01.c ****  * Radio driver structure initialization
  97:Drivers/BSP/MLM32L07X01/mlm32l07x01.c ****  */
  98:Drivers/BSP/MLM32L07X01/mlm32l07x01.c **** const struct Radio_s Radio =
  99:Drivers/BSP/MLM32L07X01/mlm32l07x01.c **** {
 100:Drivers/BSP/MLM32L07X01/mlm32l07x01.c ****     SX1276IoInit,
 101:Drivers/BSP/MLM32L07X01/mlm32l07x01.c ****     SX1276IoDeInit,
 102:Drivers/BSP/MLM32L07X01/mlm32l07x01.c ****     SX1276Init,
 103:Drivers/BSP/MLM32L07X01/mlm32l07x01.c ****     SX1276GetStatus,
 104:Drivers/BSP/MLM32L07X01/mlm32l07x01.c ****     SX1276SetModem,
 105:Drivers/BSP/MLM32L07X01/mlm32l07x01.c ****     SX1276SetChannel,
 106:Drivers/BSP/MLM32L07X01/mlm32l07x01.c ****     SX1276IsChannelFree,
 107:Drivers/BSP/MLM32L07X01/mlm32l07x01.c ****     SX1276Random,
 108:Drivers/BSP/MLM32L07X01/mlm32l07x01.c ****     SX1276SetRxConfig,
 109:Drivers/BSP/MLM32L07X01/mlm32l07x01.c ****     SX1276SetTxConfig,
 110:Drivers/BSP/MLM32L07X01/mlm32l07x01.c ****     SX1276CheckRfFrequency,
 111:Drivers/BSP/MLM32L07X01/mlm32l07x01.c ****     SX1276GetTimeOnAir,
 112:Drivers/BSP/MLM32L07X01/mlm32l07x01.c ****     SX1276Send,
 113:Drivers/BSP/MLM32L07X01/mlm32l07x01.c ****     SX1276SetSleep,
 114:Drivers/BSP/MLM32L07X01/mlm32l07x01.c ****     SX1276SetStby,
 115:Drivers/BSP/MLM32L07X01/mlm32l07x01.c ****     SX1276SetRx,
 116:Drivers/BSP/MLM32L07X01/mlm32l07x01.c ****     SX1276StartCad,
 117:Drivers/BSP/MLM32L07X01/mlm32l07x01.c ****     SX1276SetTxContinuousWave,
 118:Drivers/BSP/MLM32L07X01/mlm32l07x01.c ****     SX1276ReadRssi,
 119:Drivers/BSP/MLM32L07X01/mlm32l07x01.c ****     SX1276Write,
 120:Drivers/BSP/MLM32L07X01/mlm32l07x01.c ****     SX1276Read,
 121:Drivers/BSP/MLM32L07X01/mlm32l07x01.c ****     SX1276WriteBuffer,
 122:Drivers/BSP/MLM32L07X01/mlm32l07x01.c ****     SX1276ReadBuffer,
 123:Drivers/BSP/MLM32L07X01/mlm32l07x01.c ****     SX1276SetMaxPayloadLength,
 124:Drivers/BSP/MLM32L07X01/mlm32l07x01.c ****     SX1276SetPublicNetwork,
 125:Drivers/BSP/MLM32L07X01/mlm32l07x01.c ****     SX1276GetWakeupTime
 126:Drivers/BSP/MLM32L07X01/mlm32l07x01.c **** };
 127:Drivers/BSP/MLM32L07X01/mlm32l07x01.c **** 
 128:Drivers/BSP/MLM32L07X01/mlm32l07x01.c **** uint32_t SX1276GetWakeTime( void )
 129:Drivers/BSP/MLM32L07X01/mlm32l07x01.c **** {
  26              		.loc 1 129 0
  27              		.cfi_startproc
  28              		@ args = 0, pretend = 0, frame = 0
  29              		@ frame_needed = 0, uses_anonymous_args = 0
  30              		@ link register save eliminated.
 130:Drivers/BSP/MLM32L07X01/mlm32l07x01.c ****   return  BOARD_WAKEUP_TIME;
 131:Drivers/BSP/MLM32L07X01/mlm32l07x01.c **** }
  31              		.loc 1 131 0
  32 0000 0520     		movs	r0, #5
  33              		@ sp needed
  34 0002 7047     		bx	lr
  35              		.cfi_endproc
  36              	.LFE40:
  38              		.section	.text.SX1276CheckRfFrequency,"ax",%progbits
  39              		.align	1
  40              		.global	SX1276CheckRfFrequency
  41              		.syntax unified
  42              		.code	16
ARM GAS  /var/folders/2m/zqg86yyd4hbf56w83tkxjpvr0000gn/T//ccMZY20G.s 			page 4


  43              		.thumb_func
  44              		.fpu softvfp
  46              	SX1276CheckRfFrequency:
  47              	.LFB51:
 132:Drivers/BSP/MLM32L07X01/mlm32l07x01.c **** 
 133:Drivers/BSP/MLM32L07X01/mlm32l07x01.c **** void SX1276SetXO( uint8_t state )
 134:Drivers/BSP/MLM32L07X01/mlm32l07x01.c **** {
 135:Drivers/BSP/MLM32L07X01/mlm32l07x01.c **** 
 136:Drivers/BSP/MLM32L07X01/mlm32l07x01.c ****   if (state == SET )
 137:Drivers/BSP/MLM32L07X01/mlm32l07x01.c ****   {
 138:Drivers/BSP/MLM32L07X01/mlm32l07x01.c ****     TCXO_ON(); 
 139:Drivers/BSP/MLM32L07X01/mlm32l07x01.c ****     
 140:Drivers/BSP/MLM32L07X01/mlm32l07x01.c ****     DelayMs( BOARD_WAKEUP_TIME ); //start up time of TCXO
 141:Drivers/BSP/MLM32L07X01/mlm32l07x01.c ****   }
 142:Drivers/BSP/MLM32L07X01/mlm32l07x01.c ****   else
 143:Drivers/BSP/MLM32L07X01/mlm32l07x01.c ****   {
 144:Drivers/BSP/MLM32L07X01/mlm32l07x01.c ****     TCXO_OFF(); 
 145:Drivers/BSP/MLM32L07X01/mlm32l07x01.c ****   }
 146:Drivers/BSP/MLM32L07X01/mlm32l07x01.c **** }
 147:Drivers/BSP/MLM32L07X01/mlm32l07x01.c **** void SX1276IoInit( void )
 148:Drivers/BSP/MLM32L07X01/mlm32l07x01.c **** {
 149:Drivers/BSP/MLM32L07X01/mlm32l07x01.c ****   GPIO_InitTypeDef initStruct={0};
 150:Drivers/BSP/MLM32L07X01/mlm32l07x01.c ****   
 151:Drivers/BSP/MLM32L07X01/mlm32l07x01.c ****   SX1276BoardInit( &BoardCallbacks );
 152:Drivers/BSP/MLM32L07X01/mlm32l07x01.c ****   
 153:Drivers/BSP/MLM32L07X01/mlm32l07x01.c ****   initStruct.Mode =GPIO_MODE_IT_RISING;
 154:Drivers/BSP/MLM32L07X01/mlm32l07x01.c ****   initStruct.Pull = GPIO_PULLUP;
 155:Drivers/BSP/MLM32L07X01/mlm32l07x01.c ****   initStruct.Speed = GPIO_SPEED_HIGH;
 156:Drivers/BSP/MLM32L07X01/mlm32l07x01.c **** 
 157:Drivers/BSP/MLM32L07X01/mlm32l07x01.c ****   HW_GPIO_Init( RADIO_DIO_0_PORT, RADIO_DIO_0_PIN, &initStruct );
 158:Drivers/BSP/MLM32L07X01/mlm32l07x01.c ****   HW_GPIO_Init( RADIO_DIO_1_PORT, RADIO_DIO_1_PIN, &initStruct );
 159:Drivers/BSP/MLM32L07X01/mlm32l07x01.c ****   HW_GPIO_Init( RADIO_DIO_2_PORT, RADIO_DIO_2_PIN, &initStruct );
 160:Drivers/BSP/MLM32L07X01/mlm32l07x01.c ****   HW_GPIO_Init( RADIO_DIO_3_PORT, RADIO_DIO_3_PIN, &initStruct );
 161:Drivers/BSP/MLM32L07X01/mlm32l07x01.c **** #ifdef RADIO_DIO_4
 162:Drivers/BSP/MLM32L07X01/mlm32l07x01.c ****   HW_GPIO_Init( RADIO_DIO_4_PORT, RADIO_DIO_4_PIN, &initStruct );
 163:Drivers/BSP/MLM32L07X01/mlm32l07x01.c **** #endif
 164:Drivers/BSP/MLM32L07X01/mlm32l07x01.c **** #ifdef RADIO_DIO_5
 165:Drivers/BSP/MLM32L07X01/mlm32l07x01.c ****   HW_GPIO_Init( RADIO_DIO_5_PORT, RADIO_DIO_5_PIN, &initStruct );
 166:Drivers/BSP/MLM32L07X01/mlm32l07x01.c **** #endif
 167:Drivers/BSP/MLM32L07X01/mlm32l07x01.c ****   initStruct.Mode =GPIO_MODE_OUTPUT_PP;
 168:Drivers/BSP/MLM32L07X01/mlm32l07x01.c ****   initStruct.Pull = GPIO_NOPULL;  
 169:Drivers/BSP/MLM32L07X01/mlm32l07x01.c ****   HW_GPIO_Init( RADIO_TCXO_VCC_PORT, RADIO_TCXO_VCC_PIN, &initStruct );
 170:Drivers/BSP/MLM32L07X01/mlm32l07x01.c **** }
 171:Drivers/BSP/MLM32L07X01/mlm32l07x01.c **** 
 172:Drivers/BSP/MLM32L07X01/mlm32l07x01.c **** void SX1276IoIrqInit( DioIrqHandler **irqHandlers )
 173:Drivers/BSP/MLM32L07X01/mlm32l07x01.c **** {
 174:Drivers/BSP/MLM32L07X01/mlm32l07x01.c ****   HW_GPIO_SetIrq( RADIO_DIO_0_PORT, RADIO_DIO_0_PIN, IRQ_HIGH_PRIORITY, irqHandlers[0] );
 175:Drivers/BSP/MLM32L07X01/mlm32l07x01.c ****   HW_GPIO_SetIrq( RADIO_DIO_1_PORT, RADIO_DIO_1_PIN, IRQ_HIGH_PRIORITY, irqHandlers[1] );
 176:Drivers/BSP/MLM32L07X01/mlm32l07x01.c ****   HW_GPIO_SetIrq( RADIO_DIO_2_PORT, RADIO_DIO_2_PIN, IRQ_HIGH_PRIORITY, irqHandlers[2] );
 177:Drivers/BSP/MLM32L07X01/mlm32l07x01.c ****   HW_GPIO_SetIrq( RADIO_DIO_3_PORT, RADIO_DIO_3_PIN, IRQ_HIGH_PRIORITY, irqHandlers[3] );
 178:Drivers/BSP/MLM32L07X01/mlm32l07x01.c **** }
 179:Drivers/BSP/MLM32L07X01/mlm32l07x01.c **** 
 180:Drivers/BSP/MLM32L07X01/mlm32l07x01.c **** void SX1276IoDeInit( void )
 181:Drivers/BSP/MLM32L07X01/mlm32l07x01.c **** {
 182:Drivers/BSP/MLM32L07X01/mlm32l07x01.c ****   GPIO_InitTypeDef initStruct={0};
 183:Drivers/BSP/MLM32L07X01/mlm32l07x01.c **** 
 184:Drivers/BSP/MLM32L07X01/mlm32l07x01.c ****   initStruct.Mode = GPIO_MODE_IT_RISING ; //GPIO_MODE_ANALOG;
ARM GAS  /var/folders/2m/zqg86yyd4hbf56w83tkxjpvr0000gn/T//ccMZY20G.s 			page 5


 185:Drivers/BSP/MLM32L07X01/mlm32l07x01.c ****   initStruct.Pull = GPIO_NOPULL;
 186:Drivers/BSP/MLM32L07X01/mlm32l07x01.c ****   
 187:Drivers/BSP/MLM32L07X01/mlm32l07x01.c ****   HW_GPIO_Init( RADIO_DIO_0_PORT, RADIO_DIO_0_PIN, &initStruct );
 188:Drivers/BSP/MLM32L07X01/mlm32l07x01.c ****   HW_GPIO_Init( RADIO_DIO_1_PORT, RADIO_DIO_1_PIN, &initStruct );
 189:Drivers/BSP/MLM32L07X01/mlm32l07x01.c ****   HW_GPIO_Init( RADIO_DIO_2_PORT, RADIO_DIO_2_PIN, &initStruct );
 190:Drivers/BSP/MLM32L07X01/mlm32l07x01.c ****   HW_GPIO_Init( RADIO_DIO_3_PORT, RADIO_DIO_3_PIN, &initStruct );
 191:Drivers/BSP/MLM32L07X01/mlm32l07x01.c ****   
 192:Drivers/BSP/MLM32L07X01/mlm32l07x01.c **** #ifdef RADIO_DIO_4
 193:Drivers/BSP/MLM32L07X01/mlm32l07x01.c ****   HW_GPIO_Init( RADIO_DIO_4_PORT, RADIO_DIO_4_PIN, &initStruct );
 194:Drivers/BSP/MLM32L07X01/mlm32l07x01.c **** #endif
 195:Drivers/BSP/MLM32L07X01/mlm32l07x01.c **** #ifdef RADIO_DIO_5
 196:Drivers/BSP/MLM32L07X01/mlm32l07x01.c ****   HW_GPIO_Init( RADIO_DIO_5_PORT, RADIO_DIO_5_PIN, &initStruct );
 197:Drivers/BSP/MLM32L07X01/mlm32l07x01.c **** #endif
 198:Drivers/BSP/MLM32L07X01/mlm32l07x01.c **** }
 199:Drivers/BSP/MLM32L07X01/mlm32l07x01.c **** 
 200:Drivers/BSP/MLM32L07X01/mlm32l07x01.c **** void SX1276SetRfTxPower( int8_t power )
 201:Drivers/BSP/MLM32L07X01/mlm32l07x01.c **** {
 202:Drivers/BSP/MLM32L07X01/mlm32l07x01.c ****     uint8_t paConfig = 0;
 203:Drivers/BSP/MLM32L07X01/mlm32l07x01.c ****     uint8_t paDac = 0;
 204:Drivers/BSP/MLM32L07X01/mlm32l07x01.c **** 
 205:Drivers/BSP/MLM32L07X01/mlm32l07x01.c ****     paConfig = SX1276Read( REG_PACONFIG );
 206:Drivers/BSP/MLM32L07X01/mlm32l07x01.c ****     paDac = SX1276Read( REG_PADAC );
 207:Drivers/BSP/MLM32L07X01/mlm32l07x01.c **** 
 208:Drivers/BSP/MLM32L07X01/mlm32l07x01.c ****     paConfig = ( paConfig & RF_PACONFIG_PASELECT_MASK ) | SX1276GetPaSelect( power );
 209:Drivers/BSP/MLM32L07X01/mlm32l07x01.c ****     paConfig = ( paConfig & RF_PACONFIG_MAX_POWER_MASK ) | 0x70;
 210:Drivers/BSP/MLM32L07X01/mlm32l07x01.c **** 
 211:Drivers/BSP/MLM32L07X01/mlm32l07x01.c ****     if( ( paConfig & RF_PACONFIG_PASELECT_PABOOST ) == RF_PACONFIG_PASELECT_PABOOST )
 212:Drivers/BSP/MLM32L07X01/mlm32l07x01.c ****     {
 213:Drivers/BSP/MLM32L07X01/mlm32l07x01.c ****         if( power > 17 )
 214:Drivers/BSP/MLM32L07X01/mlm32l07x01.c ****         {
 215:Drivers/BSP/MLM32L07X01/mlm32l07x01.c ****             paDac = ( paDac & RF_PADAC_20DBM_MASK ) | RF_PADAC_20DBM_ON;
 216:Drivers/BSP/MLM32L07X01/mlm32l07x01.c ****         }
 217:Drivers/BSP/MLM32L07X01/mlm32l07x01.c ****         else
 218:Drivers/BSP/MLM32L07X01/mlm32l07x01.c ****         {
 219:Drivers/BSP/MLM32L07X01/mlm32l07x01.c ****             paDac = ( paDac & RF_PADAC_20DBM_MASK ) | RF_PADAC_20DBM_OFF;
 220:Drivers/BSP/MLM32L07X01/mlm32l07x01.c ****         }
 221:Drivers/BSP/MLM32L07X01/mlm32l07x01.c ****         if( ( paDac & RF_PADAC_20DBM_ON ) == RF_PADAC_20DBM_ON )
 222:Drivers/BSP/MLM32L07X01/mlm32l07x01.c ****         {
 223:Drivers/BSP/MLM32L07X01/mlm32l07x01.c ****             if( power < 5 )
 224:Drivers/BSP/MLM32L07X01/mlm32l07x01.c ****             {
 225:Drivers/BSP/MLM32L07X01/mlm32l07x01.c ****                 power = 5;
 226:Drivers/BSP/MLM32L07X01/mlm32l07x01.c ****             }
 227:Drivers/BSP/MLM32L07X01/mlm32l07x01.c ****             if( power > 20 )
 228:Drivers/BSP/MLM32L07X01/mlm32l07x01.c ****             {
 229:Drivers/BSP/MLM32L07X01/mlm32l07x01.c ****                 power = 20;
 230:Drivers/BSP/MLM32L07X01/mlm32l07x01.c ****             }
 231:Drivers/BSP/MLM32L07X01/mlm32l07x01.c ****             paConfig = ( paConfig & RF_PACONFIG_OUTPUTPOWER_MASK ) | ( uint8_t )( ( uint16_t )( pow
 232:Drivers/BSP/MLM32L07X01/mlm32l07x01.c ****         }
 233:Drivers/BSP/MLM32L07X01/mlm32l07x01.c ****         else
 234:Drivers/BSP/MLM32L07X01/mlm32l07x01.c ****         {
 235:Drivers/BSP/MLM32L07X01/mlm32l07x01.c ****             if( power < 2 )
 236:Drivers/BSP/MLM32L07X01/mlm32l07x01.c ****             {
 237:Drivers/BSP/MLM32L07X01/mlm32l07x01.c ****                 power = 2;
 238:Drivers/BSP/MLM32L07X01/mlm32l07x01.c ****             }
 239:Drivers/BSP/MLM32L07X01/mlm32l07x01.c ****             if( power > 17 )
 240:Drivers/BSP/MLM32L07X01/mlm32l07x01.c ****             {
 241:Drivers/BSP/MLM32L07X01/mlm32l07x01.c ****                 power = 17;
ARM GAS  /var/folders/2m/zqg86yyd4hbf56w83tkxjpvr0000gn/T//ccMZY20G.s 			page 6


 242:Drivers/BSP/MLM32L07X01/mlm32l07x01.c ****             }
 243:Drivers/BSP/MLM32L07X01/mlm32l07x01.c ****             paConfig = ( paConfig & RF_PACONFIG_OUTPUTPOWER_MASK ) | ( uint8_t )( ( uint16_t )( pow
 244:Drivers/BSP/MLM32L07X01/mlm32l07x01.c ****         }
 245:Drivers/BSP/MLM32L07X01/mlm32l07x01.c ****     }
 246:Drivers/BSP/MLM32L07X01/mlm32l07x01.c ****     else
 247:Drivers/BSP/MLM32L07X01/mlm32l07x01.c ****     {
 248:Drivers/BSP/MLM32L07X01/mlm32l07x01.c ****         if( power < -1 )
 249:Drivers/BSP/MLM32L07X01/mlm32l07x01.c ****         {
 250:Drivers/BSP/MLM32L07X01/mlm32l07x01.c ****             power = -1;
 251:Drivers/BSP/MLM32L07X01/mlm32l07x01.c ****         }
 252:Drivers/BSP/MLM32L07X01/mlm32l07x01.c ****         if( power > 14 )
 253:Drivers/BSP/MLM32L07X01/mlm32l07x01.c ****         {
 254:Drivers/BSP/MLM32L07X01/mlm32l07x01.c ****             power = 14;
 255:Drivers/BSP/MLM32L07X01/mlm32l07x01.c ****         }
 256:Drivers/BSP/MLM32L07X01/mlm32l07x01.c ****         paConfig = ( paConfig & RF_PACONFIG_OUTPUTPOWER_MASK ) | ( uint8_t )( ( uint16_t )( power +
 257:Drivers/BSP/MLM32L07X01/mlm32l07x01.c ****     }
 258:Drivers/BSP/MLM32L07X01/mlm32l07x01.c ****     SX1276Write( REG_PACONFIG, paConfig );
 259:Drivers/BSP/MLM32L07X01/mlm32l07x01.c ****     SX1276Write( REG_PADAC, paDac );
 260:Drivers/BSP/MLM32L07X01/mlm32l07x01.c **** }
 261:Drivers/BSP/MLM32L07X01/mlm32l07x01.c **** 
 262:Drivers/BSP/MLM32L07X01/mlm32l07x01.c **** uint8_t SX1276GetPaSelect( uint8_t power )
 263:Drivers/BSP/MLM32L07X01/mlm32l07x01.c **** {
 264:Drivers/BSP/MLM32L07X01/mlm32l07x01.c ****     if (power >14)
 265:Drivers/BSP/MLM32L07X01/mlm32l07x01.c ****     {
 266:Drivers/BSP/MLM32L07X01/mlm32l07x01.c ****         return RF_PACONFIG_PASELECT_PABOOST;
 267:Drivers/BSP/MLM32L07X01/mlm32l07x01.c ****     }
 268:Drivers/BSP/MLM32L07X01/mlm32l07x01.c ****     else
 269:Drivers/BSP/MLM32L07X01/mlm32l07x01.c ****     {
 270:Drivers/BSP/MLM32L07X01/mlm32l07x01.c ****         return RF_PACONFIG_PASELECT_RFO;
 271:Drivers/BSP/MLM32L07X01/mlm32l07x01.c ****     }
 272:Drivers/BSP/MLM32L07X01/mlm32l07x01.c **** }
 273:Drivers/BSP/MLM32L07X01/mlm32l07x01.c **** 
 274:Drivers/BSP/MLM32L07X01/mlm32l07x01.c **** void SX1276SetAntSwLowPower( bool status )
 275:Drivers/BSP/MLM32L07X01/mlm32l07x01.c **** {
 276:Drivers/BSP/MLM32L07X01/mlm32l07x01.c ****     if( status == false )
 277:Drivers/BSP/MLM32L07X01/mlm32l07x01.c ****     {
 278:Drivers/BSP/MLM32L07X01/mlm32l07x01.c ****       SX1276AntSwInit( );
 279:Drivers/BSP/MLM32L07X01/mlm32l07x01.c ****     }
 280:Drivers/BSP/MLM32L07X01/mlm32l07x01.c ****     else 
 281:Drivers/BSP/MLM32L07X01/mlm32l07x01.c ****     {
 282:Drivers/BSP/MLM32L07X01/mlm32l07x01.c ****       SX1276AntSwDeInit( );
 283:Drivers/BSP/MLM32L07X01/mlm32l07x01.c ****     }
 284:Drivers/BSP/MLM32L07X01/mlm32l07x01.c **** }
 285:Drivers/BSP/MLM32L07X01/mlm32l07x01.c **** 
 286:Drivers/BSP/MLM32L07X01/mlm32l07x01.c **** static void SX1276AntSwInit( void )
 287:Drivers/BSP/MLM32L07X01/mlm32l07x01.c **** {
 288:Drivers/BSP/MLM32L07X01/mlm32l07x01.c ****   GPIO_InitTypeDef initStruct={0};
 289:Drivers/BSP/MLM32L07X01/mlm32l07x01.c **** 
 290:Drivers/BSP/MLM32L07X01/mlm32l07x01.c ****   initStruct.Mode =GPIO_MODE_OUTPUT_PP;
 291:Drivers/BSP/MLM32L07X01/mlm32l07x01.c ****   initStruct.Pull = GPIO_NOPULL; 
 292:Drivers/BSP/MLM32L07X01/mlm32l07x01.c ****   initStruct.Speed = GPIO_SPEED_HIGH;
 293:Drivers/BSP/MLM32L07X01/mlm32l07x01.c ****   
 294:Drivers/BSP/MLM32L07X01/mlm32l07x01.c ****   HW_GPIO_Init( RADIO_ANT_SWITCH_PORT_RX, RADIO_ANT_SWITCH_PIN_RX, &initStruct  ); 
 295:Drivers/BSP/MLM32L07X01/mlm32l07x01.c ****   HW_GPIO_Write( RADIO_ANT_SWITCH_PORT_RX, RADIO_ANT_SWITCH_PIN_RX, 0);
 296:Drivers/BSP/MLM32L07X01/mlm32l07x01.c ****   
 297:Drivers/BSP/MLM32L07X01/mlm32l07x01.c ****   HW_GPIO_Init( RADIO_ANT_SWITCH_PORT_TX_BOOST, RADIO_ANT_SWITCH_PIN_TX_BOOST, &initStruct  ); 
 298:Drivers/BSP/MLM32L07X01/mlm32l07x01.c ****   HW_GPIO_Write( RADIO_ANT_SWITCH_PORT_TX_BOOST, RADIO_ANT_SWITCH_PIN_TX_BOOST, 0);
ARM GAS  /var/folders/2m/zqg86yyd4hbf56w83tkxjpvr0000gn/T//ccMZY20G.s 			page 7


 299:Drivers/BSP/MLM32L07X01/mlm32l07x01.c ****   
 300:Drivers/BSP/MLM32L07X01/mlm32l07x01.c ****   HW_GPIO_Init( RADIO_ANT_SWITCH_PORT_TX_RFO, RADIO_ANT_SWITCH_PIN_TX_RFO, &initStruct  ); 
 301:Drivers/BSP/MLM32L07X01/mlm32l07x01.c ****   HW_GPIO_Write( RADIO_ANT_SWITCH_PORT_TX_RFO, RADIO_ANT_SWITCH_PIN_TX_RFO, 0);
 302:Drivers/BSP/MLM32L07X01/mlm32l07x01.c **** }
 303:Drivers/BSP/MLM32L07X01/mlm32l07x01.c **** 
 304:Drivers/BSP/MLM32L07X01/mlm32l07x01.c **** static void SX1276AntSwDeInit( void )
 305:Drivers/BSP/MLM32L07X01/mlm32l07x01.c **** {
 306:Drivers/BSP/MLM32L07X01/mlm32l07x01.c ****   GPIO_InitTypeDef initStruct={0};
 307:Drivers/BSP/MLM32L07X01/mlm32l07x01.c **** 
 308:Drivers/BSP/MLM32L07X01/mlm32l07x01.c ****   initStruct.Mode = GPIO_MODE_ANALOG ;
 309:Drivers/BSP/MLM32L07X01/mlm32l07x01.c ****   
 310:Drivers/BSP/MLM32L07X01/mlm32l07x01.c ****   initStruct.Pull = GPIO_NOPULL;
 311:Drivers/BSP/MLM32L07X01/mlm32l07x01.c ****   initStruct.Speed = GPIO_SPEED_HIGH;
 312:Drivers/BSP/MLM32L07X01/mlm32l07x01.c **** 
 313:Drivers/BSP/MLM32L07X01/mlm32l07x01.c ****   HW_GPIO_Init( RADIO_ANT_SWITCH_PORT_RX, RADIO_ANT_SWITCH_PIN_RX, &initStruct  ); 
 314:Drivers/BSP/MLM32L07X01/mlm32l07x01.c ****   HW_GPIO_Write( RADIO_ANT_SWITCH_PORT_RX, RADIO_ANT_SWITCH_PIN_RX, 0);
 315:Drivers/BSP/MLM32L07X01/mlm32l07x01.c ****   
 316:Drivers/BSP/MLM32L07X01/mlm32l07x01.c ****   HW_GPIO_Init( RADIO_ANT_SWITCH_PORT_TX_BOOST, RADIO_ANT_SWITCH_PIN_TX_BOOST, &initStruct  ); 
 317:Drivers/BSP/MLM32L07X01/mlm32l07x01.c ****   HW_GPIO_Write( RADIO_ANT_SWITCH_PORT_TX_BOOST, RADIO_ANT_SWITCH_PIN_TX_BOOST, 0);
 318:Drivers/BSP/MLM32L07X01/mlm32l07x01.c ****   
 319:Drivers/BSP/MLM32L07X01/mlm32l07x01.c ****   HW_GPIO_Init( RADIO_ANT_SWITCH_PORT_TX_RFO, RADIO_ANT_SWITCH_PIN_TX_RFO, &initStruct  ); 
 320:Drivers/BSP/MLM32L07X01/mlm32l07x01.c ****   HW_GPIO_Write( RADIO_ANT_SWITCH_PORT_TX_RFO, RADIO_ANT_SWITCH_PIN_TX_RFO, 0);
 321:Drivers/BSP/MLM32L07X01/mlm32l07x01.c **** }
 322:Drivers/BSP/MLM32L07X01/mlm32l07x01.c **** 
 323:Drivers/BSP/MLM32L07X01/mlm32l07x01.c **** void SX1276SetAntSw( uint8_t opMode )
 324:Drivers/BSP/MLM32L07X01/mlm32l07x01.c **** {
 325:Drivers/BSP/MLM32L07X01/mlm32l07x01.c ****  uint8_t paConfig =  SX1276Read( REG_PACONFIG );
 326:Drivers/BSP/MLM32L07X01/mlm32l07x01.c ****     switch( opMode )
 327:Drivers/BSP/MLM32L07X01/mlm32l07x01.c ****     {
 328:Drivers/BSP/MLM32L07X01/mlm32l07x01.c ****     case RFLR_OPMODE_TRANSMITTER:
 329:Drivers/BSP/MLM32L07X01/mlm32l07x01.c ****       if( ( paConfig & RF_PACONFIG_PASELECT_PABOOST ) == RF_PACONFIG_PASELECT_PABOOST )
 330:Drivers/BSP/MLM32L07X01/mlm32l07x01.c ****       {
 331:Drivers/BSP/MLM32L07X01/mlm32l07x01.c ****         HW_GPIO_Write( RADIO_ANT_SWITCH_PORT_TX_BOOST, RADIO_ANT_SWITCH_PIN_TX_BOOST, 1 );
 332:Drivers/BSP/MLM32L07X01/mlm32l07x01.c ****       }
 333:Drivers/BSP/MLM32L07X01/mlm32l07x01.c ****       else
 334:Drivers/BSP/MLM32L07X01/mlm32l07x01.c ****       {
 335:Drivers/BSP/MLM32L07X01/mlm32l07x01.c ****         HW_GPIO_Write( RADIO_ANT_SWITCH_PORT_TX_RFO, RADIO_ANT_SWITCH_PIN_TX_RFO, 1 );
 336:Drivers/BSP/MLM32L07X01/mlm32l07x01.c ****       }
 337:Drivers/BSP/MLM32L07X01/mlm32l07x01.c ****       SX1276.RxTx = 1;
 338:Drivers/BSP/MLM32L07X01/mlm32l07x01.c ****         break;
 339:Drivers/BSP/MLM32L07X01/mlm32l07x01.c ****     case RFLR_OPMODE_RECEIVER:
 340:Drivers/BSP/MLM32L07X01/mlm32l07x01.c ****     case RFLR_OPMODE_RECEIVER_SINGLE:
 341:Drivers/BSP/MLM32L07X01/mlm32l07x01.c ****     case RFLR_OPMODE_CAD:
 342:Drivers/BSP/MLM32L07X01/mlm32l07x01.c ****     default:
 343:Drivers/BSP/MLM32L07X01/mlm32l07x01.c ****      SX1276.RxTx = 0;
 344:Drivers/BSP/MLM32L07X01/mlm32l07x01.c ****      HW_GPIO_Write( RADIO_ANT_SWITCH_PORT_RX, RADIO_ANT_SWITCH_PIN_RX, 1 );
 345:Drivers/BSP/MLM32L07X01/mlm32l07x01.c ****      break;
 346:Drivers/BSP/MLM32L07X01/mlm32l07x01.c ****     }
 347:Drivers/BSP/MLM32L07X01/mlm32l07x01.c **** }
 348:Drivers/BSP/MLM32L07X01/mlm32l07x01.c **** 
 349:Drivers/BSP/MLM32L07X01/mlm32l07x01.c **** bool SX1276CheckRfFrequency( uint32_t frequency )
 350:Drivers/BSP/MLM32L07X01/mlm32l07x01.c **** {
  48              		.loc 1 350 0
  49              		.cfi_startproc
  50              		@ args = 0, pretend = 0, frame = 0
  51              		@ frame_needed = 0, uses_anonymous_args = 0
  52              		@ link register save eliminated.
ARM GAS  /var/folders/2m/zqg86yyd4hbf56w83tkxjpvr0000gn/T//ccMZY20G.s 			page 8


  53              	.LVL0:
 351:Drivers/BSP/MLM32L07X01/mlm32l07x01.c ****     // Implement check. Currently all frequencies are supported
 352:Drivers/BSP/MLM32L07X01/mlm32l07x01.c ****     return true;
 353:Drivers/BSP/MLM32L07X01/mlm32l07x01.c **** }
  54              		.loc 1 353 0
  55 0000 0120     		movs	r0, #1
  56              	.LVL1:
  57              		@ sp needed
  58 0002 7047     		bx	lr
  59              		.cfi_endproc
  60              	.LFE51:
  62              		.section	.text.SX1276SetAntSw,"ax",%progbits
  63              		.align	1
  64              		.global	SX1276SetAntSw
  65              		.syntax unified
  66              		.code	16
  67              		.thumb_func
  68              		.fpu softvfp
  70              	SX1276SetAntSw:
  71              	.LFB50:
 324:Drivers/BSP/MLM32L07X01/mlm32l07x01.c ****  uint8_t paConfig =  SX1276Read( REG_PACONFIG );
  72              		.loc 1 324 0
  73              		.cfi_startproc
  74              		@ args = 0, pretend = 0, frame = 0
  75              		@ frame_needed = 0, uses_anonymous_args = 0
  76              	.LVL2:
  77 0000 10B5     		push	{r4, lr}
  78              	.LCFI0:
  79              		.cfi_def_cfa_offset 8
  80              		.cfi_offset 4, -8
  81              		.cfi_offset 14, -4
  82 0002 0400     		movs	r4, r0
 325:Drivers/BSP/MLM32L07X01/mlm32l07x01.c ****     switch( opMode )
  83              		.loc 1 325 0
  84 0004 0920     		movs	r0, #9
  85              	.LVL3:
  86 0006 FFF7FEFF 		bl	SX1276Read
  87              	.LVL4:
 326:Drivers/BSP/MLM32L07X01/mlm32l07x01.c ****     {
  88              		.loc 1 326 0
  89 000a 032C     		cmp	r4, #3
  90 000c 10D1     		bne	.L9
 329:Drivers/BSP/MLM32L07X01/mlm32l07x01.c ****       {
  91              		.loc 1 329 0
  92 000e 0306     		lsls	r3, r0, #24
  93 0010 08D4     		bmi	.L10
 335:Drivers/BSP/MLM32L07X01/mlm32l07x01.c ****       }
  94              		.loc 1 335 0
  95 0012 0122     		movs	r2, #1
  96 0014 0421     		movs	r1, #4
  97 0016 0B48     		ldr	r0, .L11
  98              	.LVL5:
  99 0018 FFF7FEFF 		bl	HW_GPIO_Write
 100              	.LVL6:
 101              	.L7:
 337:Drivers/BSP/MLM32L07X01/mlm32l07x01.c ****         break;
 102              		.loc 1 337 0
ARM GAS  /var/folders/2m/zqg86yyd4hbf56w83tkxjpvr0000gn/T//ccMZY20G.s 			page 9


 103 001c 0A4B     		ldr	r3, .L11+4
 104 001e 0122     		movs	r2, #1
 105 0020 1A70     		strb	r2, [r3]
 106              	.L3:
 347:Drivers/BSP/MLM32L07X01/mlm32l07x01.c **** 
 107              		.loc 1 347 0
 108              		@ sp needed
 109 0022 10BD     		pop	{r4, pc}
 110              	.LVL7:
 111              	.L10:
 331:Drivers/BSP/MLM32L07X01/mlm32l07x01.c ****       }
 112              		.loc 1 331 0
 113 0024 0122     		movs	r2, #1
 114 0026 0221     		movs	r1, #2
 115 0028 0648     		ldr	r0, .L11
 116              	.LVL8:
 117 002a FFF7FEFF 		bl	HW_GPIO_Write
 118              	.LVL9:
 119 002e F5E7     		b	.L7
 120              	.LVL10:
 121              	.L9:
 343:Drivers/BSP/MLM32L07X01/mlm32l07x01.c ****      HW_GPIO_Write( RADIO_ANT_SWITCH_PORT_RX, RADIO_ANT_SWITCH_PIN_RX, 1 );
 122              		.loc 1 343 0
 123 0030 054B     		ldr	r3, .L11+4
 124 0032 0022     		movs	r2, #0
 125 0034 1A70     		strb	r2, [r3]
 344:Drivers/BSP/MLM32L07X01/mlm32l07x01.c ****      break;
 126              		.loc 1 344 0
 127 0036 A020     		movs	r0, #160
 128              	.LVL11:
 129 0038 0132     		adds	r2, r2, #1
 130 003a 0221     		movs	r1, #2
 131 003c C005     		lsls	r0, r0, #23
 132 003e FFF7FEFF 		bl	HW_GPIO_Write
 133              	.LVL12:
 347:Drivers/BSP/MLM32L07X01/mlm32l07x01.c **** 
 134              		.loc 1 347 0
 135 0042 EEE7     		b	.L3
 136              	.L12:
 137              		.align	2
 138              	.L11:
 139 0044 00080050 		.word	1342179328
 140 0048 00000000 		.word	SX1276
 141              		.cfi_endproc
 142              	.LFE50:
 144              		.section	.text.SX1276SetXO,"ax",%progbits
 145              		.align	1
 146              		.global	SX1276SetXO
 147              		.syntax unified
 148              		.code	16
 149              		.thumb_func
 150              		.fpu softvfp
 152              	SX1276SetXO:
 153              	.LFB41:
 134:Drivers/BSP/MLM32L07X01/mlm32l07x01.c **** 
 154              		.loc 1 134 0
 155              		.cfi_startproc
ARM GAS  /var/folders/2m/zqg86yyd4hbf56w83tkxjpvr0000gn/T//ccMZY20G.s 			page 10


 156              		@ args = 0, pretend = 0, frame = 0
 157              		@ frame_needed = 0, uses_anonymous_args = 0
 158              	.LVL13:
 159 0000 10B5     		push	{r4, lr}
 160              	.LCFI1:
 161              		.cfi_def_cfa_offset 8
 162              		.cfi_offset 4, -8
 163              		.cfi_offset 14, -4
 136:Drivers/BSP/MLM32L07X01/mlm32l07x01.c ****   {
 164              		.loc 1 136 0
 165 0002 0128     		cmp	r0, #1
 166 0004 07D0     		beq	.L16
 144:Drivers/BSP/MLM32L07X01/mlm32l07x01.c ****   }
 167              		.loc 1 144 0
 168 0006 8021     		movs	r1, #128
 169 0008 A020     		movs	r0, #160
 170              	.LVL14:
 171 000a 0022     		movs	r2, #0
 172 000c 4901     		lsls	r1, r1, #5
 173 000e C005     		lsls	r0, r0, #23
 174 0010 FFF7FEFF 		bl	HW_GPIO_Write
 175              	.LVL15:
 176              	.L13:
 146:Drivers/BSP/MLM32L07X01/mlm32l07x01.c **** void SX1276IoInit( void )
 177              		.loc 1 146 0
 178              		@ sp needed
 179 0014 10BD     		pop	{r4, pc}
 180              	.LVL16:
 181              	.L16:
 138:Drivers/BSP/MLM32L07X01/mlm32l07x01.c ****     
 182              		.loc 1 138 0
 183 0016 8021     		movs	r1, #128
 184 0018 9F30     		adds	r0, r0, #159
 185              	.LVL17:
 186 001a 0122     		movs	r2, #1
 187 001c 4901     		lsls	r1, r1, #5
 188 001e C005     		lsls	r0, r0, #23
 189 0020 FFF7FEFF 		bl	HW_GPIO_Write
 190              	.LVL18:
 140:Drivers/BSP/MLM32L07X01/mlm32l07x01.c ****   }
 191              		.loc 1 140 0
 192 0024 0520     		movs	r0, #5
 193 0026 FFF7FEFF 		bl	DelayMs
 194              	.LVL19:
 195 002a F3E7     		b	.L13
 196              		.cfi_endproc
 197              	.LFE41:
 199              		.section	.text.SX1276IoInit,"ax",%progbits
 200              		.align	1
 201              		.global	SX1276IoInit
 202              		.syntax unified
 203              		.code	16
 204              		.thumb_func
 205              		.fpu softvfp
 207              	SX1276IoInit:
 208              	.LFB42:
 148:Drivers/BSP/MLM32L07X01/mlm32l07x01.c ****   GPIO_InitTypeDef initStruct={0};
ARM GAS  /var/folders/2m/zqg86yyd4hbf56w83tkxjpvr0000gn/T//ccMZY20G.s 			page 11


 209              		.loc 1 148 0
 210              		.cfi_startproc
 211              		@ args = 0, pretend = 0, frame = 24
 212              		@ frame_needed = 0, uses_anonymous_args = 0
 213 0000 30B5     		push	{r4, r5, lr}
 214              	.LCFI2:
 215              		.cfi_def_cfa_offset 12
 216              		.cfi_offset 4, -12
 217              		.cfi_offset 5, -8
 218              		.cfi_offset 14, -4
 219 0002 87B0     		sub	sp, sp, #28
 220              	.LCFI3:
 221              		.cfi_def_cfa_offset 40
 149:Drivers/BSP/MLM32L07X01/mlm32l07x01.c ****   
 222              		.loc 1 149 0
 223 0004 1422     		movs	r2, #20
 224 0006 0021     		movs	r1, #0
 225 0008 01A8     		add	r0, sp, #4
 226 000a FFF7FEFF 		bl	memset
 227              	.LVL20:
 151:Drivers/BSP/MLM32L07X01/mlm32l07x01.c ****   
 228              		.loc 1 151 0
 229 000e 1548     		ldr	r0, .L18
 230 0010 FFF7FEFF 		bl	SX1276BoardInit
 231              	.LVL21:
 153:Drivers/BSP/MLM32L07X01/mlm32l07x01.c ****   initStruct.Pull = GPIO_PULLUP;
 232              		.loc 1 153 0
 233 0014 144B     		ldr	r3, .L18+4
 234 0016 0293     		str	r3, [sp, #8]
 154:Drivers/BSP/MLM32L07X01/mlm32l07x01.c ****   initStruct.Speed = GPIO_SPEED_HIGH;
 235              		.loc 1 154 0
 236 0018 0125     		movs	r5, #1
 237 001a 0395     		str	r5, [sp, #12]
 155:Drivers/BSP/MLM32L07X01/mlm32l07x01.c **** 
 238              		.loc 1 155 0
 239 001c 0323     		movs	r3, #3
 240 001e 0493     		str	r3, [sp, #16]
 157:Drivers/BSP/MLM32L07X01/mlm32l07x01.c ****   HW_GPIO_Init( RADIO_DIO_1_PORT, RADIO_DIO_1_PIN, &initStruct );
 241              		.loc 1 157 0
 242 0020 124C     		ldr	r4, .L18+8
 243 0022 01AA     		add	r2, sp, #4
 244 0024 1021     		movs	r1, #16
 245 0026 2000     		movs	r0, r4
 246 0028 FFF7FEFF 		bl	HW_GPIO_Init
 247              	.LVL22:
 158:Drivers/BSP/MLM32L07X01/mlm32l07x01.c ****   HW_GPIO_Init( RADIO_DIO_2_PORT, RADIO_DIO_2_PIN, &initStruct );
 248              		.loc 1 158 0
 249 002c 01AA     		add	r2, sp, #4
 250 002e 0221     		movs	r1, #2
 251 0030 2000     		movs	r0, r4
 252 0032 FFF7FEFF 		bl	HW_GPIO_Init
 253              	.LVL23:
 159:Drivers/BSP/MLM32L07X01/mlm32l07x01.c ****   HW_GPIO_Init( RADIO_DIO_3_PORT, RADIO_DIO_3_PIN, &initStruct );
 254              		.loc 1 159 0
 255 0036 01AA     		add	r2, sp, #4
 256 0038 0121     		movs	r1, #1
 257 003a 2000     		movs	r0, r4
ARM GAS  /var/folders/2m/zqg86yyd4hbf56w83tkxjpvr0000gn/T//ccMZY20G.s 			page 12


 258 003c FFF7FEFF 		bl	HW_GPIO_Init
 259              	.LVL24:
 160:Drivers/BSP/MLM32L07X01/mlm32l07x01.c **** #ifdef RADIO_DIO_4
 260              		.loc 1 160 0
 261 0040 8021     		movs	r1, #128
 262 0042 01AA     		add	r2, sp, #4
 263 0044 8901     		lsls	r1, r1, #6
 264 0046 0A48     		ldr	r0, .L18+12
 265 0048 FFF7FEFF 		bl	HW_GPIO_Init
 266              	.LVL25:
 167:Drivers/BSP/MLM32L07X01/mlm32l07x01.c ****   initStruct.Pull = GPIO_NOPULL;  
 267              		.loc 1 167 0
 268 004c 0295     		str	r5, [sp, #8]
 168:Drivers/BSP/MLM32L07X01/mlm32l07x01.c ****   HW_GPIO_Init( RADIO_TCXO_VCC_PORT, RADIO_TCXO_VCC_PIN, &initStruct );
 269              		.loc 1 168 0
 270 004e 0023     		movs	r3, #0
 271 0050 0393     		str	r3, [sp, #12]
 169:Drivers/BSP/MLM32L07X01/mlm32l07x01.c **** }
 272              		.loc 1 169 0
 273 0052 8021     		movs	r1, #128
 274 0054 A020     		movs	r0, #160
 275 0056 01AA     		add	r2, sp, #4
 276 0058 4901     		lsls	r1, r1, #5
 277 005a C005     		lsls	r0, r0, #23
 278 005c FFF7FEFF 		bl	HW_GPIO_Init
 279              	.LVL26:
 170:Drivers/BSP/MLM32L07X01/mlm32l07x01.c **** 
 280              		.loc 1 170 0
 281 0060 07B0     		add	sp, sp, #28
 282              		@ sp needed
 283 0062 30BD     		pop	{r4, r5, pc}
 284              	.L19:
 285              		.align	2
 286              	.L18:
 287 0064 00000000 		.word	.LANCHOR0
 288 0068 00001110 		.word	269549568
 289 006c 00040050 		.word	1342178304
 290 0070 00080050 		.word	1342179328
 291              		.cfi_endproc
 292              	.LFE42:
 294              		.section	.text.SX1276IoDeInit,"ax",%progbits
 295              		.align	1
 296              		.global	SX1276IoDeInit
 297              		.syntax unified
 298              		.code	16
 299              		.thumb_func
 300              		.fpu softvfp
 302              	SX1276IoDeInit:
 303              	.LFB44:
 181:Drivers/BSP/MLM32L07X01/mlm32l07x01.c ****   GPIO_InitTypeDef initStruct={0};
 304              		.loc 1 181 0
 305              		.cfi_startproc
 306              		@ args = 0, pretend = 0, frame = 24
 307              		@ frame_needed = 0, uses_anonymous_args = 0
 308 0000 10B5     		push	{r4, lr}
 309              	.LCFI4:
 310              		.cfi_def_cfa_offset 8
ARM GAS  /var/folders/2m/zqg86yyd4hbf56w83tkxjpvr0000gn/T//ccMZY20G.s 			page 13


 311              		.cfi_offset 4, -8
 312              		.cfi_offset 14, -4
 313 0002 86B0     		sub	sp, sp, #24
 314              	.LCFI5:
 315              		.cfi_def_cfa_offset 32
 182:Drivers/BSP/MLM32L07X01/mlm32l07x01.c **** 
 316              		.loc 1 182 0
 317 0004 1422     		movs	r2, #20
 318 0006 0021     		movs	r1, #0
 319 0008 01A8     		add	r0, sp, #4
 320 000a FFF7FEFF 		bl	memset
 321              	.LVL27:
 184:Drivers/BSP/MLM32L07X01/mlm32l07x01.c ****   initStruct.Pull = GPIO_NOPULL;
 322              		.loc 1 184 0
 323 000e 0D4B     		ldr	r3, .L21
 324 0010 0293     		str	r3, [sp, #8]
 187:Drivers/BSP/MLM32L07X01/mlm32l07x01.c ****   HW_GPIO_Init( RADIO_DIO_1_PORT, RADIO_DIO_1_PIN, &initStruct );
 325              		.loc 1 187 0
 326 0012 0D4C     		ldr	r4, .L21+4
 327 0014 01AA     		add	r2, sp, #4
 328 0016 1021     		movs	r1, #16
 329 0018 2000     		movs	r0, r4
 330 001a FFF7FEFF 		bl	HW_GPIO_Init
 331              	.LVL28:
 188:Drivers/BSP/MLM32L07X01/mlm32l07x01.c ****   HW_GPIO_Init( RADIO_DIO_2_PORT, RADIO_DIO_2_PIN, &initStruct );
 332              		.loc 1 188 0
 333 001e 01AA     		add	r2, sp, #4
 334 0020 0221     		movs	r1, #2
 335 0022 2000     		movs	r0, r4
 336 0024 FFF7FEFF 		bl	HW_GPIO_Init
 337              	.LVL29:
 189:Drivers/BSP/MLM32L07X01/mlm32l07x01.c ****   HW_GPIO_Init( RADIO_DIO_3_PORT, RADIO_DIO_3_PIN, &initStruct );
 338              		.loc 1 189 0
 339 0028 01AA     		add	r2, sp, #4
 340 002a 0121     		movs	r1, #1
 341 002c 2000     		movs	r0, r4
 342 002e FFF7FEFF 		bl	HW_GPIO_Init
 343              	.LVL30:
 190:Drivers/BSP/MLM32L07X01/mlm32l07x01.c ****   
 344              		.loc 1 190 0
 345 0032 8021     		movs	r1, #128
 346 0034 01AA     		add	r2, sp, #4
 347 0036 8901     		lsls	r1, r1, #6
 348 0038 0448     		ldr	r0, .L21+8
 349 003a FFF7FEFF 		bl	HW_GPIO_Init
 350              	.LVL31:
 198:Drivers/BSP/MLM32L07X01/mlm32l07x01.c **** 
 351              		.loc 1 198 0
 352 003e 06B0     		add	sp, sp, #24
 353              		@ sp needed
 354 0040 10BD     		pop	{r4, pc}
 355              	.L22:
 356 0042 C046     		.align	2
 357              	.L21:
 358 0044 00001110 		.word	269549568
 359 0048 00040050 		.word	1342178304
 360 004c 00080050 		.word	1342179328
ARM GAS  /var/folders/2m/zqg86yyd4hbf56w83tkxjpvr0000gn/T//ccMZY20G.s 			page 14


 361              		.cfi_endproc
 362              	.LFE44:
 364              		.section	.text.SX1276AntSwInit,"ax",%progbits
 365              		.align	1
 366              		.syntax unified
 367              		.code	16
 368              		.thumb_func
 369              		.fpu softvfp
 371              	SX1276AntSwInit:
 372              	.LFB48:
 287:Drivers/BSP/MLM32L07X01/mlm32l07x01.c ****   GPIO_InitTypeDef initStruct={0};
 373              		.loc 1 287 0
 374              		.cfi_startproc
 375              		@ args = 0, pretend = 0, frame = 24
 376              		@ frame_needed = 0, uses_anonymous_args = 0
 377 0000 10B5     		push	{r4, lr}
 378              	.LCFI6:
 379              		.cfi_def_cfa_offset 8
 380              		.cfi_offset 4, -8
 381              		.cfi_offset 14, -4
 382 0002 86B0     		sub	sp, sp, #24
 383              	.LCFI7:
 384              		.cfi_def_cfa_offset 32
 288:Drivers/BSP/MLM32L07X01/mlm32l07x01.c **** 
 385              		.loc 1 288 0
 386 0004 1422     		movs	r2, #20
 387 0006 0021     		movs	r1, #0
 388 0008 01A8     		add	r0, sp, #4
 389 000a FFF7FEFF 		bl	memset
 390              	.LVL32:
 290:Drivers/BSP/MLM32L07X01/mlm32l07x01.c ****   initStruct.Pull = GPIO_NOPULL; 
 391              		.loc 1 290 0
 392 000e 0123     		movs	r3, #1
 393 0010 0293     		str	r3, [sp, #8]
 292:Drivers/BSP/MLM32L07X01/mlm32l07x01.c ****   
 394              		.loc 1 292 0
 395 0012 0233     		adds	r3, r3, #2
 396 0014 0493     		str	r3, [sp, #16]
 294:Drivers/BSP/MLM32L07X01/mlm32l07x01.c ****   HW_GPIO_Write( RADIO_ANT_SWITCH_PORT_RX, RADIO_ANT_SWITCH_PIN_RX, 0);
 397              		.loc 1 294 0
 398 0016 A024     		movs	r4, #160
 399 0018 E405     		lsls	r4, r4, #23
 400 001a 01AA     		add	r2, sp, #4
 401 001c 0221     		movs	r1, #2
 402 001e 2000     		movs	r0, r4
 403 0020 FFF7FEFF 		bl	HW_GPIO_Init
 404              	.LVL33:
 295:Drivers/BSP/MLM32L07X01/mlm32l07x01.c ****   
 405              		.loc 1 295 0
 406 0024 0022     		movs	r2, #0
 407 0026 0221     		movs	r1, #2
 408 0028 2000     		movs	r0, r4
 409 002a FFF7FEFF 		bl	HW_GPIO_Write
 410              	.LVL34:
 297:Drivers/BSP/MLM32L07X01/mlm32l07x01.c ****   HW_GPIO_Write( RADIO_ANT_SWITCH_PORT_TX_BOOST, RADIO_ANT_SWITCH_PIN_TX_BOOST, 0);
 411              		.loc 1 297 0
 412 002e 0B4C     		ldr	r4, .L24
ARM GAS  /var/folders/2m/zqg86yyd4hbf56w83tkxjpvr0000gn/T//ccMZY20G.s 			page 15


 413 0030 01AA     		add	r2, sp, #4
 414 0032 0221     		movs	r1, #2
 415 0034 2000     		movs	r0, r4
 416 0036 FFF7FEFF 		bl	HW_GPIO_Init
 417              	.LVL35:
 298:Drivers/BSP/MLM32L07X01/mlm32l07x01.c ****   
 418              		.loc 1 298 0
 419 003a 0022     		movs	r2, #0
 420 003c 0221     		movs	r1, #2
 421 003e 2000     		movs	r0, r4
 422 0040 FFF7FEFF 		bl	HW_GPIO_Write
 423              	.LVL36:
 300:Drivers/BSP/MLM32L07X01/mlm32l07x01.c ****   HW_GPIO_Write( RADIO_ANT_SWITCH_PORT_TX_RFO, RADIO_ANT_SWITCH_PIN_TX_RFO, 0);
 424              		.loc 1 300 0
 425 0044 01AA     		add	r2, sp, #4
 426 0046 0421     		movs	r1, #4
 427 0048 2000     		movs	r0, r4
 428 004a FFF7FEFF 		bl	HW_GPIO_Init
 429              	.LVL37:
 301:Drivers/BSP/MLM32L07X01/mlm32l07x01.c **** }
 430              		.loc 1 301 0
 431 004e 0022     		movs	r2, #0
 432 0050 0421     		movs	r1, #4
 433 0052 2000     		movs	r0, r4
 434 0054 FFF7FEFF 		bl	HW_GPIO_Write
 435              	.LVL38:
 302:Drivers/BSP/MLM32L07X01/mlm32l07x01.c **** 
 436              		.loc 1 302 0
 437 0058 06B0     		add	sp, sp, #24
 438              		@ sp needed
 439 005a 10BD     		pop	{r4, pc}
 440              	.L25:
 441              		.align	2
 442              	.L24:
 443 005c 00080050 		.word	1342179328
 444              		.cfi_endproc
 445              	.LFE48:
 447              		.section	.text.SX1276AntSwDeInit,"ax",%progbits
 448              		.align	1
 449              		.syntax unified
 450              		.code	16
 451              		.thumb_func
 452              		.fpu softvfp
 454              	SX1276AntSwDeInit:
 455              	.LFB49:
 305:Drivers/BSP/MLM32L07X01/mlm32l07x01.c ****   GPIO_InitTypeDef initStruct={0};
 456              		.loc 1 305 0
 457              		.cfi_startproc
 458              		@ args = 0, pretend = 0, frame = 24
 459              		@ frame_needed = 0, uses_anonymous_args = 0
 460 0000 10B5     		push	{r4, lr}
 461              	.LCFI8:
 462              		.cfi_def_cfa_offset 8
 463              		.cfi_offset 4, -8
 464              		.cfi_offset 14, -4
 465 0002 86B0     		sub	sp, sp, #24
 466              	.LCFI9:
ARM GAS  /var/folders/2m/zqg86yyd4hbf56w83tkxjpvr0000gn/T//ccMZY20G.s 			page 16


 467              		.cfi_def_cfa_offset 32
 306:Drivers/BSP/MLM32L07X01/mlm32l07x01.c **** 
 468              		.loc 1 306 0
 469 0004 1422     		movs	r2, #20
 470 0006 0021     		movs	r1, #0
 471 0008 01A8     		add	r0, sp, #4
 472 000a FFF7FEFF 		bl	memset
 473              	.LVL39:
 308:Drivers/BSP/MLM32L07X01/mlm32l07x01.c ****   
 474              		.loc 1 308 0
 475 000e 0323     		movs	r3, #3
 476 0010 0293     		str	r3, [sp, #8]
 311:Drivers/BSP/MLM32L07X01/mlm32l07x01.c **** 
 477              		.loc 1 311 0
 478 0012 0493     		str	r3, [sp, #16]
 313:Drivers/BSP/MLM32L07X01/mlm32l07x01.c ****   HW_GPIO_Write( RADIO_ANT_SWITCH_PORT_RX, RADIO_ANT_SWITCH_PIN_RX, 0);
 479              		.loc 1 313 0
 480 0014 A024     		movs	r4, #160
 481 0016 E405     		lsls	r4, r4, #23
 482 0018 01AA     		add	r2, sp, #4
 483 001a 0221     		movs	r1, #2
 484 001c 2000     		movs	r0, r4
 485 001e FFF7FEFF 		bl	HW_GPIO_Init
 486              	.LVL40:
 314:Drivers/BSP/MLM32L07X01/mlm32l07x01.c ****   
 487              		.loc 1 314 0
 488 0022 0022     		movs	r2, #0
 489 0024 0221     		movs	r1, #2
 490 0026 2000     		movs	r0, r4
 491 0028 FFF7FEFF 		bl	HW_GPIO_Write
 492              	.LVL41:
 316:Drivers/BSP/MLM32L07X01/mlm32l07x01.c ****   HW_GPIO_Write( RADIO_ANT_SWITCH_PORT_TX_BOOST, RADIO_ANT_SWITCH_PIN_TX_BOOST, 0);
 493              		.loc 1 316 0
 494 002c 0B4C     		ldr	r4, .L27
 495 002e 01AA     		add	r2, sp, #4
 496 0030 0221     		movs	r1, #2
 497 0032 2000     		movs	r0, r4
 498 0034 FFF7FEFF 		bl	HW_GPIO_Init
 499              	.LVL42:
 317:Drivers/BSP/MLM32L07X01/mlm32l07x01.c ****   
 500              		.loc 1 317 0
 501 0038 0022     		movs	r2, #0
 502 003a 0221     		movs	r1, #2
 503 003c 2000     		movs	r0, r4
 504 003e FFF7FEFF 		bl	HW_GPIO_Write
 505              	.LVL43:
 319:Drivers/BSP/MLM32L07X01/mlm32l07x01.c ****   HW_GPIO_Write( RADIO_ANT_SWITCH_PORT_TX_RFO, RADIO_ANT_SWITCH_PIN_TX_RFO, 0);
 506              		.loc 1 319 0
 507 0042 01AA     		add	r2, sp, #4
 508 0044 0421     		movs	r1, #4
 509 0046 2000     		movs	r0, r4
 510 0048 FFF7FEFF 		bl	HW_GPIO_Init
 511              	.LVL44:
 320:Drivers/BSP/MLM32L07X01/mlm32l07x01.c **** }
 512              		.loc 1 320 0
 513 004c 0022     		movs	r2, #0
 514 004e 0421     		movs	r1, #4
ARM GAS  /var/folders/2m/zqg86yyd4hbf56w83tkxjpvr0000gn/T//ccMZY20G.s 			page 17


 515 0050 2000     		movs	r0, r4
 516 0052 FFF7FEFF 		bl	HW_GPIO_Write
 517              	.LVL45:
 321:Drivers/BSP/MLM32L07X01/mlm32l07x01.c **** 
 518              		.loc 1 321 0
 519 0056 06B0     		add	sp, sp, #24
 520              		@ sp needed
 521 0058 10BD     		pop	{r4, pc}
 522              	.L28:
 523 005a C046     		.align	2
 524              	.L27:
 525 005c 00080050 		.word	1342179328
 526              		.cfi_endproc
 527              	.LFE49:
 529              		.section	.text.SX1276SetAntSwLowPower,"ax",%progbits
 530              		.align	1
 531              		.global	SX1276SetAntSwLowPower
 532              		.syntax unified
 533              		.code	16
 534              		.thumb_func
 535              		.fpu softvfp
 537              	SX1276SetAntSwLowPower:
 538              	.LFB47:
 275:Drivers/BSP/MLM32L07X01/mlm32l07x01.c ****     if( status == false )
 539              		.loc 1 275 0
 540              		.cfi_startproc
 541              		@ args = 0, pretend = 0, frame = 0
 542              		@ frame_needed = 0, uses_anonymous_args = 0
 543              	.LVL46:
 544 0000 10B5     		push	{r4, lr}
 545              	.LCFI10:
 546              		.cfi_def_cfa_offset 8
 547              		.cfi_offset 4, -8
 548              		.cfi_offset 14, -4
 276:Drivers/BSP/MLM32L07X01/mlm32l07x01.c ****     {
 549              		.loc 1 276 0
 550 0002 0028     		cmp	r0, #0
 551 0004 02D0     		beq	.L32
 282:Drivers/BSP/MLM32L07X01/mlm32l07x01.c ****     }
 552              		.loc 1 282 0
 553 0006 FFF7FEFF 		bl	SX1276AntSwDeInit
 554              	.LVL47:
 555              	.L29:
 284:Drivers/BSP/MLM32L07X01/mlm32l07x01.c **** 
 556              		.loc 1 284 0
 557              		@ sp needed
 558 000a 10BD     		pop	{r4, pc}
 559              	.LVL48:
 560              	.L32:
 278:Drivers/BSP/MLM32L07X01/mlm32l07x01.c ****     }
 561              		.loc 1 278 0
 562 000c FFF7FEFF 		bl	SX1276AntSwInit
 563              	.LVL49:
 564 0010 FBE7     		b	.L29
 565              		.cfi_endproc
 566              	.LFE47:
 568              		.section	.text.SX1276IoIrqInit,"ax",%progbits
ARM GAS  /var/folders/2m/zqg86yyd4hbf56w83tkxjpvr0000gn/T//ccMZY20G.s 			page 18


 569              		.align	1
 570              		.global	SX1276IoIrqInit
 571              		.syntax unified
 572              		.code	16
 573              		.thumb_func
 574              		.fpu softvfp
 576              	SX1276IoIrqInit:
 577              	.LFB43:
 173:Drivers/BSP/MLM32L07X01/mlm32l07x01.c ****   HW_GPIO_SetIrq( RADIO_DIO_0_PORT, RADIO_DIO_0_PIN, IRQ_HIGH_PRIORITY, irqHandlers[0] );
 578              		.loc 1 173 0
 579              		.cfi_startproc
 580              		@ args = 0, pretend = 0, frame = 0
 581              		@ frame_needed = 0, uses_anonymous_args = 0
 582              	.LVL50:
 583 0000 70B5     		push	{r4, r5, r6, lr}
 584              	.LCFI11:
 585              		.cfi_def_cfa_offset 16
 586              		.cfi_offset 4, -16
 587              		.cfi_offset 5, -12
 588              		.cfi_offset 6, -8
 589              		.cfi_offset 14, -4
 590 0002 0400     		movs	r4, r0
 174:Drivers/BSP/MLM32L07X01/mlm32l07x01.c ****   HW_GPIO_SetIrq( RADIO_DIO_1_PORT, RADIO_DIO_1_PIN, IRQ_HIGH_PRIORITY, irqHandlers[1] );
 591              		.loc 1 174 0
 592 0004 0D4D     		ldr	r5, .L34
 593 0006 0368     		ldr	r3, [r0]
 594 0008 0022     		movs	r2, #0
 595 000a 1021     		movs	r1, #16
 596 000c 2800     		movs	r0, r5
 597              	.LVL51:
 598 000e FFF7FEFF 		bl	HW_GPIO_SetIrq
 599              	.LVL52:
 175:Drivers/BSP/MLM32L07X01/mlm32l07x01.c ****   HW_GPIO_SetIrq( RADIO_DIO_2_PORT, RADIO_DIO_2_PIN, IRQ_HIGH_PRIORITY, irqHandlers[2] );
 600              		.loc 1 175 0
 601 0012 6368     		ldr	r3, [r4, #4]
 602 0014 0022     		movs	r2, #0
 603 0016 0221     		movs	r1, #2
 604 0018 2800     		movs	r0, r5
 605 001a FFF7FEFF 		bl	HW_GPIO_SetIrq
 606              	.LVL53:
 176:Drivers/BSP/MLM32L07X01/mlm32l07x01.c ****   HW_GPIO_SetIrq( RADIO_DIO_3_PORT, RADIO_DIO_3_PIN, IRQ_HIGH_PRIORITY, irqHandlers[3] );
 607              		.loc 1 176 0
 608 001e A368     		ldr	r3, [r4, #8]
 609 0020 0022     		movs	r2, #0
 610 0022 0121     		movs	r1, #1
 611 0024 2800     		movs	r0, r5
 612 0026 FFF7FEFF 		bl	HW_GPIO_SetIrq
 613              	.LVL54:
 177:Drivers/BSP/MLM32L07X01/mlm32l07x01.c **** }
 614              		.loc 1 177 0
 615 002a E368     		ldr	r3, [r4, #12]
 616 002c 8021     		movs	r1, #128
 617 002e 0022     		movs	r2, #0
 618 0030 8901     		lsls	r1, r1, #6
 619 0032 0348     		ldr	r0, .L34+4
 620 0034 FFF7FEFF 		bl	HW_GPIO_SetIrq
 621              	.LVL55:
ARM GAS  /var/folders/2m/zqg86yyd4hbf56w83tkxjpvr0000gn/T//ccMZY20G.s 			page 19


 178:Drivers/BSP/MLM32L07X01/mlm32l07x01.c **** 
 622              		.loc 1 178 0
 623              		@ sp needed
 624              	.LVL56:
 625 0038 70BD     		pop	{r4, r5, r6, pc}
 626              	.L35:
 627 003a C046     		.align	2
 628              	.L34:
 629 003c 00040050 		.word	1342178304
 630 0040 00080050 		.word	1342179328
 631              		.cfi_endproc
 632              	.LFE43:
 634              		.section	.text.SX1276GetPaSelect,"ax",%progbits
 635              		.align	1
 636              		.global	SX1276GetPaSelect
 637              		.syntax unified
 638              		.code	16
 639              		.thumb_func
 640              		.fpu softvfp
 642              	SX1276GetPaSelect:
 643              	.LFB46:
 263:Drivers/BSP/MLM32L07X01/mlm32l07x01.c ****     if (power >14)
 644              		.loc 1 263 0
 645              		.cfi_startproc
 646              		@ args = 0, pretend = 0, frame = 0
 647              		@ frame_needed = 0, uses_anonymous_args = 0
 648              		@ link register save eliminated.
 649              	.LVL57:
 264:Drivers/BSP/MLM32L07X01/mlm32l07x01.c ****     {
 650              		.loc 1 264 0
 651 0000 0E28     		cmp	r0, #14
 652 0002 01D8     		bhi	.L39
 270:Drivers/BSP/MLM32L07X01/mlm32l07x01.c ****     }
 653              		.loc 1 270 0
 654 0004 0020     		movs	r0, #0
 655              	.LVL58:
 656              	.L37:
 272:Drivers/BSP/MLM32L07X01/mlm32l07x01.c **** 
 657              		.loc 1 272 0
 658              		@ sp needed
 659 0006 7047     		bx	lr
 660              	.LVL59:
 661              	.L39:
 266:Drivers/BSP/MLM32L07X01/mlm32l07x01.c ****     }
 662              		.loc 1 266 0
 663 0008 8020     		movs	r0, #128
 664              	.LVL60:
 665 000a FCE7     		b	.L37
 666              		.cfi_endproc
 667              	.LFE46:
 669              		.section	.text.SX1276SetRfTxPower,"ax",%progbits
 670              		.align	1
 671              		.global	SX1276SetRfTxPower
 672              		.syntax unified
 673              		.code	16
 674              		.thumb_func
 675              		.fpu softvfp
ARM GAS  /var/folders/2m/zqg86yyd4hbf56w83tkxjpvr0000gn/T//ccMZY20G.s 			page 20


 677              	SX1276SetRfTxPower:
 678              	.LFB45:
 201:Drivers/BSP/MLM32L07X01/mlm32l07x01.c ****     uint8_t paConfig = 0;
 679              		.loc 1 201 0
 680              		.cfi_startproc
 681              		@ args = 0, pretend = 0, frame = 8
 682              		@ frame_needed = 0, uses_anonymous_args = 0
 683              	.LVL61:
 684 0000 F0B5     		push	{r4, r5, r6, r7, lr}
 685              	.LCFI12:
 686              		.cfi_def_cfa_offset 20
 687              		.cfi_offset 4, -20
 688              		.cfi_offset 5, -16
 689              		.cfi_offset 6, -12
 690              		.cfi_offset 7, -8
 691              		.cfi_offset 14, -4
 692 0002 83B0     		sub	sp, sp, #12
 693              	.LCFI13:
 694              		.cfi_def_cfa_offset 32
 695 0004 0700     		movs	r7, r0
 696              	.LVL62:
 205:Drivers/BSP/MLM32L07X01/mlm32l07x01.c ****     paDac = SX1276Read( REG_PADAC );
 697              		.loc 1 205 0
 698 0006 0920     		movs	r0, #9
 699              	.LVL63:
 700 0008 FFF7FEFF 		bl	SX1276Read
 701              	.LVL64:
 702 000c 0600     		movs	r6, r0
 703              	.LVL65:
 206:Drivers/BSP/MLM32L07X01/mlm32l07x01.c **** 
 704              		.loc 1 206 0
 705 000e 4D20     		movs	r0, #77
 706 0010 FFF7FEFF 		bl	SX1276Read
 707              	.LVL66:
 708 0014 0190     		str	r0, [sp, #4]
 709 0016 0500     		movs	r5, r0
 710              	.LVL67:
 208:Drivers/BSP/MLM32L07X01/mlm32l07x01.c ****     paConfig = ( paConfig & RF_PACONFIG_MAX_POWER_MASK ) | 0x70;
 711              		.loc 1 208 0
 712 0018 7F24     		movs	r4, #127
 713 001a 3440     		ands	r4, r6
 714 001c F8B2     		uxtb	r0, r7
 715 001e FFF7FEFF 		bl	SX1276GetPaSelect
 716              	.LVL68:
 717 0022 41B2     		sxtb	r1, r0
 718 0024 2143     		orrs	r1, r4
 719 0026 C9B2     		uxtb	r1, r1
 720              	.LVL69:
 209:Drivers/BSP/MLM32L07X01/mlm32l07x01.c **** 
 721              		.loc 1 209 0
 722 0028 7024     		movs	r4, #112
 723 002a 2143     		orrs	r1, r4
 724              	.LVL70:
 211:Drivers/BSP/MLM32L07X01/mlm32l07x01.c ****     {
 725              		.loc 1 211 0
 726 002c 49B2     		sxtb	r1, r1
 727 002e 0029     		cmp	r1, #0
ARM GAS  /var/folders/2m/zqg86yyd4hbf56w83tkxjpvr0000gn/T//ccMZY20G.s 			page 21


 728 0030 05DB     		blt	.L55
 248:Drivers/BSP/MLM32L07X01/mlm32l07x01.c ****         {
 729              		.loc 1 248 0
 730 0032 7B1C     		adds	r3, r7, #1
 731 0034 35DB     		blt	.L53
 732              	.LVL71:
 252:Drivers/BSP/MLM32L07X01/mlm32l07x01.c ****         {
 733              		.loc 1 252 0
 734 0036 0E2F     		cmp	r7, #14
 735 0038 35DD     		ble	.L48
 254:Drivers/BSP/MLM32L07X01/mlm32l07x01.c ****         }
 736              		.loc 1 254 0
 737 003a 0E27     		movs	r7, #14
 738              	.LVL72:
 739 003c 33E0     		b	.L48
 740              	.LVL73:
 741              	.L55:
 213:Drivers/BSP/MLM32L07X01/mlm32l07x01.c ****         {
 742              		.loc 1 213 0
 743 003e 112F     		cmp	r7, #17
 744 0040 15DD     		ble	.L42
 215:Drivers/BSP/MLM32L07X01/mlm32l07x01.c ****         }
 745              		.loc 1 215 0
 746 0042 0725     		movs	r5, #7
 747 0044 019B     		ldr	r3, [sp, #4]
 748 0046 2B43     		orrs	r3, r5
 749 0048 DDB2     		uxtb	r5, r3
 750              	.LVL74:
 751              	.L43:
 221:Drivers/BSP/MLM32L07X01/mlm32l07x01.c ****         {
 752              		.loc 1 221 0
 753 004a 0723     		movs	r3, #7
 754 004c 2B40     		ands	r3, r5
 755 004e 072B     		cmp	r3, #7
 756 0050 15D0     		beq	.L56
 235:Drivers/BSP/MLM32L07X01/mlm32l07x01.c ****             {
 757              		.loc 1 235 0
 758 0052 012F     		cmp	r7, #1
 759 0054 23DD     		ble	.L51
 760              	.LVL75:
 239:Drivers/BSP/MLM32L07X01/mlm32l07x01.c ****             {
 761              		.loc 1 239 0
 762 0056 112F     		cmp	r7, #17
 763 0058 00DD     		ble	.L47
 241:Drivers/BSP/MLM32L07X01/mlm32l07x01.c ****             }
 764              		.loc 1 241 0
 765 005a 1127     		movs	r7, #17
 766              	.LVL76:
 767              	.L47:
 243:Drivers/BSP/MLM32L07X01/mlm32l07x01.c ****         }
 768              		.loc 1 243 0
 769 005c 0F23     		movs	r3, #15
 770 005e 9943     		bics	r1, r3
 771              	.LVL77:
 772 0060 023F     		subs	r7, r7, #2
 773              	.LVL78:
 774 0062 7BB2     		sxtb	r3, r7
ARM GAS  /var/folders/2m/zqg86yyd4hbf56w83tkxjpvr0000gn/T//ccMZY20G.s 			page 22


 775 0064 0F27     		movs	r7, #15
 776 0066 1F40     		ands	r7, r3
 777 0068 3943     		orrs	r1, r7
 778 006a C9B2     		uxtb	r1, r1
 779              	.LVL79:
 780 006c 22E0     		b	.L46
 781              	.LVL80:
 782              	.L42:
 219:Drivers/BSP/MLM32L07X01/mlm32l07x01.c ****         }
 783              		.loc 1 219 0
 784 006e 0723     		movs	r3, #7
 785 0070 019E     		ldr	r6, [sp, #4]
 786 0072 9E43     		bics	r6, r3
 787 0074 75B2     		sxtb	r5, r6
 788 0076 0426     		movs	r6, #4
 789 0078 3543     		orrs	r5, r6
 790 007a EDB2     		uxtb	r5, r5
 791              	.LVL81:
 792 007c E5E7     		b	.L43
 793              	.L56:
 223:Drivers/BSP/MLM32L07X01/mlm32l07x01.c ****             {
 794              		.loc 1 223 0
 795 007e 042F     		cmp	r7, #4
 796 0080 03DD     		ble	.L49
 797              	.LVL82:
 227:Drivers/BSP/MLM32L07X01/mlm32l07x01.c ****             {
 798              		.loc 1 227 0
 799 0082 142F     		cmp	r7, #20
 800 0084 02DD     		ble	.L45
 229:Drivers/BSP/MLM32L07X01/mlm32l07x01.c ****             }
 801              		.loc 1 229 0
 802 0086 1427     		movs	r7, #20
 803              	.LVL83:
 804 0088 00E0     		b	.L45
 805              	.LVL84:
 806              	.L49:
 225:Drivers/BSP/MLM32L07X01/mlm32l07x01.c ****             }
 807              		.loc 1 225 0
 808 008a 0527     		movs	r7, #5
 809              	.LVL85:
 810              	.L45:
 231:Drivers/BSP/MLM32L07X01/mlm32l07x01.c ****         }
 811              		.loc 1 231 0
 812 008c 0F23     		movs	r3, #15
 813 008e 9943     		bics	r1, r3
 814              	.LVL86:
 815 0090 053F     		subs	r7, r7, #5
 816              	.LVL87:
 817 0092 7BB2     		sxtb	r3, r7
 818 0094 0F27     		movs	r7, #15
 819 0096 1F40     		ands	r7, r3
 820 0098 3943     		orrs	r1, r7
 821 009a C9B2     		uxtb	r1, r1
 822              	.LVL88:
 823 009c 0AE0     		b	.L46
 824              	.LVL89:
 825              	.L51:
ARM GAS  /var/folders/2m/zqg86yyd4hbf56w83tkxjpvr0000gn/T//ccMZY20G.s 			page 23


 237:Drivers/BSP/MLM32L07X01/mlm32l07x01.c ****             }
 826              		.loc 1 237 0
 827 009e 0227     		movs	r7, #2
 828 00a0 DCE7     		b	.L47
 829              	.LVL90:
 830              	.L53:
 250:Drivers/BSP/MLM32L07X01/mlm32l07x01.c ****         }
 831              		.loc 1 250 0
 832 00a2 0127     		movs	r7, #1
 833 00a4 7F42     		rsbs	r7, r7, #0
 834              	.LVL91:
 835              	.L48:
 256:Drivers/BSP/MLM32L07X01/mlm32l07x01.c ****     }
 836              		.loc 1 256 0
 837 00a6 0F23     		movs	r3, #15
 838 00a8 9943     		bics	r1, r3
 839              	.LVL92:
 840 00aa 0137     		adds	r7, r7, #1
 841              	.LVL93:
 842 00ac 7FB2     		sxtb	r7, r7
 843 00ae 1F40     		ands	r7, r3
 844 00b0 3943     		orrs	r1, r7
 845 00b2 C9B2     		uxtb	r1, r1
 846              	.LVL94:
 847              	.L46:
 258:Drivers/BSP/MLM32L07X01/mlm32l07x01.c ****     SX1276Write( REG_PADAC, paDac );
 848              		.loc 1 258 0
 849 00b4 0920     		movs	r0, #9
 850 00b6 FFF7FEFF 		bl	SX1276Write
 851              	.LVL95:
 259:Drivers/BSP/MLM32L07X01/mlm32l07x01.c **** }
 852              		.loc 1 259 0
 853 00ba 2900     		movs	r1, r5
 854 00bc 4D20     		movs	r0, #77
 855 00be FFF7FEFF 		bl	SX1276Write
 856              	.LVL96:
 260:Drivers/BSP/MLM32L07X01/mlm32l07x01.c **** 
 857              		.loc 1 260 0
 858 00c2 03B0     		add	sp, sp, #12
 859              		@ sp needed
 860              	.LVL97:
 861 00c4 F0BD     		pop	{r4, r5, r6, r7, pc}
 862              		.cfi_endproc
 863              	.LFE45:
 865              		.global	Radio
 866              		.section	.rodata
 867              		.align	2
 870              	Radio:
 871 0000 00000000 		.word	SX1276IoInit
 872 0004 00000000 		.word	SX1276IoDeInit
 873 0008 00000000 		.word	SX1276Init
 874 000c 00000000 		.word	SX1276GetStatus
 875 0010 00000000 		.word	SX1276SetModem
 876 0014 00000000 		.word	SX1276SetChannel
 877 0018 00000000 		.word	SX1276IsChannelFree
 878 001c 00000000 		.word	SX1276Random
 879 0020 00000000 		.word	SX1276SetRxConfig
ARM GAS  /var/folders/2m/zqg86yyd4hbf56w83tkxjpvr0000gn/T//ccMZY20G.s 			page 24


 880 0024 00000000 		.word	SX1276SetTxConfig
 881 0028 00000000 		.word	SX1276CheckRfFrequency
 882 002c 00000000 		.word	SX1276GetTimeOnAir
 883 0030 00000000 		.word	SX1276Send
 884 0034 00000000 		.word	SX1276SetSleep
 885 0038 00000000 		.word	SX1276SetStby
 886 003c 00000000 		.word	SX1276SetRx
 887 0040 00000000 		.word	SX1276StartCad
 888 0044 00000000 		.word	SX1276SetTxContinuousWave
 889 0048 00000000 		.word	SX1276ReadRssi
 890 004c 00000000 		.word	SX1276Write
 891 0050 00000000 		.word	SX1276Read
 892 0054 00000000 		.word	SX1276WriteBuffer
 893 0058 00000000 		.word	SX1276ReadBuffer
 894 005c 00000000 		.word	SX1276SetMaxPayloadLength
 895 0060 00000000 		.word	SX1276SetPublicNetwork
 896 0064 00000000 		.word	SX1276GetWakeupTime
 897 0068 00000000 		.space	12
 897      00000000 
 897      00000000 
 898              		.data
 899              		.align	2
 900              		.set	.LANCHOR0,. + 0
 903              	BoardCallbacks:
 904 0000 00000000 		.word	SX1276SetXO
 905 0004 00000000 		.word	SX1276GetWakeTime
 906 0008 00000000 		.word	SX1276IoIrqInit
 907 000c 00000000 		.word	SX1276SetRfTxPower
 908 0010 00000000 		.word	SX1276SetAntSwLowPower
 909 0014 00000000 		.word	SX1276SetAntSw
 910              		.text
 911              	.Letext0:
 912              		.file 2 "/opt/gcc-arm-none-eabi-7-2017-q4-major/arm-none-eabi/include/machine/_default_types.h"
 913              		.file 3 "/opt/gcc-arm-none-eabi-7-2017-q4-major/arm-none-eabi/include/sys/lock.h"
 914              		.file 4 "/opt/gcc-arm-none-eabi-7-2017-q4-major/arm-none-eabi/include/sys/_types.h"
 915              		.file 5 "/opt/gcc-arm-none-eabi-7-2017-q4-major/lib/gcc/arm-none-eabi/7.2.1/include/stddef.h"
 916              		.file 6 "/opt/gcc-arm-none-eabi-7-2017-q4-major/arm-none-eabi/include/sys/reent.h"
 917              		.file 7 "/opt/gcc-arm-none-eabi-7-2017-q4-major/arm-none-eabi/include/math.h"
 918              		.file 8 "/opt/gcc-arm-none-eabi-7-2017-q4-major/arm-none-eabi/include/sys/_stdint.h"
 919              		.file 9 "Drivers/CMSIS/Device/ST/STM32L0xx/Include/system_stm32l0xx.h"
 920              		.file 10 "Drivers/CMSIS/Device/ST/STM32L0xx/Include/stm32l072xx.h"
 921              		.file 11 "Drivers/STM32L0xx_HAL_Driver/Inc/stm32l0xx_hal_gpio.h"
 922              		.file 12 "/opt/gcc-arm-none-eabi-7-2017-q4-major/arm-none-eabi/include/stdlib.h"
 923              		.file 13 "Drivers/CMSIS/Device/ST/STM32L0xx/Include/stm32l0xx.h"
 924              		.file 14 "Middlewares/Third_Party/Lora/Phy/radio.h"
 925              		.file 15 "Drivers/BSP/Components/sx1276/sx1276.h"
 926              		.file 16 "Inc/hw_gpio.h"
 927              		.file 17 "Middlewares/Third_Party/Lora/Utilities/delay.h"
 928              		.file 18 "<built-in>"
ARM GAS  /var/folders/2m/zqg86yyd4hbf56w83tkxjpvr0000gn/T//ccMZY20G.s 			page 25

