ARM GAS  /var/folders/2m/zqg86yyd4hbf56w83tkxjpvr0000gn/T//ccxnAkOG.s 			page 1


   1              		.cpu cortex-m0plus
   2              		.eabi_attribute 20, 1
   3              		.eabi_attribute 21, 1
   4              		.eabi_attribute 23, 3
   5              		.eabi_attribute 24, 1
   6              		.eabi_attribute 25, 1
   7              		.eabi_attribute 26, 1
   8              		.eabi_attribute 30, 1
   9              		.eabi_attribute 34, 0
  10              		.eabi_attribute 18, 4
  11              		.file	"stm32l0xx_hal_rtc_ex.c"
  12              		.text
  13              	.Ltext0:
  14              		.cfi_sections	.debug_frame
  15              		.section	.text.HAL_RTCEx_SetTimeStamp,"ax",%progbits
  16              		.align	1
  17              		.global	HAL_RTCEx_SetTimeStamp
  18              		.syntax unified
  19              		.code	16
  20              		.thumb_func
  21              		.fpu softvfp
  23              	HAL_RTCEx_SetTimeStamp:
  24              	.LFB39:
  25              		.file 1 "Drivers/STM32L0xx_HAL_Driver/Src/stm32l0xx_hal_rtc_ex.c"
   1:Drivers/STM32L0xx_HAL_Driver/Src/stm32l0xx_hal_rtc_ex.c **** /**
   2:Drivers/STM32L0xx_HAL_Driver/Src/stm32l0xx_hal_rtc_ex.c ****   ******************************************************************************
   3:Drivers/STM32L0xx_HAL_Driver/Src/stm32l0xx_hal_rtc_ex.c ****   * @file    stm32l0xx_hal_rtc_ex.c
   4:Drivers/STM32L0xx_HAL_Driver/Src/stm32l0xx_hal_rtc_ex.c ****   * @author  MCD Application Team
   5:Drivers/STM32L0xx_HAL_Driver/Src/stm32l0xx_hal_rtc_ex.c ****   * @version V1.8.1
   6:Drivers/STM32L0xx_HAL_Driver/Src/stm32l0xx_hal_rtc_ex.c ****   * @date    14-April-2017
   7:Drivers/STM32L0xx_HAL_Driver/Src/stm32l0xx_hal_rtc_ex.c ****   * @brief   Extended RTC HAL module driver.
   8:Drivers/STM32L0xx_HAL_Driver/Src/stm32l0xx_hal_rtc_ex.c ****   *
   9:Drivers/STM32L0xx_HAL_Driver/Src/stm32l0xx_hal_rtc_ex.c ****   *          This file provides firmware functions to manage the following 
  10:Drivers/STM32L0xx_HAL_Driver/Src/stm32l0xx_hal_rtc_ex.c ****   *          functionalities of the Real Time Clock (RTC) Extended peripheral:
  11:Drivers/STM32L0xx_HAL_Driver/Src/stm32l0xx_hal_rtc_ex.c ****   *           + RTC Time Stamp functions
  12:Drivers/STM32L0xx_HAL_Driver/Src/stm32l0xx_hal_rtc_ex.c ****   *           + RTC Tamper functions 
  13:Drivers/STM32L0xx_HAL_Driver/Src/stm32l0xx_hal_rtc_ex.c ****   *           + RTC Wake-up functions
  14:Drivers/STM32L0xx_HAL_Driver/Src/stm32l0xx_hal_rtc_ex.c ****   *           + Extended Control functions
  15:Drivers/STM32L0xx_HAL_Driver/Src/stm32l0xx_hal_rtc_ex.c ****   *           + Extended RTC features functions    
  16:Drivers/STM32L0xx_HAL_Driver/Src/stm32l0xx_hal_rtc_ex.c ****   *
  17:Drivers/STM32L0xx_HAL_Driver/Src/stm32l0xx_hal_rtc_ex.c ****   @verbatim
  18:Drivers/STM32L0xx_HAL_Driver/Src/stm32l0xx_hal_rtc_ex.c ****   ==============================================================================
  19:Drivers/STM32L0xx_HAL_Driver/Src/stm32l0xx_hal_rtc_ex.c ****                   ##### How to use this driver #####
  20:Drivers/STM32L0xx_HAL_Driver/Src/stm32l0xx_hal_rtc_ex.c ****   ==============================================================================
  21:Drivers/STM32L0xx_HAL_Driver/Src/stm32l0xx_hal_rtc_ex.c ****   [..]
  22:Drivers/STM32L0xx_HAL_Driver/Src/stm32l0xx_hal_rtc_ex.c ****     (+) Enable the RTC domain access.
  23:Drivers/STM32L0xx_HAL_Driver/Src/stm32l0xx_hal_rtc_ex.c ****     (+) Configure the RTC Prescaler (Asynchronous and Synchronous) and RTC hour
  24:Drivers/STM32L0xx_HAL_Driver/Src/stm32l0xx_hal_rtc_ex.c ****         format using the HAL_RTC_Init() function.
  25:Drivers/STM32L0xx_HAL_Driver/Src/stm32l0xx_hal_rtc_ex.c **** 
  26:Drivers/STM32L0xx_HAL_Driver/Src/stm32l0xx_hal_rtc_ex.c ****   *** RTC Wakeup configuration ***
  27:Drivers/STM32L0xx_HAL_Driver/Src/stm32l0xx_hal_rtc_ex.c ****   ================================
  28:Drivers/STM32L0xx_HAL_Driver/Src/stm32l0xx_hal_rtc_ex.c ****   [..] 
  29:Drivers/STM32L0xx_HAL_Driver/Src/stm32l0xx_hal_rtc_ex.c ****     (+) To configure the RTC Wakeup Clock source and Counter use the HAL_RTCEx_SetWakeUpTimer()
  30:Drivers/STM32L0xx_HAL_Driver/Src/stm32l0xx_hal_rtc_ex.c ****         function. You can also configure the RTC Wakeup timer with interrupt mode 
  31:Drivers/STM32L0xx_HAL_Driver/Src/stm32l0xx_hal_rtc_ex.c ****         using the HAL_RTCEx_SetWakeUpTimer_IT() function.
  32:Drivers/STM32L0xx_HAL_Driver/Src/stm32l0xx_hal_rtc_ex.c ****     (+) To read the RTC WakeUp Counter register, use the HAL_RTCEx_GetWakeUpTimer()
  33:Drivers/STM32L0xx_HAL_Driver/Src/stm32l0xx_hal_rtc_ex.c ****         function.
ARM GAS  /var/folders/2m/zqg86yyd4hbf56w83tkxjpvr0000gn/T//ccxnAkOG.s 			page 2


  34:Drivers/STM32L0xx_HAL_Driver/Src/stm32l0xx_hal_rtc_ex.c ****         
  35:Drivers/STM32L0xx_HAL_Driver/Src/stm32l0xx_hal_rtc_ex.c ****   *** Outputs configuration ***
  36:Drivers/STM32L0xx_HAL_Driver/Src/stm32l0xx_hal_rtc_ex.c ****   =============================
  37:Drivers/STM32L0xx_HAL_Driver/Src/stm32l0xx_hal_rtc_ex.c ****   [..] The RTC has 2 different outputs:
  38:Drivers/STM32L0xx_HAL_Driver/Src/stm32l0xx_hal_rtc_ex.c ****     (+) RTC_ALARM: this output is used to manage the RTC Alarm A, Alarm B
  39:Drivers/STM32L0xx_HAL_Driver/Src/stm32l0xx_hal_rtc_ex.c ****         and WaKeUp signals.
  40:Drivers/STM32L0xx_HAL_Driver/Src/stm32l0xx_hal_rtc_ex.c ****         To output the selected RTC signal, use the HAL_RTC_Init() function.             
  41:Drivers/STM32L0xx_HAL_Driver/Src/stm32l0xx_hal_rtc_ex.c ****     (+) RTC_CALIB: this output is 512Hz signal or 1Hz.
  42:Drivers/STM32L0xx_HAL_Driver/Src/stm32l0xx_hal_rtc_ex.c ****         To enable the RTC_CALIB, use the HAL_RTCEx_SetCalibrationOutPut() function.
  43:Drivers/STM32L0xx_HAL_Driver/Src/stm32l0xx_hal_rtc_ex.c ****     (+) Two pins can be used as RTC_ALARM or RTC_CALIB (PC13, PB14) for STM32L05x/6x/7x/8x 
  44:Drivers/STM32L0xx_HAL_Driver/Src/stm32l0xx_hal_rtc_ex.c **** 	    and (PA2, PB14) for STM32L03x/4x managed on the RTC_OR register.
  45:Drivers/STM32L0xx_HAL_Driver/Src/stm32l0xx_hal_rtc_ex.c ****     (+) When the RTC_CALIB or RTC_ALARM output is selected, the RTC_OUT pin is
  46:Drivers/STM32L0xx_HAL_Driver/Src/stm32l0xx_hal_rtc_ex.c ****         automatically configured in output alternate function. 
  47:Drivers/STM32L0xx_HAL_Driver/Src/stm32l0xx_hal_rtc_ex.c ****         
  48:Drivers/STM32L0xx_HAL_Driver/Src/stm32l0xx_hal_rtc_ex.c ****   *** Smooth digital Calibration configuration ***
  49:Drivers/STM32L0xx_HAL_Driver/Src/stm32l0xx_hal_rtc_ex.c ****   ================================================
  50:Drivers/STM32L0xx_HAL_Driver/Src/stm32l0xx_hal_rtc_ex.c ****   [..]
  51:Drivers/STM32L0xx_HAL_Driver/Src/stm32l0xx_hal_rtc_ex.c ****     (+) Configure the RTC Original Digital Calibration Value and the corresponding
  52:Drivers/STM32L0xx_HAL_Driver/Src/stm32l0xx_hal_rtc_ex.c ****         calibration cycle period (32s,16s and 8s) using the HAL_RTCEx_SetSmoothCalib() 
  53:Drivers/STM32L0xx_HAL_Driver/Src/stm32l0xx_hal_rtc_ex.c ****         function.
  54:Drivers/STM32L0xx_HAL_Driver/Src/stm32l0xx_hal_rtc_ex.c **** 
  55:Drivers/STM32L0xx_HAL_Driver/Src/stm32l0xx_hal_rtc_ex.c ****   *** TimeStamp configuration ***
  56:Drivers/STM32L0xx_HAL_Driver/Src/stm32l0xx_hal_rtc_ex.c ****   ===============================
  57:Drivers/STM32L0xx_HAL_Driver/Src/stm32l0xx_hal_rtc_ex.c ****   [..]
  58:Drivers/STM32L0xx_HAL_Driver/Src/stm32l0xx_hal_rtc_ex.c ****         (+) Configure the RTC_AF trigger and enable the RTC TimeStamp using the 
  59:Drivers/STM32L0xx_HAL_Driver/Src/stm32l0xx_hal_rtc_ex.c ****             HAL_RTCEx_SetTimeStamp() function. You can also configure the RTC TimeStamp with 
  60:Drivers/STM32L0xx_HAL_Driver/Src/stm32l0xx_hal_rtc_ex.c ****             interrupt mode using the HAL_RTCEx_SetTimeStamp_IT() function.
  61:Drivers/STM32L0xx_HAL_Driver/Src/stm32l0xx_hal_rtc_ex.c ****         (+) To read the RTC TimeStamp Time and Date register, use the HAL_RTCEx_GetTimeStamp()
  62:Drivers/STM32L0xx_HAL_Driver/Src/stm32l0xx_hal_rtc_ex.c ****             function.
  63:Drivers/STM32L0xx_HAL_Driver/Src/stm32l0xx_hal_rtc_ex.c **** 
  64:Drivers/STM32L0xx_HAL_Driver/Src/stm32l0xx_hal_rtc_ex.c ****   *** Tamper configuration ***
  65:Drivers/STM32L0xx_HAL_Driver/Src/stm32l0xx_hal_rtc_ex.c ****   ============================
  66:Drivers/STM32L0xx_HAL_Driver/Src/stm32l0xx_hal_rtc_ex.c ****   [..]
  67:Drivers/STM32L0xx_HAL_Driver/Src/stm32l0xx_hal_rtc_ex.c ****         (+) Enable the RTC Tamper and configure the Tamper filter count, trigger Edge 
  68:Drivers/STM32L0xx_HAL_Driver/Src/stm32l0xx_hal_rtc_ex.c ****         or Level according to the Tamper filter (if equal to 0 Edge else Level) 
  69:Drivers/STM32L0xx_HAL_Driver/Src/stm32l0xx_hal_rtc_ex.c ****         value, sampling frequency, NoErase, MaskFlag,  precharge or discharge and
  70:Drivers/STM32L0xx_HAL_Driver/Src/stm32l0xx_hal_rtc_ex.c ****         Pull-UP using the HAL_RTCEx_SetTamper() function. You can configure RTC Tamper
  71:Drivers/STM32L0xx_HAL_Driver/Src/stm32l0xx_hal_rtc_ex.c ****         with interrupt mode using HAL_RTCEx_SetTamper_IT() function.
  72:Drivers/STM32L0xx_HAL_Driver/Src/stm32l0xx_hal_rtc_ex.c ****     (+) The default configuration of the Tamper erases the backup registers. To avoid
  73:Drivers/STM32L0xx_HAL_Driver/Src/stm32l0xx_hal_rtc_ex.c ****         erase, enable the NoErase field on the RTC_TAMPCR register.
  74:Drivers/STM32L0xx_HAL_Driver/Src/stm32l0xx_hal_rtc_ex.c **** 
  75:Drivers/STM32L0xx_HAL_Driver/Src/stm32l0xx_hal_rtc_ex.c ****   *** Backup Data Registers configuration ***
  76:Drivers/STM32L0xx_HAL_Driver/Src/stm32l0xx_hal_rtc_ex.c ****   ===========================================
  77:Drivers/STM32L0xx_HAL_Driver/Src/stm32l0xx_hal_rtc_ex.c ****   [..]
  78:Drivers/STM32L0xx_HAL_Driver/Src/stm32l0xx_hal_rtc_ex.c ****     (+) To write to the RTC Backup Data registers, use the HAL_RTCEx_BKUPWrite()
  79:Drivers/STM32L0xx_HAL_Driver/Src/stm32l0xx_hal_rtc_ex.c ****         function.
  80:Drivers/STM32L0xx_HAL_Driver/Src/stm32l0xx_hal_rtc_ex.c ****     (+) To read the RTC Backup Data registers, use the HAL_RTCEx_BKUPRead()
  81:Drivers/STM32L0xx_HAL_Driver/Src/stm32l0xx_hal_rtc_ex.c ****         function.
  82:Drivers/STM32L0xx_HAL_Driver/Src/stm32l0xx_hal_rtc_ex.c **** 
  83:Drivers/STM32L0xx_HAL_Driver/Src/stm32l0xx_hal_rtc_ex.c ****    @endverbatim
  84:Drivers/STM32L0xx_HAL_Driver/Src/stm32l0xx_hal_rtc_ex.c ****   ******************************************************************************
  85:Drivers/STM32L0xx_HAL_Driver/Src/stm32l0xx_hal_rtc_ex.c ****   * @attention
  86:Drivers/STM32L0xx_HAL_Driver/Src/stm32l0xx_hal_rtc_ex.c ****   *
  87:Drivers/STM32L0xx_HAL_Driver/Src/stm32l0xx_hal_rtc_ex.c ****   * <h2><center>&copy; COPYRIGHT(c) 2016 STMicroelectronics</center></h2>
  88:Drivers/STM32L0xx_HAL_Driver/Src/stm32l0xx_hal_rtc_ex.c ****   *
  89:Drivers/STM32L0xx_HAL_Driver/Src/stm32l0xx_hal_rtc_ex.c ****   * Redistribution and use in source and binary forms, with or without modification,
  90:Drivers/STM32L0xx_HAL_Driver/Src/stm32l0xx_hal_rtc_ex.c ****   * are permitted provided that the following conditions are met:
ARM GAS  /var/folders/2m/zqg86yyd4hbf56w83tkxjpvr0000gn/T//ccxnAkOG.s 			page 3


  91:Drivers/STM32L0xx_HAL_Driver/Src/stm32l0xx_hal_rtc_ex.c ****   *   1. Redistributions of source code must retain the above copyright notice,
  92:Drivers/STM32L0xx_HAL_Driver/Src/stm32l0xx_hal_rtc_ex.c ****   *      this list of conditions and the following disclaimer.
  93:Drivers/STM32L0xx_HAL_Driver/Src/stm32l0xx_hal_rtc_ex.c ****   *   2. Redistributions in binary form must reproduce the above copyright notice,
  94:Drivers/STM32L0xx_HAL_Driver/Src/stm32l0xx_hal_rtc_ex.c ****   *      this list of conditions and the following disclaimer in the documentation
  95:Drivers/STM32L0xx_HAL_Driver/Src/stm32l0xx_hal_rtc_ex.c ****   *      and/or other materials provided with the distribution.
  96:Drivers/STM32L0xx_HAL_Driver/Src/stm32l0xx_hal_rtc_ex.c ****   *   3. Neither the name of STMicroelectronics nor the names of its contributors
  97:Drivers/STM32L0xx_HAL_Driver/Src/stm32l0xx_hal_rtc_ex.c ****   *      may be used to endorse or promote products derived from this software
  98:Drivers/STM32L0xx_HAL_Driver/Src/stm32l0xx_hal_rtc_ex.c ****   *      without specific prior written permission.
  99:Drivers/STM32L0xx_HAL_Driver/Src/stm32l0xx_hal_rtc_ex.c ****   *
 100:Drivers/STM32L0xx_HAL_Driver/Src/stm32l0xx_hal_rtc_ex.c ****   * THIS SOFTWARE IS PROVIDED BY THE COPYRIGHT HOLDERS AND CONTRIBUTORS "AS IS"
 101:Drivers/STM32L0xx_HAL_Driver/Src/stm32l0xx_hal_rtc_ex.c ****   * AND ANY EXPRESS OR IMPLIED WARRANTIES, INCLUDING, BUT NOT LIMITED TO, THE
 102:Drivers/STM32L0xx_HAL_Driver/Src/stm32l0xx_hal_rtc_ex.c ****   * IMPLIED WARRANTIES OF MERCHANTABILITY AND FITNESS FOR A PARTICULAR PURPOSE ARE
 103:Drivers/STM32L0xx_HAL_Driver/Src/stm32l0xx_hal_rtc_ex.c ****   * DISCLAIMED. IN NO EVENT SHALL THE COPYRIGHT HOLDER OR CONTRIBUTORS BE LIABLE
 104:Drivers/STM32L0xx_HAL_Driver/Src/stm32l0xx_hal_rtc_ex.c ****   * FOR ANY DIRECT, INDIRECT, INCIDENTAL, SPECIAL, EXEMPLARY, OR CONSEQUENTIAL
 105:Drivers/STM32L0xx_HAL_Driver/Src/stm32l0xx_hal_rtc_ex.c ****   * DAMAGES (INCLUDING, BUT NOT LIMITED TO, PROCUREMENT OF SUBSTITUTE GOODS OR
 106:Drivers/STM32L0xx_HAL_Driver/Src/stm32l0xx_hal_rtc_ex.c ****   * SERVICES; LOSS OF USE, DATA, OR PROFITS; OR BUSINESS INTERRUPTION) HOWEVER
 107:Drivers/STM32L0xx_HAL_Driver/Src/stm32l0xx_hal_rtc_ex.c ****   * CAUSED AND ON ANY THEORY OF LIABILITY, WHETHER IN CONTRACT, STRICT LIABILITY,
 108:Drivers/STM32L0xx_HAL_Driver/Src/stm32l0xx_hal_rtc_ex.c ****   * OR TORT (INCLUDING NEGLIGENCE OR OTHERWISE) ARISING IN ANY WAY OUT OF THE USE
 109:Drivers/STM32L0xx_HAL_Driver/Src/stm32l0xx_hal_rtc_ex.c ****   * OF THIS SOFTWARE, EVEN IF ADVISED OF THE POSSIBILITY OF SUCH DAMAGE.
 110:Drivers/STM32L0xx_HAL_Driver/Src/stm32l0xx_hal_rtc_ex.c ****   *
 111:Drivers/STM32L0xx_HAL_Driver/Src/stm32l0xx_hal_rtc_ex.c ****   ******************************************************************************  
 112:Drivers/STM32L0xx_HAL_Driver/Src/stm32l0xx_hal_rtc_ex.c ****   */
 113:Drivers/STM32L0xx_HAL_Driver/Src/stm32l0xx_hal_rtc_ex.c **** 
 114:Drivers/STM32L0xx_HAL_Driver/Src/stm32l0xx_hal_rtc_ex.c **** /* Includes ------------------------------------------------------------------*/
 115:Drivers/STM32L0xx_HAL_Driver/Src/stm32l0xx_hal_rtc_ex.c **** #include "stm32l0xx_hal.h"
 116:Drivers/STM32L0xx_HAL_Driver/Src/stm32l0xx_hal_rtc_ex.c **** 
 117:Drivers/STM32L0xx_HAL_Driver/Src/stm32l0xx_hal_rtc_ex.c **** /** @addtogroup STM32L0xx_HAL_Driver
 118:Drivers/STM32L0xx_HAL_Driver/Src/stm32l0xx_hal_rtc_ex.c ****   * @{
 119:Drivers/STM32L0xx_HAL_Driver/Src/stm32l0xx_hal_rtc_ex.c ****   */
 120:Drivers/STM32L0xx_HAL_Driver/Src/stm32l0xx_hal_rtc_ex.c **** 
 121:Drivers/STM32L0xx_HAL_Driver/Src/stm32l0xx_hal_rtc_ex.c **** /** @addtogroup RTCEx
 122:Drivers/STM32L0xx_HAL_Driver/Src/stm32l0xx_hal_rtc_ex.c ****   * @brief RTC Extended HAL module driver
 123:Drivers/STM32L0xx_HAL_Driver/Src/stm32l0xx_hal_rtc_ex.c ****   * @{
 124:Drivers/STM32L0xx_HAL_Driver/Src/stm32l0xx_hal_rtc_ex.c ****   */
 125:Drivers/STM32L0xx_HAL_Driver/Src/stm32l0xx_hal_rtc_ex.c **** 
 126:Drivers/STM32L0xx_HAL_Driver/Src/stm32l0xx_hal_rtc_ex.c **** #ifdef HAL_RTC_MODULE_ENABLED
 127:Drivers/STM32L0xx_HAL_Driver/Src/stm32l0xx_hal_rtc_ex.c **** 
 128:Drivers/STM32L0xx_HAL_Driver/Src/stm32l0xx_hal_rtc_ex.c **** /* Private typedef -----------------------------------------------------------*/
 129:Drivers/STM32L0xx_HAL_Driver/Src/stm32l0xx_hal_rtc_ex.c **** /* Private define ------------------------------------------------------------*/
 130:Drivers/STM32L0xx_HAL_Driver/Src/stm32l0xx_hal_rtc_ex.c **** /* Private macro -------------------------------------------------------------*/
 131:Drivers/STM32L0xx_HAL_Driver/Src/stm32l0xx_hal_rtc_ex.c **** /* Private variables ---------------------------------------------------------*/
 132:Drivers/STM32L0xx_HAL_Driver/Src/stm32l0xx_hal_rtc_ex.c **** /* Private function prototypes -----------------------------------------------*/
 133:Drivers/STM32L0xx_HAL_Driver/Src/stm32l0xx_hal_rtc_ex.c **** /* Exported functions --------------------------------------------------------*/
 134:Drivers/STM32L0xx_HAL_Driver/Src/stm32l0xx_hal_rtc_ex.c **** 
 135:Drivers/STM32L0xx_HAL_Driver/Src/stm32l0xx_hal_rtc_ex.c **** /** @addtogroup RTCEx_Exported_Functions
 136:Drivers/STM32L0xx_HAL_Driver/Src/stm32l0xx_hal_rtc_ex.c ****   * @{
 137:Drivers/STM32L0xx_HAL_Driver/Src/stm32l0xx_hal_rtc_ex.c ****   */
 138:Drivers/STM32L0xx_HAL_Driver/Src/stm32l0xx_hal_rtc_ex.c **** 
 139:Drivers/STM32L0xx_HAL_Driver/Src/stm32l0xx_hal_rtc_ex.c **** 
 140:Drivers/STM32L0xx_HAL_Driver/Src/stm32l0xx_hal_rtc_ex.c **** /** @addtogroup RTCEx_Exported_Functions_Group1
 141:Drivers/STM32L0xx_HAL_Driver/Src/stm32l0xx_hal_rtc_ex.c ****  *  @brief   RTC TimeStamp and Tamper functions
 142:Drivers/STM32L0xx_HAL_Driver/Src/stm32l0xx_hal_rtc_ex.c ****   *
 143:Drivers/STM32L0xx_HAL_Driver/Src/stm32l0xx_hal_rtc_ex.c **** @verbatim
 144:Drivers/STM32L0xx_HAL_Driver/Src/stm32l0xx_hal_rtc_ex.c ****  ===============================================================================
 145:Drivers/STM32L0xx_HAL_Driver/Src/stm32l0xx_hal_rtc_ex.c ****                  ##### RTC TimeStamp and Tamper functions #####
 146:Drivers/STM32L0xx_HAL_Driver/Src/stm32l0xx_hal_rtc_ex.c ****  ===============================================================================
 147:Drivers/STM32L0xx_HAL_Driver/Src/stm32l0xx_hal_rtc_ex.c ****  
ARM GAS  /var/folders/2m/zqg86yyd4hbf56w83tkxjpvr0000gn/T//ccxnAkOG.s 			page 4


 148:Drivers/STM32L0xx_HAL_Driver/Src/stm32l0xx_hal_rtc_ex.c ****  [..] This section provides functions allowing to configure TimeStamp feature
 149:Drivers/STM32L0xx_HAL_Driver/Src/stm32l0xx_hal_rtc_ex.c **** 
 150:Drivers/STM32L0xx_HAL_Driver/Src/stm32l0xx_hal_rtc_ex.c **** @endverbatim
 151:Drivers/STM32L0xx_HAL_Driver/Src/stm32l0xx_hal_rtc_ex.c ****   * @{
 152:Drivers/STM32L0xx_HAL_Driver/Src/stm32l0xx_hal_rtc_ex.c ****   */
 153:Drivers/STM32L0xx_HAL_Driver/Src/stm32l0xx_hal_rtc_ex.c **** 
 154:Drivers/STM32L0xx_HAL_Driver/Src/stm32l0xx_hal_rtc_ex.c **** /**
 155:Drivers/STM32L0xx_HAL_Driver/Src/stm32l0xx_hal_rtc_ex.c ****   * @brief  Set TimeStamp.
 156:Drivers/STM32L0xx_HAL_Driver/Src/stm32l0xx_hal_rtc_ex.c ****   * @note   This API must be called before enabling the TimeStamp feature.
 157:Drivers/STM32L0xx_HAL_Driver/Src/stm32l0xx_hal_rtc_ex.c ****   * @param  hrtc: RTC handle
 158:Drivers/STM32L0xx_HAL_Driver/Src/stm32l0xx_hal_rtc_ex.c ****   * @param  TimeStampEdge: Specifies the pin edge on which the TimeStamp is
 159:Drivers/STM32L0xx_HAL_Driver/Src/stm32l0xx_hal_rtc_ex.c ****   *         activated.
 160:Drivers/STM32L0xx_HAL_Driver/Src/stm32l0xx_hal_rtc_ex.c ****   *          This parameter can be one of the following values:
 161:Drivers/STM32L0xx_HAL_Driver/Src/stm32l0xx_hal_rtc_ex.c ****   *             @arg RTC_TIMESTAMPEDGE_RISING: the Time stamp event occurs on the  
 162:Drivers/STM32L0xx_HAL_Driver/Src/stm32l0xx_hal_rtc_ex.c ****   *                                        rising edge of the related pin.
 163:Drivers/STM32L0xx_HAL_Driver/Src/stm32l0xx_hal_rtc_ex.c ****   *             @arg RTC_TIMESTAMPEDGE_FALLING: the Time stamp event occurs on the 
 164:Drivers/STM32L0xx_HAL_Driver/Src/stm32l0xx_hal_rtc_ex.c ****   *                                         falling edge of the related pin.
 165:Drivers/STM32L0xx_HAL_Driver/Src/stm32l0xx_hal_rtc_ex.c ****   * @param  RTC_TimeStampPin: specifies the RTC TimeStamp Pin.
 166:Drivers/STM32L0xx_HAL_Driver/Src/stm32l0xx_hal_rtc_ex.c ****   *          This parameter can be one of the following values:
 167:Drivers/STM32L0xx_HAL_Driver/Src/stm32l0xx_hal_rtc_ex.c ****   *             @arg RTC_TIMESTAMPPIN_DEFAULT: PC13 is selected as RTC TimeStamp Pin on STM32L05x/6
 168:Drivers/STM32L0xx_HAL_Driver/Src/stm32l0xx_hal_rtc_ex.c ****   *                                            and PA2 on STM32L03x/4x/2x/1x.
 169:Drivers/STM32L0xx_HAL_Driver/Src/stm32l0xx_hal_rtc_ex.c ****   * @retval HAL status
 170:Drivers/STM32L0xx_HAL_Driver/Src/stm32l0xx_hal_rtc_ex.c ****   */
 171:Drivers/STM32L0xx_HAL_Driver/Src/stm32l0xx_hal_rtc_ex.c **** HAL_StatusTypeDef HAL_RTCEx_SetTimeStamp(RTC_HandleTypeDef *hrtc, uint32_t TimeStampEdge, uint32_t 
 172:Drivers/STM32L0xx_HAL_Driver/Src/stm32l0xx_hal_rtc_ex.c **** {
  26              		.loc 1 172 0
  27              		.cfi_startproc
  28              		@ args = 0, pretend = 0, frame = 0
  29              		@ frame_needed = 0, uses_anonymous_args = 0
  30              	.LVL0:
  31 0000 F0B5     		push	{r4, r5, r6, r7, lr}
  32              	.LCFI0:
  33              		.cfi_def_cfa_offset 20
  34              		.cfi_offset 4, -20
  35              		.cfi_offset 5, -16
  36              		.cfi_offset 6, -12
  37              		.cfi_offset 7, -8
  38              		.cfi_offset 14, -4
  39              	.LVL1:
 173:Drivers/STM32L0xx_HAL_Driver/Src/stm32l0xx_hal_rtc_ex.c ****   uint32_t tmpreg = 0U;
 174:Drivers/STM32L0xx_HAL_Driver/Src/stm32l0xx_hal_rtc_ex.c **** 
 175:Drivers/STM32L0xx_HAL_Driver/Src/stm32l0xx_hal_rtc_ex.c ****   /* Check the parameters */
 176:Drivers/STM32L0xx_HAL_Driver/Src/stm32l0xx_hal_rtc_ex.c ****   assert_param(IS_TIMESTAMP_EDGE(TimeStampEdge));
 177:Drivers/STM32L0xx_HAL_Driver/Src/stm32l0xx_hal_rtc_ex.c ****   assert_param(IS_RTC_TIMESTAMP_PIN(RTC_TimeStampPin));
 178:Drivers/STM32L0xx_HAL_Driver/Src/stm32l0xx_hal_rtc_ex.c **** 
 179:Drivers/STM32L0xx_HAL_Driver/Src/stm32l0xx_hal_rtc_ex.c ****   /* Process Locked */
 180:Drivers/STM32L0xx_HAL_Driver/Src/stm32l0xx_hal_rtc_ex.c ****   __HAL_LOCK(hrtc);
  40              		.loc 1 180 0
  41 0002 2023     		movs	r3, #32
  42 0004 C35C     		ldrb	r3, [r0, r3]
  43 0006 012B     		cmp	r3, #1
  44 0008 1FD0     		beq	.L3
  45              		.loc 1 180 0 is_stmt 0 discriminator 2
  46 000a 2022     		movs	r2, #32
  47              	.LVL2:
  48 000c 0125     		movs	r5, #1
  49 000e 8554     		strb	r5, [r0, r2]
ARM GAS  /var/folders/2m/zqg86yyd4hbf56w83tkxjpvr0000gn/T//ccxnAkOG.s 			page 5


 181:Drivers/STM32L0xx_HAL_Driver/Src/stm32l0xx_hal_rtc_ex.c **** 
 182:Drivers/STM32L0xx_HAL_Driver/Src/stm32l0xx_hal_rtc_ex.c ****   hrtc->State = HAL_RTC_STATE_BUSY;
  50              		.loc 1 182 0 is_stmt 1 discriminator 2
  51 0010 2124     		movs	r4, #33
  52 0012 0223     		movs	r3, #2
  53 0014 0355     		strb	r3, [r0, r4]
 183:Drivers/STM32L0xx_HAL_Driver/Src/stm32l0xx_hal_rtc_ex.c **** 
 184:Drivers/STM32L0xx_HAL_Driver/Src/stm32l0xx_hal_rtc_ex.c ****   /* Get the RTC_CR register and clear the bits to be configured */
 185:Drivers/STM32L0xx_HAL_Driver/Src/stm32l0xx_hal_rtc_ex.c ****   tmpreg = (uint32_t)(hrtc->Instance->CR & (uint32_t)~(RTC_CR_TSEDGE | RTC_CR_TSE));
  54              		.loc 1 185 0 discriminator 2
  55 0016 0668     		ldr	r6, [r0]
  56 0018 B368     		ldr	r3, [r6, #8]
  57 001a 0D4F     		ldr	r7, .L4
  58 001c 3B40     		ands	r3, r7
  59              	.LVL3:
 186:Drivers/STM32L0xx_HAL_Driver/Src/stm32l0xx_hal_rtc_ex.c **** 
 187:Drivers/STM32L0xx_HAL_Driver/Src/stm32l0xx_hal_rtc_ex.c ****   tmpreg|= TimeStampEdge;
  60              		.loc 1 187 0 discriminator 2
  61 001e 1943     		orrs	r1, r3
  62              	.LVL4:
 188:Drivers/STM32L0xx_HAL_Driver/Src/stm32l0xx_hal_rtc_ex.c **** 
 189:Drivers/STM32L0xx_HAL_Driver/Src/stm32l0xx_hal_rtc_ex.c ****   /* Disable the write protection for RTC registers */
 190:Drivers/STM32L0xx_HAL_Driver/Src/stm32l0xx_hal_rtc_ex.c ****   __HAL_RTC_WRITEPROTECTION_DISABLE(hrtc);
  63              		.loc 1 190 0 discriminator 2
  64 0020 CA23     		movs	r3, #202
  65 0022 7362     		str	r3, [r6, #36]
  66 0024 0368     		ldr	r3, [r0]
  67 0026 5326     		movs	r6, #83
  68 0028 5E62     		str	r6, [r3, #36]
 191:Drivers/STM32L0xx_HAL_Driver/Src/stm32l0xx_hal_rtc_ex.c **** 
 192:Drivers/STM32L0xx_HAL_Driver/Src/stm32l0xx_hal_rtc_ex.c ****   /* Configure the Time Stamp TSEDGE and Enable bits */
 193:Drivers/STM32L0xx_HAL_Driver/Src/stm32l0xx_hal_rtc_ex.c ****   hrtc->Instance->CR = (uint32_t)tmpreg;
  69              		.loc 1 193 0 discriminator 2
  70 002a 0368     		ldr	r3, [r0]
  71 002c 9960     		str	r1, [r3, #8]
 194:Drivers/STM32L0xx_HAL_Driver/Src/stm32l0xx_hal_rtc_ex.c **** 
 195:Drivers/STM32L0xx_HAL_Driver/Src/stm32l0xx_hal_rtc_ex.c ****   __HAL_RTC_TIMESTAMP_ENABLE(hrtc);
  72              		.loc 1 195 0 discriminator 2
  73 002e 0168     		ldr	r1, [r0]
  74              	.LVL5:
  75 0030 8E68     		ldr	r6, [r1, #8]
  76 0032 8023     		movs	r3, #128
  77              	.LVL6:
  78 0034 1B01     		lsls	r3, r3, #4
  79 0036 3343     		orrs	r3, r6
  80 0038 8B60     		str	r3, [r1, #8]
 196:Drivers/STM32L0xx_HAL_Driver/Src/stm32l0xx_hal_rtc_ex.c **** 
 197:Drivers/STM32L0xx_HAL_Driver/Src/stm32l0xx_hal_rtc_ex.c ****   /* Enable the write protection for RTC registers */
 198:Drivers/STM32L0xx_HAL_Driver/Src/stm32l0xx_hal_rtc_ex.c ****   __HAL_RTC_WRITEPROTECTION_ENABLE(hrtc);
  81              		.loc 1 198 0 discriminator 2
  82 003a 0368     		ldr	r3, [r0]
  83 003c FF21     		movs	r1, #255
  84 003e 5962     		str	r1, [r3, #36]
 199:Drivers/STM32L0xx_HAL_Driver/Src/stm32l0xx_hal_rtc_ex.c **** 
 200:Drivers/STM32L0xx_HAL_Driver/Src/stm32l0xx_hal_rtc_ex.c ****   /* Change RTC state */
 201:Drivers/STM32L0xx_HAL_Driver/Src/stm32l0xx_hal_rtc_ex.c ****   hrtc->State = HAL_RTC_STATE_READY; 
  85              		.loc 1 201 0 discriminator 2
ARM GAS  /var/folders/2m/zqg86yyd4hbf56w83tkxjpvr0000gn/T//ccxnAkOG.s 			page 6


  86 0040 0555     		strb	r5, [r0, r4]
 202:Drivers/STM32L0xx_HAL_Driver/Src/stm32l0xx_hal_rtc_ex.c **** 
 203:Drivers/STM32L0xx_HAL_Driver/Src/stm32l0xx_hal_rtc_ex.c ****   /* Process Unlocked */ 
 204:Drivers/STM32L0xx_HAL_Driver/Src/stm32l0xx_hal_rtc_ex.c ****   __HAL_UNLOCK(hrtc);
  87              		.loc 1 204 0 discriminator 2
  88 0042 0023     		movs	r3, #0
  89 0044 8354     		strb	r3, [r0, r2]
 205:Drivers/STM32L0xx_HAL_Driver/Src/stm32l0xx_hal_rtc_ex.c **** 
 206:Drivers/STM32L0xx_HAL_Driver/Src/stm32l0xx_hal_rtc_ex.c ****   return HAL_OK;
  90              		.loc 1 206 0 discriminator 2
  91 0046 0020     		movs	r0, #0
  92              	.LVL7:
  93              	.L2:
 207:Drivers/STM32L0xx_HAL_Driver/Src/stm32l0xx_hal_rtc_ex.c **** }
  94              		.loc 1 207 0
  95              		@ sp needed
  96 0048 F0BD     		pop	{r4, r5, r6, r7, pc}
  97              	.LVL8:
  98              	.L3:
 180:Drivers/STM32L0xx_HAL_Driver/Src/stm32l0xx_hal_rtc_ex.c **** 
  99              		.loc 1 180 0
 100 004a 0220     		movs	r0, #2
 101              	.LVL9:
 102 004c FCE7     		b	.L2
 103              	.L5:
 104 004e C046     		.align	2
 105              	.L4:
 106 0050 F7F7FFFF 		.word	-2057
 107              		.cfi_endproc
 108              	.LFE39:
 110              		.section	.text.HAL_RTCEx_SetTimeStamp_IT,"ax",%progbits
 111              		.align	1
 112              		.global	HAL_RTCEx_SetTimeStamp_IT
 113              		.syntax unified
 114              		.code	16
 115              		.thumb_func
 116              		.fpu softvfp
 118              	HAL_RTCEx_SetTimeStamp_IT:
 119              	.LFB40:
 208:Drivers/STM32L0xx_HAL_Driver/Src/stm32l0xx_hal_rtc_ex.c **** 
 209:Drivers/STM32L0xx_HAL_Driver/Src/stm32l0xx_hal_rtc_ex.c **** /**
 210:Drivers/STM32L0xx_HAL_Driver/Src/stm32l0xx_hal_rtc_ex.c ****   * @brief  Set TimeStamp with Interrupt.
 211:Drivers/STM32L0xx_HAL_Driver/Src/stm32l0xx_hal_rtc_ex.c ****   * @param  hrtc: RTC handle
 212:Drivers/STM32L0xx_HAL_Driver/Src/stm32l0xx_hal_rtc_ex.c ****   * @note   This API must be called before enabling the TimeStamp feature.
 213:Drivers/STM32L0xx_HAL_Driver/Src/stm32l0xx_hal_rtc_ex.c ****   * @param  TimeStampEdge: Specifies the pin edge on which the TimeStamp is
 214:Drivers/STM32L0xx_HAL_Driver/Src/stm32l0xx_hal_rtc_ex.c ****   *         activated.
 215:Drivers/STM32L0xx_HAL_Driver/Src/stm32l0xx_hal_rtc_ex.c ****   *          This parameter can be one of the following values:
 216:Drivers/STM32L0xx_HAL_Driver/Src/stm32l0xx_hal_rtc_ex.c ****   *             @arg RTC_TIMESTAMPEDGE_RISING: the Time stamp event occurs on the  
 217:Drivers/STM32L0xx_HAL_Driver/Src/stm32l0xx_hal_rtc_ex.c ****   *                                        rising edge of the related pin.
 218:Drivers/STM32L0xx_HAL_Driver/Src/stm32l0xx_hal_rtc_ex.c ****   *             @arg RTC_TIMESTAMPEDGE_FALLING: the Time stamp event occurs on the 
 219:Drivers/STM32L0xx_HAL_Driver/Src/stm32l0xx_hal_rtc_ex.c ****   *                                         falling edge of the related pin.
 220:Drivers/STM32L0xx_HAL_Driver/Src/stm32l0xx_hal_rtc_ex.c ****   * @param  RTC_TimeStampPin: Specifies the RTC TimeStamp Pin.
 221:Drivers/STM32L0xx_HAL_Driver/Src/stm32l0xx_hal_rtc_ex.c ****   *          This parameter can be one of the following values:
 222:Drivers/STM32L0xx_HAL_Driver/Src/stm32l0xx_hal_rtc_ex.c ****   *             @arg RTC_TIMESTAMPPIN_DEFAULT: PC13 is selected as RTC TimeStamp Pin on STM32L05x/6
 223:Drivers/STM32L0xx_HAL_Driver/Src/stm32l0xx_hal_rtc_ex.c ****   *                                            and PA2 on STM32L03x/4x/2x/1x.
 224:Drivers/STM32L0xx_HAL_Driver/Src/stm32l0xx_hal_rtc_ex.c ****   * @retval HAL status
 225:Drivers/STM32L0xx_HAL_Driver/Src/stm32l0xx_hal_rtc_ex.c ****   */
ARM GAS  /var/folders/2m/zqg86yyd4hbf56w83tkxjpvr0000gn/T//ccxnAkOG.s 			page 7


 226:Drivers/STM32L0xx_HAL_Driver/Src/stm32l0xx_hal_rtc_ex.c **** HAL_StatusTypeDef HAL_RTCEx_SetTimeStamp_IT(RTC_HandleTypeDef *hrtc, uint32_t TimeStampEdge, uint32
 227:Drivers/STM32L0xx_HAL_Driver/Src/stm32l0xx_hal_rtc_ex.c **** {
 120              		.loc 1 227 0
 121              		.cfi_startproc
 122              		@ args = 0, pretend = 0, frame = 0
 123              		@ frame_needed = 0, uses_anonymous_args = 0
 124              	.LVL10:
 125 0000 F0B5     		push	{r4, r5, r6, r7, lr}
 126              	.LCFI1:
 127              		.cfi_def_cfa_offset 20
 128              		.cfi_offset 4, -20
 129              		.cfi_offset 5, -16
 130              		.cfi_offset 6, -12
 131              		.cfi_offset 7, -8
 132              		.cfi_offset 14, -4
 133              	.LVL11:
 228:Drivers/STM32L0xx_HAL_Driver/Src/stm32l0xx_hal_rtc_ex.c ****   uint32_t tmpreg = 0U;
 229:Drivers/STM32L0xx_HAL_Driver/Src/stm32l0xx_hal_rtc_ex.c **** 
 230:Drivers/STM32L0xx_HAL_Driver/Src/stm32l0xx_hal_rtc_ex.c ****   /* Check the parameters */
 231:Drivers/STM32L0xx_HAL_Driver/Src/stm32l0xx_hal_rtc_ex.c ****   assert_param(IS_TIMESTAMP_EDGE(TimeStampEdge));
 232:Drivers/STM32L0xx_HAL_Driver/Src/stm32l0xx_hal_rtc_ex.c ****   assert_param(IS_RTC_TIMESTAMP_PIN(RTC_TimeStampPin));
 233:Drivers/STM32L0xx_HAL_Driver/Src/stm32l0xx_hal_rtc_ex.c **** 
 234:Drivers/STM32L0xx_HAL_Driver/Src/stm32l0xx_hal_rtc_ex.c ****   /* Process Locked */ 
 235:Drivers/STM32L0xx_HAL_Driver/Src/stm32l0xx_hal_rtc_ex.c ****   __HAL_LOCK(hrtc);
 134              		.loc 1 235 0
 135 0002 2023     		movs	r3, #32
 136 0004 C35C     		ldrb	r3, [r0, r3]
 137 0006 012B     		cmp	r3, #1
 138 0008 2ED0     		beq	.L8
 139              		.loc 1 235 0 is_stmt 0 discriminator 2
 140 000a 2024     		movs	r4, #32
 141 000c 0126     		movs	r6, #1
 142 000e 0655     		strb	r6, [r0, r4]
 236:Drivers/STM32L0xx_HAL_Driver/Src/stm32l0xx_hal_rtc_ex.c **** 
 237:Drivers/STM32L0xx_HAL_Driver/Src/stm32l0xx_hal_rtc_ex.c ****   hrtc->State = HAL_RTC_STATE_BUSY;
 143              		.loc 1 237 0 is_stmt 1 discriminator 2
 144 0010 2125     		movs	r5, #33
 145 0012 0223     		movs	r3, #2
 146 0014 4355     		strb	r3, [r0, r5]
 238:Drivers/STM32L0xx_HAL_Driver/Src/stm32l0xx_hal_rtc_ex.c **** 
 239:Drivers/STM32L0xx_HAL_Driver/Src/stm32l0xx_hal_rtc_ex.c ****   /* Get the RTC_CR register and clear the bits to be configured */
 240:Drivers/STM32L0xx_HAL_Driver/Src/stm32l0xx_hal_rtc_ex.c ****   tmpreg = (uint32_t)(hrtc->Instance->CR & (uint32_t)~(RTC_CR_TSEDGE | RTC_CR_TSE));
 147              		.loc 1 240 0 discriminator 2
 148 0016 0268     		ldr	r2, [r0]
 149              	.LVL12:
 150 0018 9368     		ldr	r3, [r2, #8]
 151 001a 144F     		ldr	r7, .L9
 152 001c 3B40     		ands	r3, r7
 153              	.LVL13:
 241:Drivers/STM32L0xx_HAL_Driver/Src/stm32l0xx_hal_rtc_ex.c **** 
 242:Drivers/STM32L0xx_HAL_Driver/Src/stm32l0xx_hal_rtc_ex.c ****   tmpreg |= TimeStampEdge;
 154              		.loc 1 242 0 discriminator 2
 155 001e 1943     		orrs	r1, r3
 156              	.LVL14:
 243:Drivers/STM32L0xx_HAL_Driver/Src/stm32l0xx_hal_rtc_ex.c **** 
 244:Drivers/STM32L0xx_HAL_Driver/Src/stm32l0xx_hal_rtc_ex.c ****   /* Disable the write protection for RTC registers */
 245:Drivers/STM32L0xx_HAL_Driver/Src/stm32l0xx_hal_rtc_ex.c ****   __HAL_RTC_WRITEPROTECTION_DISABLE(hrtc);
ARM GAS  /var/folders/2m/zqg86yyd4hbf56w83tkxjpvr0000gn/T//ccxnAkOG.s 			page 8


 157              		.loc 1 245 0 discriminator 2
 158 0020 CA23     		movs	r3, #202
 159 0022 5362     		str	r3, [r2, #36]
 160 0024 0368     		ldr	r3, [r0]
 161 0026 5322     		movs	r2, #83
 162 0028 5A62     		str	r2, [r3, #36]
 246:Drivers/STM32L0xx_HAL_Driver/Src/stm32l0xx_hal_rtc_ex.c **** 
 247:Drivers/STM32L0xx_HAL_Driver/Src/stm32l0xx_hal_rtc_ex.c ****   /* Configure the Time Stamp TSEDGE and Enable bits */
 248:Drivers/STM32L0xx_HAL_Driver/Src/stm32l0xx_hal_rtc_ex.c ****   hrtc->Instance->CR = (uint32_t)tmpreg;
 163              		.loc 1 248 0 discriminator 2
 164 002a 0368     		ldr	r3, [r0]
 165 002c 9960     		str	r1, [r3, #8]
 249:Drivers/STM32L0xx_HAL_Driver/Src/stm32l0xx_hal_rtc_ex.c **** 
 250:Drivers/STM32L0xx_HAL_Driver/Src/stm32l0xx_hal_rtc_ex.c ****   __HAL_RTC_TIMESTAMP_ENABLE(hrtc);
 166              		.loc 1 250 0 discriminator 2
 167 002e 0268     		ldr	r2, [r0]
 168 0030 9168     		ldr	r1, [r2, #8]
 169              	.LVL15:
 170 0032 8023     		movs	r3, #128
 171              	.LVL16:
 172 0034 1B01     		lsls	r3, r3, #4
 173 0036 0B43     		orrs	r3, r1
 174 0038 9360     		str	r3, [r2, #8]
 251:Drivers/STM32L0xx_HAL_Driver/Src/stm32l0xx_hal_rtc_ex.c **** 
 252:Drivers/STM32L0xx_HAL_Driver/Src/stm32l0xx_hal_rtc_ex.c ****   /* Enable IT timestamp */
 253:Drivers/STM32L0xx_HAL_Driver/Src/stm32l0xx_hal_rtc_ex.c ****   __HAL_RTC_TIMESTAMP_ENABLE_IT(hrtc,RTC_IT_TS);
 175              		.loc 1 253 0 discriminator 2
 176 003a 0268     		ldr	r2, [r0]
 177 003c 9168     		ldr	r1, [r2, #8]
 178 003e 8023     		movs	r3, #128
 179 0040 1B02     		lsls	r3, r3, #8
 180 0042 0B43     		orrs	r3, r1
 181 0044 9360     		str	r3, [r2, #8]
 254:Drivers/STM32L0xx_HAL_Driver/Src/stm32l0xx_hal_rtc_ex.c **** 
 255:Drivers/STM32L0xx_HAL_Driver/Src/stm32l0xx_hal_rtc_ex.c ****   /* RTC timestamp Interrupt Configuration: EXTI configuration */
 256:Drivers/STM32L0xx_HAL_Driver/Src/stm32l0xx_hal_rtc_ex.c ****   __HAL_RTC_TAMPER_TIMESTAMP_EXTI_ENABLE_IT();
 182              		.loc 1 256 0 discriminator 2
 183 0046 0A4B     		ldr	r3, .L9+4
 184 0048 1968     		ldr	r1, [r3]
 185 004a 8022     		movs	r2, #128
 186 004c 1203     		lsls	r2, r2, #12
 187 004e 1143     		orrs	r1, r2
 188 0050 1960     		str	r1, [r3]
 257:Drivers/STM32L0xx_HAL_Driver/Src/stm32l0xx_hal_rtc_ex.c **** 
 258:Drivers/STM32L0xx_HAL_Driver/Src/stm32l0xx_hal_rtc_ex.c ****   __HAL_RTC_TAMPER_TIMESTAMP_EXTI_ENABLE_RISING_EDGE();
 189              		.loc 1 258 0 discriminator 2
 190 0052 9968     		ldr	r1, [r3, #8]
 191 0054 0A43     		orrs	r2, r1
 192 0056 9A60     		str	r2, [r3, #8]
 259:Drivers/STM32L0xx_HAL_Driver/Src/stm32l0xx_hal_rtc_ex.c **** 
 260:Drivers/STM32L0xx_HAL_Driver/Src/stm32l0xx_hal_rtc_ex.c ****   /* Enable the write protection for RTC registers */
 261:Drivers/STM32L0xx_HAL_Driver/Src/stm32l0xx_hal_rtc_ex.c ****   __HAL_RTC_WRITEPROTECTION_ENABLE(hrtc);
 193              		.loc 1 261 0 discriminator 2
 194 0058 0368     		ldr	r3, [r0]
 195 005a FF22     		movs	r2, #255
 196 005c 5A62     		str	r2, [r3, #36]
 262:Drivers/STM32L0xx_HAL_Driver/Src/stm32l0xx_hal_rtc_ex.c **** 
ARM GAS  /var/folders/2m/zqg86yyd4hbf56w83tkxjpvr0000gn/T//ccxnAkOG.s 			page 9


 263:Drivers/STM32L0xx_HAL_Driver/Src/stm32l0xx_hal_rtc_ex.c ****   hrtc->State = HAL_RTC_STATE_READY;
 197              		.loc 1 263 0 discriminator 2
 198 005e 4655     		strb	r6, [r0, r5]
 264:Drivers/STM32L0xx_HAL_Driver/Src/stm32l0xx_hal_rtc_ex.c **** 
 265:Drivers/STM32L0xx_HAL_Driver/Src/stm32l0xx_hal_rtc_ex.c ****   /* Process Unlocked */
 266:Drivers/STM32L0xx_HAL_Driver/Src/stm32l0xx_hal_rtc_ex.c ****   __HAL_UNLOCK(hrtc);
 199              		.loc 1 266 0 discriminator 2
 200 0060 0023     		movs	r3, #0
 201 0062 0355     		strb	r3, [r0, r4]
 267:Drivers/STM32L0xx_HAL_Driver/Src/stm32l0xx_hal_rtc_ex.c **** 
 268:Drivers/STM32L0xx_HAL_Driver/Src/stm32l0xx_hal_rtc_ex.c ****   return HAL_OK;
 202              		.loc 1 268 0 discriminator 2
 203 0064 0020     		movs	r0, #0
 204              	.LVL17:
 205              	.L7:
 269:Drivers/STM32L0xx_HAL_Driver/Src/stm32l0xx_hal_rtc_ex.c **** }
 206              		.loc 1 269 0
 207              		@ sp needed
 208 0066 F0BD     		pop	{r4, r5, r6, r7, pc}
 209              	.LVL18:
 210              	.L8:
 235:Drivers/STM32L0xx_HAL_Driver/Src/stm32l0xx_hal_rtc_ex.c **** 
 211              		.loc 1 235 0
 212 0068 0220     		movs	r0, #2
 213              	.LVL19:
 214 006a FCE7     		b	.L7
 215              	.L10:
 216              		.align	2
 217              	.L9:
 218 006c F7F7FFFF 		.word	-2057
 219 0070 00040140 		.word	1073808384
 220              		.cfi_endproc
 221              	.LFE40:
 223              		.section	.text.HAL_RTCEx_DeactivateTimeStamp,"ax",%progbits
 224              		.align	1
 225              		.global	HAL_RTCEx_DeactivateTimeStamp
 226              		.syntax unified
 227              		.code	16
 228              		.thumb_func
 229              		.fpu softvfp
 231              	HAL_RTCEx_DeactivateTimeStamp:
 232              	.LFB41:
 270:Drivers/STM32L0xx_HAL_Driver/Src/stm32l0xx_hal_rtc_ex.c **** 
 271:Drivers/STM32L0xx_HAL_Driver/Src/stm32l0xx_hal_rtc_ex.c **** /**
 272:Drivers/STM32L0xx_HAL_Driver/Src/stm32l0xx_hal_rtc_ex.c ****   * @brief  Deactivate TimeStamp.
 273:Drivers/STM32L0xx_HAL_Driver/Src/stm32l0xx_hal_rtc_ex.c ****   * @param  hrtc: RTC handle
 274:Drivers/STM32L0xx_HAL_Driver/Src/stm32l0xx_hal_rtc_ex.c ****   * @retval HAL status
 275:Drivers/STM32L0xx_HAL_Driver/Src/stm32l0xx_hal_rtc_ex.c ****   */
 276:Drivers/STM32L0xx_HAL_Driver/Src/stm32l0xx_hal_rtc_ex.c **** HAL_StatusTypeDef HAL_RTCEx_DeactivateTimeStamp(RTC_HandleTypeDef *hrtc)
 277:Drivers/STM32L0xx_HAL_Driver/Src/stm32l0xx_hal_rtc_ex.c **** {
 233              		.loc 1 277 0
 234              		.cfi_startproc
 235              		@ args = 0, pretend = 0, frame = 0
 236              		@ frame_needed = 0, uses_anonymous_args = 0
 237              	.LVL20:
 238 0000 70B5     		push	{r4, r5, r6, lr}
 239              	.LCFI2:
ARM GAS  /var/folders/2m/zqg86yyd4hbf56w83tkxjpvr0000gn/T//ccxnAkOG.s 			page 10


 240              		.cfi_def_cfa_offset 16
 241              		.cfi_offset 4, -16
 242              		.cfi_offset 5, -12
 243              		.cfi_offset 6, -8
 244              		.cfi_offset 14, -4
 245              	.LVL21:
 278:Drivers/STM32L0xx_HAL_Driver/Src/stm32l0xx_hal_rtc_ex.c ****   uint32_t tmpreg = 0U;
 279:Drivers/STM32L0xx_HAL_Driver/Src/stm32l0xx_hal_rtc_ex.c **** 
 280:Drivers/STM32L0xx_HAL_Driver/Src/stm32l0xx_hal_rtc_ex.c ****   /* Process Locked */
 281:Drivers/STM32L0xx_HAL_Driver/Src/stm32l0xx_hal_rtc_ex.c ****   __HAL_LOCK(hrtc);
 246              		.loc 1 281 0
 247 0002 2023     		movs	r3, #32
 248 0004 C35C     		ldrb	r3, [r0, r3]
 249 0006 012B     		cmp	r3, #1
 250 0008 1DD0     		beq	.L13
 251              		.loc 1 281 0 is_stmt 0 discriminator 2
 252 000a 2022     		movs	r2, #32
 253 000c 0124     		movs	r4, #1
 254 000e 8454     		strb	r4, [r0, r2]
 282:Drivers/STM32L0xx_HAL_Driver/Src/stm32l0xx_hal_rtc_ex.c **** 
 283:Drivers/STM32L0xx_HAL_Driver/Src/stm32l0xx_hal_rtc_ex.c ****   hrtc->State = HAL_RTC_STATE_BUSY;
 255              		.loc 1 283 0 is_stmt 1 discriminator 2
 256 0010 2121     		movs	r1, #33
 257 0012 0223     		movs	r3, #2
 258 0014 4354     		strb	r3, [r0, r1]
 284:Drivers/STM32L0xx_HAL_Driver/Src/stm32l0xx_hal_rtc_ex.c **** 
 285:Drivers/STM32L0xx_HAL_Driver/Src/stm32l0xx_hal_rtc_ex.c ****   /* Disable the write protection for RTC registers */
 286:Drivers/STM32L0xx_HAL_Driver/Src/stm32l0xx_hal_rtc_ex.c ****   __HAL_RTC_WRITEPROTECTION_DISABLE(hrtc);
 259              		.loc 1 286 0 discriminator 2
 260 0016 0368     		ldr	r3, [r0]
 261 0018 CA25     		movs	r5, #202
 262 001a 5D62     		str	r5, [r3, #36]
 263 001c 0368     		ldr	r3, [r0]
 264 001e 773D     		subs	r5, r5, #119
 265 0020 5D62     		str	r5, [r3, #36]
 287:Drivers/STM32L0xx_HAL_Driver/Src/stm32l0xx_hal_rtc_ex.c **** 
 288:Drivers/STM32L0xx_HAL_Driver/Src/stm32l0xx_hal_rtc_ex.c ****   /* In case of interrupt mode is used, the interrupt source must disabled */
 289:Drivers/STM32L0xx_HAL_Driver/Src/stm32l0xx_hal_rtc_ex.c ****   __HAL_RTC_TIMESTAMP_DISABLE_IT(hrtc, RTC_IT_TS);
 266              		.loc 1 289 0 discriminator 2
 267 0022 0568     		ldr	r5, [r0]
 268 0024 AB68     		ldr	r3, [r5, #8]
 269 0026 094E     		ldr	r6, .L14
 270 0028 3340     		ands	r3, r6
 271 002a AB60     		str	r3, [r5, #8]
 290:Drivers/STM32L0xx_HAL_Driver/Src/stm32l0xx_hal_rtc_ex.c **** 
 291:Drivers/STM32L0xx_HAL_Driver/Src/stm32l0xx_hal_rtc_ex.c ****   /* Get the RTC_CR register and clear the bits to be configured */
 292:Drivers/STM32L0xx_HAL_Driver/Src/stm32l0xx_hal_rtc_ex.c ****   tmpreg = (uint32_t)(hrtc->Instance->CR & (uint32_t)~(RTC_CR_TSEDGE | RTC_CR_TSE));
 272              		.loc 1 292 0 discriminator 2
 273 002c 0568     		ldr	r5, [r0]
 274 002e AB68     		ldr	r3, [r5, #8]
 275 0030 074E     		ldr	r6, .L14+4
 276 0032 3340     		ands	r3, r6
 277              	.LVL22:
 293:Drivers/STM32L0xx_HAL_Driver/Src/stm32l0xx_hal_rtc_ex.c **** 
 294:Drivers/STM32L0xx_HAL_Driver/Src/stm32l0xx_hal_rtc_ex.c ****   /* Configure the Time Stamp TSEDGE and Enable bits */
 295:Drivers/STM32L0xx_HAL_Driver/Src/stm32l0xx_hal_rtc_ex.c ****   hrtc->Instance->CR = (uint32_t)tmpreg;
 278              		.loc 1 295 0 discriminator 2
ARM GAS  /var/folders/2m/zqg86yyd4hbf56w83tkxjpvr0000gn/T//ccxnAkOG.s 			page 11


 279 0034 AB60     		str	r3, [r5, #8]
 296:Drivers/STM32L0xx_HAL_Driver/Src/stm32l0xx_hal_rtc_ex.c **** 
 297:Drivers/STM32L0xx_HAL_Driver/Src/stm32l0xx_hal_rtc_ex.c ****   /* Enable the write protection for RTC registers */
 298:Drivers/STM32L0xx_HAL_Driver/Src/stm32l0xx_hal_rtc_ex.c ****   __HAL_RTC_WRITEPROTECTION_ENABLE(hrtc);
 280              		.loc 1 298 0 discriminator 2
 281 0036 0368     		ldr	r3, [r0]
 282              	.LVL23:
 283 0038 FF25     		movs	r5, #255
 284              	.LVL24:
 285 003a 5D62     		str	r5, [r3, #36]
 299:Drivers/STM32L0xx_HAL_Driver/Src/stm32l0xx_hal_rtc_ex.c **** 
 300:Drivers/STM32L0xx_HAL_Driver/Src/stm32l0xx_hal_rtc_ex.c ****   hrtc->State = HAL_RTC_STATE_READY;
 286              		.loc 1 300 0 discriminator 2
 287 003c 4454     		strb	r4, [r0, r1]
 301:Drivers/STM32L0xx_HAL_Driver/Src/stm32l0xx_hal_rtc_ex.c **** 
 302:Drivers/STM32L0xx_HAL_Driver/Src/stm32l0xx_hal_rtc_ex.c ****   /* Process Unlocked */
 303:Drivers/STM32L0xx_HAL_Driver/Src/stm32l0xx_hal_rtc_ex.c ****   __HAL_UNLOCK(hrtc);
 288              		.loc 1 303 0 discriminator 2
 289 003e 0023     		movs	r3, #0
 290 0040 8354     		strb	r3, [r0, r2]
 304:Drivers/STM32L0xx_HAL_Driver/Src/stm32l0xx_hal_rtc_ex.c **** 
 305:Drivers/STM32L0xx_HAL_Driver/Src/stm32l0xx_hal_rtc_ex.c ****   return HAL_OK;
 291              		.loc 1 305 0 discriminator 2
 292 0042 0020     		movs	r0, #0
 293              	.LVL25:
 294              	.L12:
 306:Drivers/STM32L0xx_HAL_Driver/Src/stm32l0xx_hal_rtc_ex.c **** }
 295              		.loc 1 306 0
 296              		@ sp needed
 297 0044 70BD     		pop	{r4, r5, r6, pc}
 298              	.LVL26:
 299              	.L13:
 281:Drivers/STM32L0xx_HAL_Driver/Src/stm32l0xx_hal_rtc_ex.c **** 
 300              		.loc 1 281 0
 301 0046 0220     		movs	r0, #2
 302              	.LVL27:
 303 0048 FCE7     		b	.L12
 304              	.L15:
 305 004a C046     		.align	2
 306              	.L14:
 307 004c FF7FFFFF 		.word	-32769
 308 0050 F7F7FFFF 		.word	-2057
 309              		.cfi_endproc
 310              	.LFE41:
 312              		.section	.text.HAL_RTCEx_GetTimeStamp,"ax",%progbits
 313              		.align	1
 314              		.global	HAL_RTCEx_GetTimeStamp
 315              		.syntax unified
 316              		.code	16
 317              		.thumb_func
 318              		.fpu softvfp
 320              	HAL_RTCEx_GetTimeStamp:
 321              	.LFB42:
 307:Drivers/STM32L0xx_HAL_Driver/Src/stm32l0xx_hal_rtc_ex.c **** 
 308:Drivers/STM32L0xx_HAL_Driver/Src/stm32l0xx_hal_rtc_ex.c **** /**
 309:Drivers/STM32L0xx_HAL_Driver/Src/stm32l0xx_hal_rtc_ex.c ****   * @brief  Get the RTC TimeStamp value.
 310:Drivers/STM32L0xx_HAL_Driver/Src/stm32l0xx_hal_rtc_ex.c ****   * @param  hrtc: RTC handle
ARM GAS  /var/folders/2m/zqg86yyd4hbf56w83tkxjpvr0000gn/T//ccxnAkOG.s 			page 12


 311:Drivers/STM32L0xx_HAL_Driver/Src/stm32l0xx_hal_rtc_ex.c **** 
 312:Drivers/STM32L0xx_HAL_Driver/Src/stm32l0xx_hal_rtc_ex.c ****   * @param  sTimeStamp: Pointer to Time structure
 313:Drivers/STM32L0xx_HAL_Driver/Src/stm32l0xx_hal_rtc_ex.c ****   * @param  sTimeStampDate: Pointer to Date structure  
 314:Drivers/STM32L0xx_HAL_Driver/Src/stm32l0xx_hal_rtc_ex.c ****   * @param  Format: specifies the format of the entered parameters.
 315:Drivers/STM32L0xx_HAL_Driver/Src/stm32l0xx_hal_rtc_ex.c ****   *          This parameter can be one of the following values:
 316:Drivers/STM32L0xx_HAL_Driver/Src/stm32l0xx_hal_rtc_ex.c ****   *             @arg RTC_FORMAT_BIN: Binary data format 
 317:Drivers/STM32L0xx_HAL_Driver/Src/stm32l0xx_hal_rtc_ex.c ****   *             @arg RTC_FORMAT_BCD: BCD data format
 318:Drivers/STM32L0xx_HAL_Driver/Src/stm32l0xx_hal_rtc_ex.c ****   * @retval HAL status
 319:Drivers/STM32L0xx_HAL_Driver/Src/stm32l0xx_hal_rtc_ex.c ****   */
 320:Drivers/STM32L0xx_HAL_Driver/Src/stm32l0xx_hal_rtc_ex.c **** HAL_StatusTypeDef HAL_RTCEx_GetTimeStamp(RTC_HandleTypeDef *hrtc, RTC_TimeTypeDef* sTimeStamp, RTC_
 321:Drivers/STM32L0xx_HAL_Driver/Src/stm32l0xx_hal_rtc_ex.c **** {
 322              		.loc 1 321 0
 323              		.cfi_startproc
 324              		@ args = 0, pretend = 0, frame = 0
 325              		@ frame_needed = 0, uses_anonymous_args = 0
 326              	.LVL28:
 327 0000 F8B5     		push	{r3, r4, r5, r6, r7, lr}
 328              	.LCFI3:
 329              		.cfi_def_cfa_offset 24
 330              		.cfi_offset 3, -24
 331              		.cfi_offset 4, -20
 332              		.cfi_offset 5, -16
 333              		.cfi_offset 6, -12
 334              		.cfi_offset 7, -8
 335              		.cfi_offset 14, -4
 336 0002 CE46     		mov	lr, r9
 337 0004 4746     		mov	r7, r8
 338 0006 80B5     		push	{r7, lr}
 339              	.LCFI4:
 340              		.cfi_def_cfa_offset 32
 341              		.cfi_offset 8, -32
 342              		.cfi_offset 9, -28
 343 0008 0600     		movs	r6, r0
 344 000a 0C00     		movs	r4, r1
 345 000c 1500     		movs	r5, r2
 346 000e 9946     		mov	r9, r3
 347              	.LVL29:
 322:Drivers/STM32L0xx_HAL_Driver/Src/stm32l0xx_hal_rtc_ex.c ****   uint32_t tmptime = 0U, tmpdate = 0U;
 323:Drivers/STM32L0xx_HAL_Driver/Src/stm32l0xx_hal_rtc_ex.c **** 
 324:Drivers/STM32L0xx_HAL_Driver/Src/stm32l0xx_hal_rtc_ex.c ****   /* Check the parameters */
 325:Drivers/STM32L0xx_HAL_Driver/Src/stm32l0xx_hal_rtc_ex.c ****   assert_param(IS_RTC_FORMAT(Format));
 326:Drivers/STM32L0xx_HAL_Driver/Src/stm32l0xx_hal_rtc_ex.c **** 
 327:Drivers/STM32L0xx_HAL_Driver/Src/stm32l0xx_hal_rtc_ex.c ****   /* Get the TimeStamp time and date registers values */
 328:Drivers/STM32L0xx_HAL_Driver/Src/stm32l0xx_hal_rtc_ex.c ****   tmptime = (uint32_t)(hrtc->Instance->TSTR & RTC_TR_RESERVED_MASK);
 348              		.loc 1 328 0
 349 0010 0268     		ldr	r2, [r0]
 350              	.LVL30:
 351 0012 106B     		ldr	r0, [r2, #48]
 352              	.LVL31:
 353 0014 2549     		ldr	r1, .L19
 354              	.LVL32:
 355 0016 0140     		ands	r1, r0
 356              	.LVL33:
 329:Drivers/STM32L0xx_HAL_Driver/Src/stm32l0xx_hal_rtc_ex.c ****   tmpdate = (uint32_t)(hrtc->Instance->TSDR & RTC_DR_RESERVED_MASK);
 357              		.loc 1 329 0
 358 0018 506B     		ldr	r0, [r2, #52]
 359 001a 254A     		ldr	r2, .L19+4
ARM GAS  /var/folders/2m/zqg86yyd4hbf56w83tkxjpvr0000gn/T//ccxnAkOG.s 			page 13


 360 001c 0240     		ands	r2, r0
 361              	.LVL34:
 330:Drivers/STM32L0xx_HAL_Driver/Src/stm32l0xx_hal_rtc_ex.c **** 
 331:Drivers/STM32L0xx_HAL_Driver/Src/stm32l0xx_hal_rtc_ex.c ****   /* Fill the Time structure fields with the read parameters */
 332:Drivers/STM32L0xx_HAL_Driver/Src/stm32l0xx_hal_rtc_ex.c ****   sTimeStamp->Hours = (uint8_t)((tmptime & (RTC_TR_HT | RTC_TR_HU)) >> 16U);
 362              		.loc 1 332 0
 363 001e 0B0C     		lsrs	r3, r1, #16
 364              	.LVL35:
 365 0020 9846     		mov	r8, r3
 366 0022 3F20     		movs	r0, #63
 367 0024 1F00     		movs	r7, r3
 368 0026 0740     		ands	r7, r0
 369 0028 2770     		strb	r7, [r4]
 333:Drivers/STM32L0xx_HAL_Driver/Src/stm32l0xx_hal_rtc_ex.c ****   sTimeStamp->Minutes = (uint8_t)((tmptime & (RTC_TR_MNT | RTC_TR_MNU)) >> 8U);
 370              		.loc 1 333 0
 371 002a 0B0A     		lsrs	r3, r1, #8
 372 002c 7F27     		movs	r7, #127
 373 002e 3B40     		ands	r3, r7
 374 0030 6370     		strb	r3, [r4, #1]
 334:Drivers/STM32L0xx_HAL_Driver/Src/stm32l0xx_hal_rtc_ex.c ****   sTimeStamp->Seconds = (uint8_t)(tmptime & (RTC_TR_ST | RTC_TR_SU));
 375              		.loc 1 334 0
 376 0032 3940     		ands	r1, r7
 377              	.LVL36:
 378 0034 A170     		strb	r1, [r4, #2]
 335:Drivers/STM32L0xx_HAL_Driver/Src/stm32l0xx_hal_rtc_ex.c ****   sTimeStamp->TimeFormat = (uint8_t)((tmptime & (RTC_TR_PM)) >> 16U);
 379              		.loc 1 335 0
 380 0036 4021     		movs	r1, #64
 381 0038 4346     		mov	r3, r8
 382 003a 1940     		ands	r1, r3
 383 003c E170     		strb	r1, [r4, #3]
 336:Drivers/STM32L0xx_HAL_Driver/Src/stm32l0xx_hal_rtc_ex.c ****   sTimeStamp->SubSeconds = (uint32_t) hrtc->Instance->TSSSR;
 384              		.loc 1 336 0
 385 003e 3168     		ldr	r1, [r6]
 386 0040 896B     		ldr	r1, [r1, #56]
 387 0042 6160     		str	r1, [r4, #4]
 337:Drivers/STM32L0xx_HAL_Driver/Src/stm32l0xx_hal_rtc_ex.c **** 
 338:Drivers/STM32L0xx_HAL_Driver/Src/stm32l0xx_hal_rtc_ex.c ****   /* Fill the Date structure fields with the read parameters */
 339:Drivers/STM32L0xx_HAL_Driver/Src/stm32l0xx_hal_rtc_ex.c ****   sTimeStampDate->Year = 0U;
 388              		.loc 1 339 0
 389 0044 0021     		movs	r1, #0
 390 0046 E970     		strb	r1, [r5, #3]
 340:Drivers/STM32L0xx_HAL_Driver/Src/stm32l0xx_hal_rtc_ex.c ****   sTimeStampDate->Month = (uint8_t)((tmpdate & (RTC_DR_MT | RTC_DR_MU)) >> 8U);
 391              		.loc 1 340 0
 392 0048 170A     		lsrs	r7, r2, #8
 393 004a 1F31     		adds	r1, r1, #31
 394 004c 3940     		ands	r1, r7
 395 004e 6970     		strb	r1, [r5, #1]
 341:Drivers/STM32L0xx_HAL_Driver/Src/stm32l0xx_hal_rtc_ex.c ****   sTimeStampDate->Date = (uint8_t)(tmpdate & (RTC_DR_DT | RTC_DR_DU));
 396              		.loc 1 341 0
 397 0050 1040     		ands	r0, r2
 398 0052 A870     		strb	r0, [r5, #2]
 342:Drivers/STM32L0xx_HAL_Driver/Src/stm32l0xx_hal_rtc_ex.c ****   sTimeStampDate->WeekDay = (uint8_t)((tmpdate & (RTC_DR_WDU)) >> 13U);
 399              		.loc 1 342 0
 400 0054 520B     		lsrs	r2, r2, #13
 401              	.LVL37:
 402 0056 0721     		movs	r1, #7
 403 0058 0A40     		ands	r2, r1
ARM GAS  /var/folders/2m/zqg86yyd4hbf56w83tkxjpvr0000gn/T//ccxnAkOG.s 			page 14


 404 005a 2A70     		strb	r2, [r5]
 343:Drivers/STM32L0xx_HAL_Driver/Src/stm32l0xx_hal_rtc_ex.c **** 
 344:Drivers/STM32L0xx_HAL_Driver/Src/stm32l0xx_hal_rtc_ex.c ****   /* Check the input parameters format */
 345:Drivers/STM32L0xx_HAL_Driver/Src/stm32l0xx_hal_rtc_ex.c ****   if(Format == RTC_FORMAT_BIN)
 405              		.loc 1 345 0
 406 005c 4B46     		mov	r3, r9
 407 005e 002B     		cmp	r3, #0
 408 0060 0BD0     		beq	.L18
 409              	.L17:
 346:Drivers/STM32L0xx_HAL_Driver/Src/stm32l0xx_hal_rtc_ex.c ****   {
 347:Drivers/STM32L0xx_HAL_Driver/Src/stm32l0xx_hal_rtc_ex.c ****     /* Convert the TimeStamp structure parameters to Binary format */
 348:Drivers/STM32L0xx_HAL_Driver/Src/stm32l0xx_hal_rtc_ex.c ****     sTimeStamp->Hours = (uint8_t)RTC_Bcd2ToByte(sTimeStamp->Hours);
 349:Drivers/STM32L0xx_HAL_Driver/Src/stm32l0xx_hal_rtc_ex.c ****     sTimeStamp->Minutes = (uint8_t)RTC_Bcd2ToByte(sTimeStamp->Minutes);
 350:Drivers/STM32L0xx_HAL_Driver/Src/stm32l0xx_hal_rtc_ex.c ****     sTimeStamp->Seconds = (uint8_t)RTC_Bcd2ToByte(sTimeStamp->Seconds);
 351:Drivers/STM32L0xx_HAL_Driver/Src/stm32l0xx_hal_rtc_ex.c **** 
 352:Drivers/STM32L0xx_HAL_Driver/Src/stm32l0xx_hal_rtc_ex.c ****     /* Convert the DateTimeStamp structure parameters to Binary format */
 353:Drivers/STM32L0xx_HAL_Driver/Src/stm32l0xx_hal_rtc_ex.c ****     sTimeStampDate->Month = (uint8_t)RTC_Bcd2ToByte(sTimeStampDate->Month);
 354:Drivers/STM32L0xx_HAL_Driver/Src/stm32l0xx_hal_rtc_ex.c ****     sTimeStampDate->Date = (uint8_t)RTC_Bcd2ToByte(sTimeStampDate->Date);
 355:Drivers/STM32L0xx_HAL_Driver/Src/stm32l0xx_hal_rtc_ex.c ****     sTimeStampDate->WeekDay = (uint8_t)RTC_Bcd2ToByte(sTimeStampDate->WeekDay);
 356:Drivers/STM32L0xx_HAL_Driver/Src/stm32l0xx_hal_rtc_ex.c ****   }
 357:Drivers/STM32L0xx_HAL_Driver/Src/stm32l0xx_hal_rtc_ex.c **** 
 358:Drivers/STM32L0xx_HAL_Driver/Src/stm32l0xx_hal_rtc_ex.c ****   /* Clear the TIMESTAMP Flag */
 359:Drivers/STM32L0xx_HAL_Driver/Src/stm32l0xx_hal_rtc_ex.c ****   __HAL_RTC_TIMESTAMP_CLEAR_FLAG(hrtc, RTC_FLAG_TSF);
 410              		.loc 1 359 0
 411 0062 3168     		ldr	r1, [r6]
 412 0064 CA68     		ldr	r2, [r1, #12]
 413 0066 FF23     		movs	r3, #255
 414 0068 1A40     		ands	r2, r3
 415 006a 124B     		ldr	r3, .L19+8
 416 006c 1343     		orrs	r3, r2
 417 006e CB60     		str	r3, [r1, #12]
 360:Drivers/STM32L0xx_HAL_Driver/Src/stm32l0xx_hal_rtc_ex.c **** 
 361:Drivers/STM32L0xx_HAL_Driver/Src/stm32l0xx_hal_rtc_ex.c ****   return HAL_OK;
 362:Drivers/STM32L0xx_HAL_Driver/Src/stm32l0xx_hal_rtc_ex.c **** }
 418              		.loc 1 362 0
 419 0070 0020     		movs	r0, #0
 420              		@ sp needed
 421              	.LVL38:
 422              	.LVL39:
 423              	.LVL40:
 424              	.LVL41:
 425 0072 0CBC     		pop	{r2, r3}
 426 0074 9046     		mov	r8, r2
 427 0076 9946     		mov	r9, r3
 428 0078 F8BD     		pop	{r3, r4, r5, r6, r7, pc}
 429              	.LVL42:
 430              	.L18:
 348:Drivers/STM32L0xx_HAL_Driver/Src/stm32l0xx_hal_rtc_ex.c ****     sTimeStamp->Minutes = (uint8_t)RTC_Bcd2ToByte(sTimeStamp->Minutes);
 431              		.loc 1 348 0
 432 007a 2078     		ldrb	r0, [r4]
 433 007c FFF7FEFF 		bl	RTC_Bcd2ToByte
 434              	.LVL43:
 435 0080 2070     		strb	r0, [r4]
 349:Drivers/STM32L0xx_HAL_Driver/Src/stm32l0xx_hal_rtc_ex.c ****     sTimeStamp->Seconds = (uint8_t)RTC_Bcd2ToByte(sTimeStamp->Seconds);
 436              		.loc 1 349 0
 437 0082 6078     		ldrb	r0, [r4, #1]
 438 0084 FFF7FEFF 		bl	RTC_Bcd2ToByte
ARM GAS  /var/folders/2m/zqg86yyd4hbf56w83tkxjpvr0000gn/T//ccxnAkOG.s 			page 15


 439              	.LVL44:
 440 0088 6070     		strb	r0, [r4, #1]
 350:Drivers/STM32L0xx_HAL_Driver/Src/stm32l0xx_hal_rtc_ex.c **** 
 441              		.loc 1 350 0
 442 008a A078     		ldrb	r0, [r4, #2]
 443 008c FFF7FEFF 		bl	RTC_Bcd2ToByte
 444              	.LVL45:
 445 0090 A070     		strb	r0, [r4, #2]
 353:Drivers/STM32L0xx_HAL_Driver/Src/stm32l0xx_hal_rtc_ex.c ****     sTimeStampDate->Date = (uint8_t)RTC_Bcd2ToByte(sTimeStampDate->Date);
 446              		.loc 1 353 0
 447 0092 6878     		ldrb	r0, [r5, #1]
 448 0094 FFF7FEFF 		bl	RTC_Bcd2ToByte
 449              	.LVL46:
 450 0098 6870     		strb	r0, [r5, #1]
 354:Drivers/STM32L0xx_HAL_Driver/Src/stm32l0xx_hal_rtc_ex.c ****     sTimeStampDate->WeekDay = (uint8_t)RTC_Bcd2ToByte(sTimeStampDate->WeekDay);
 451              		.loc 1 354 0
 452 009a A878     		ldrb	r0, [r5, #2]
 453 009c FFF7FEFF 		bl	RTC_Bcd2ToByte
 454              	.LVL47:
 455 00a0 A870     		strb	r0, [r5, #2]
 355:Drivers/STM32L0xx_HAL_Driver/Src/stm32l0xx_hal_rtc_ex.c ****   }
 456              		.loc 1 355 0
 457 00a2 2878     		ldrb	r0, [r5]
 458 00a4 FFF7FEFF 		bl	RTC_Bcd2ToByte
 459              	.LVL48:
 460 00a8 2870     		strb	r0, [r5]
 461 00aa DAE7     		b	.L17
 462              	.L20:
 463              		.align	2
 464              	.L19:
 465 00ac 7F7F7F00 		.word	8355711
 466 00b0 3FFFFF00 		.word	16777023
 467 00b4 7FF7FFFF 		.word	-2177
 468              		.cfi_endproc
 469              	.LFE42:
 471              		.section	.text.HAL_RTCEx_SetTamper,"ax",%progbits
 472              		.align	1
 473              		.global	HAL_RTCEx_SetTamper
 474              		.syntax unified
 475              		.code	16
 476              		.thumb_func
 477              		.fpu softvfp
 479              	HAL_RTCEx_SetTamper:
 480              	.LFB43:
 363:Drivers/STM32L0xx_HAL_Driver/Src/stm32l0xx_hal_rtc_ex.c **** 
 364:Drivers/STM32L0xx_HAL_Driver/Src/stm32l0xx_hal_rtc_ex.c **** /**
 365:Drivers/STM32L0xx_HAL_Driver/Src/stm32l0xx_hal_rtc_ex.c ****   * @brief  Set Tamper
 366:Drivers/STM32L0xx_HAL_Driver/Src/stm32l0xx_hal_rtc_ex.c ****   * @note   By calling this API we disable the tamper interrupt for all tampers.
 367:Drivers/STM32L0xx_HAL_Driver/Src/stm32l0xx_hal_rtc_ex.c ****   * @param  hrtc: RTC handle
 368:Drivers/STM32L0xx_HAL_Driver/Src/stm32l0xx_hal_rtc_ex.c ****   * @param  sTamper: Pointer to Tamper Structure.
 369:Drivers/STM32L0xx_HAL_Driver/Src/stm32l0xx_hal_rtc_ex.c ****   * @retval HAL status
 370:Drivers/STM32L0xx_HAL_Driver/Src/stm32l0xx_hal_rtc_ex.c ****   */
 371:Drivers/STM32L0xx_HAL_Driver/Src/stm32l0xx_hal_rtc_ex.c **** HAL_StatusTypeDef HAL_RTCEx_SetTamper(RTC_HandleTypeDef *hrtc, RTC_TamperTypeDef* sTamper)
 372:Drivers/STM32L0xx_HAL_Driver/Src/stm32l0xx_hal_rtc_ex.c **** {
 481              		.loc 1 372 0
 482              		.cfi_startproc
 483              		@ args = 0, pretend = 0, frame = 0
ARM GAS  /var/folders/2m/zqg86yyd4hbf56w83tkxjpvr0000gn/T//ccxnAkOG.s 			page 16


 484              		@ frame_needed = 0, uses_anonymous_args = 0
 485              	.LVL49:
 486 0000 30B5     		push	{r4, r5, lr}
 487              	.LCFI5:
 488              		.cfi_def_cfa_offset 12
 489              		.cfi_offset 4, -12
 490              		.cfi_offset 5, -8
 491              		.cfi_offset 14, -4
 492              	.LVL50:
 373:Drivers/STM32L0xx_HAL_Driver/Src/stm32l0xx_hal_rtc_ex.c ****   uint32_t tmpreg = 0U;
 374:Drivers/STM32L0xx_HAL_Driver/Src/stm32l0xx_hal_rtc_ex.c **** 
 375:Drivers/STM32L0xx_HAL_Driver/Src/stm32l0xx_hal_rtc_ex.c ****   /* Check the parameters */
 376:Drivers/STM32L0xx_HAL_Driver/Src/stm32l0xx_hal_rtc_ex.c ****   assert_param( IS_RTC_TAMPER(sTamper->Tamper));
 377:Drivers/STM32L0xx_HAL_Driver/Src/stm32l0xx_hal_rtc_ex.c ****   assert_param( IS_RTC_TAMPER_TRIGGER(sTamper->Trigger));
 378:Drivers/STM32L0xx_HAL_Driver/Src/stm32l0xx_hal_rtc_ex.c ****   assert_param(IS_RTC_TAMPER_ERASE_MODE(sTamper->NoErase));
 379:Drivers/STM32L0xx_HAL_Driver/Src/stm32l0xx_hal_rtc_ex.c ****   assert_param(IS_RTC_TAMPER_MASKFLAG_STATE(sTamper->MaskFlag));
 380:Drivers/STM32L0xx_HAL_Driver/Src/stm32l0xx_hal_rtc_ex.c ****   assert_param(IS_RTC_TAMPER_FILTER(sTamper->Filter));
 381:Drivers/STM32L0xx_HAL_Driver/Src/stm32l0xx_hal_rtc_ex.c ****   assert_param(IS_RTC_TAMPER_SAMPLING_FREQ(sTamper->SamplingFrequency));
 382:Drivers/STM32L0xx_HAL_Driver/Src/stm32l0xx_hal_rtc_ex.c ****   assert_param(IS_RTC_TAMPER_PRECHARGE_DURATION(sTamper->PrechargeDuration));
 383:Drivers/STM32L0xx_HAL_Driver/Src/stm32l0xx_hal_rtc_ex.c ****   assert_param(IS_RTC_TAMPER_PULLUP_STATE(sTamper->TamperPullUp));
 384:Drivers/STM32L0xx_HAL_Driver/Src/stm32l0xx_hal_rtc_ex.c ****   assert_param(IS_RTC_TAMPER_TIMESTAMPONTAMPER_DETECTION(sTamper->TimeStampOnTamperDetection));
 385:Drivers/STM32L0xx_HAL_Driver/Src/stm32l0xx_hal_rtc_ex.c **** 
 386:Drivers/STM32L0xx_HAL_Driver/Src/stm32l0xx_hal_rtc_ex.c ****   /* Process Locked */
 387:Drivers/STM32L0xx_HAL_Driver/Src/stm32l0xx_hal_rtc_ex.c ****   __HAL_LOCK(hrtc);
 493              		.loc 1 387 0
 494 0002 2023     		movs	r3, #32
 495 0004 C35C     		ldrb	r3, [r0, r3]
 496 0006 012B     		cmp	r3, #1
 497 0008 62D0     		beq	.L30
 498              		.loc 1 387 0 is_stmt 0 discriminator 2
 499 000a 2023     		movs	r3, #32
 500 000c 0122     		movs	r2, #1
 501 000e C254     		strb	r2, [r0, r3]
 388:Drivers/STM32L0xx_HAL_Driver/Src/stm32l0xx_hal_rtc_ex.c **** 
 389:Drivers/STM32L0xx_HAL_Driver/Src/stm32l0xx_hal_rtc_ex.c ****   hrtc->State = HAL_RTC_STATE_BUSY;
 502              		.loc 1 389 0 is_stmt 1 discriminator 2
 503 0010 0133     		adds	r3, r3, #1
 504 0012 0132     		adds	r2, r2, #1
 505 0014 C254     		strb	r2, [r0, r3]
 390:Drivers/STM32L0xx_HAL_Driver/Src/stm32l0xx_hal_rtc_ex.c **** 
 391:Drivers/STM32L0xx_HAL_Driver/Src/stm32l0xx_hal_rtc_ex.c ****   /* Configure the tamper trigger */
 392:Drivers/STM32L0xx_HAL_Driver/Src/stm32l0xx_hal_rtc_ex.c ****   if(sTamper->Trigger != RTC_TAMPERTRIGGER_RISINGEDGE)
 506              		.loc 1 392 0 discriminator 2
 507 0016 8B68     		ldr	r3, [r1, #8]
 508 0018 002B     		cmp	r3, #0
 509 001a 02D0     		beq	.L23
 393:Drivers/STM32L0xx_HAL_Driver/Src/stm32l0xx_hal_rtc_ex.c ****   { 
 394:Drivers/STM32L0xx_HAL_Driver/Src/stm32l0xx_hal_rtc_ex.c ****     sTamper->Trigger = (uint32_t)(sTamper->Tamper << 1U); 
 510              		.loc 1 394 0
 511 001c 0B68     		ldr	r3, [r1]
 512 001e 5B00     		lsls	r3, r3, #1
 513 0020 8B60     		str	r3, [r1, #8]
 514              	.L23:
 395:Drivers/STM32L0xx_HAL_Driver/Src/stm32l0xx_hal_rtc_ex.c ****   }
 396:Drivers/STM32L0xx_HAL_Driver/Src/stm32l0xx_hal_rtc_ex.c **** 
 397:Drivers/STM32L0xx_HAL_Driver/Src/stm32l0xx_hal_rtc_ex.c ****   if(sTamper->NoErase != RTC_TAMPER_ERASE_BACKUP_ENABLE)
 515              		.loc 1 397 0
ARM GAS  /var/folders/2m/zqg86yyd4hbf56w83tkxjpvr0000gn/T//ccxnAkOG.s 			page 17


 516 0022 CB68     		ldr	r3, [r1, #12]
 517 0024 002B     		cmp	r3, #0
 518 0026 15D0     		beq	.L24
 398:Drivers/STM32L0xx_HAL_Driver/Src/stm32l0xx_hal_rtc_ex.c ****   { 
 399:Drivers/STM32L0xx_HAL_Driver/Src/stm32l0xx_hal_rtc_ex.c ****     sTamper->NoErase = 0U;
 519              		.loc 1 399 0
 520 0028 0023     		movs	r3, #0
 521 002a CB60     		str	r3, [r1, #12]
 400:Drivers/STM32L0xx_HAL_Driver/Src/stm32l0xx_hal_rtc_ex.c **** #if defined (STM32L063xx) || defined (STM32L062xx) || defined (STM32L061xx) || \
 401:Drivers/STM32L0xx_HAL_Driver/Src/stm32l0xx_hal_rtc_ex.c ****     defined (STM32L053xx) || defined (STM32L052xx) || defined (STM32L051xx) ||\
 402:Drivers/STM32L0xx_HAL_Driver/Src/stm32l0xx_hal_rtc_ex.c ****     defined (STM32L083xx) || defined (STM32L082xx) || defined (STM32L081xx) || \
 403:Drivers/STM32L0xx_HAL_Driver/Src/stm32l0xx_hal_rtc_ex.c ****     defined (STM32L073xx) || defined (STM32L072xx) || defined (STM32L071xx) || \
 404:Drivers/STM32L0xx_HAL_Driver/Src/stm32l0xx_hal_rtc_ex.c ****     defined (STM32L031xx) || defined (STM32L041xx)
 405:Drivers/STM32L0xx_HAL_Driver/Src/stm32l0xx_hal_rtc_ex.c **** 
 406:Drivers/STM32L0xx_HAL_Driver/Src/stm32l0xx_hal_rtc_ex.c ****     if((sTamper->Tamper & RTC_TAMPER_1) != 0U)
 522              		.loc 1 406 0
 523 002c 0B68     		ldr	r3, [r1]
 524 002e DA07     		lsls	r2, r3, #31
 525 0030 02D5     		bpl	.L25
 407:Drivers/STM32L0xx_HAL_Driver/Src/stm32l0xx_hal_rtc_ex.c ****     {
 408:Drivers/STM32L0xx_HAL_Driver/Src/stm32l0xx_hal_rtc_ex.c ****       sTamper->NoErase |= RTC_TAMPCR_TAMP1NOERASE;
 526              		.loc 1 408 0
 527 0032 8022     		movs	r2, #128
 528 0034 9202     		lsls	r2, r2, #10
 529 0036 CA60     		str	r2, [r1, #12]
 530              	.L25:
 409:Drivers/STM32L0xx_HAL_Driver/Src/stm32l0xx_hal_rtc_ex.c ****     }
 410:Drivers/STM32L0xx_HAL_Driver/Src/stm32l0xx_hal_rtc_ex.c **** #endif /* (STM32L063xx) || (STM32L062xx) || (STM32L061xx) ||
 411:Drivers/STM32L0xx_HAL_Driver/Src/stm32l0xx_hal_rtc_ex.c ****         * (STM32L053xx) || (STM32L052xx) || (STM32L051xx) ||
 412:Drivers/STM32L0xx_HAL_Driver/Src/stm32l0xx_hal_rtc_ex.c ****         * (STM32L083xx) || (STM32L082xx) || (STM32L081xx) ||
 413:Drivers/STM32L0xx_HAL_Driver/Src/stm32l0xx_hal_rtc_ex.c ****         * (STM32L073xx) || (STM32L072xx) || (STM32L071xx) || 
 414:Drivers/STM32L0xx_HAL_Driver/Src/stm32l0xx_hal_rtc_ex.c ****         * (STM32L031xx) || (STM32L041xx)
 415:Drivers/STM32L0xx_HAL_Driver/Src/stm32l0xx_hal_rtc_ex.c ****         */
 416:Drivers/STM32L0xx_HAL_Driver/Src/stm32l0xx_hal_rtc_ex.c **** 
 417:Drivers/STM32L0xx_HAL_Driver/Src/stm32l0xx_hal_rtc_ex.c ****     if((sTamper->Tamper & RTC_TAMPER_2) != 0U)
 531              		.loc 1 417 0
 532 0038 1A07     		lsls	r2, r3, #28
 533 003a 04D5     		bpl	.L26
 418:Drivers/STM32L0xx_HAL_Driver/Src/stm32l0xx_hal_rtc_ex.c ****     {
 419:Drivers/STM32L0xx_HAL_Driver/Src/stm32l0xx_hal_rtc_ex.c ****       sTamper->NoErase |= RTC_TAMPCR_TAMP2NOERASE;
 534              		.loc 1 419 0
 535 003c 8022     		movs	r2, #128
 536 003e 5203     		lsls	r2, r2, #13
 537 0040 CC68     		ldr	r4, [r1, #12]
 538 0042 2243     		orrs	r2, r4
 539 0044 CA60     		str	r2, [r1, #12]
 540              	.L26:
 420:Drivers/STM32L0xx_HAL_Driver/Src/stm32l0xx_hal_rtc_ex.c ****     }
 421:Drivers/STM32L0xx_HAL_Driver/Src/stm32l0xx_hal_rtc_ex.c **** #if defined (STM32L083xx) || defined (STM32L082xx) || defined (STM32L081xx) || \
 422:Drivers/STM32L0xx_HAL_Driver/Src/stm32l0xx_hal_rtc_ex.c ****     defined (STM32L073xx) || defined (STM32L072xx) || defined (STM32L071xx) || \
 423:Drivers/STM32L0xx_HAL_Driver/Src/stm32l0xx_hal_rtc_ex.c ****     defined (STM32L031xx) || defined (STM32L041xx) || defined (STM32L011xx) || defined (STM32L021xx
 424:Drivers/STM32L0xx_HAL_Driver/Src/stm32l0xx_hal_rtc_ex.c **** 
 425:Drivers/STM32L0xx_HAL_Driver/Src/stm32l0xx_hal_rtc_ex.c ****     if((sTamper->Tamper & RTC_TAMPER_3) != 0U)
 541              		.loc 1 425 0
 542 0046 9B06     		lsls	r3, r3, #26
 543 0048 04D5     		bpl	.L24
 426:Drivers/STM32L0xx_HAL_Driver/Src/stm32l0xx_hal_rtc_ex.c ****     {
ARM GAS  /var/folders/2m/zqg86yyd4hbf56w83tkxjpvr0000gn/T//ccxnAkOG.s 			page 18


 427:Drivers/STM32L0xx_HAL_Driver/Src/stm32l0xx_hal_rtc_ex.c ****       sTamper->NoErase |= RTC_TAMPCR_TAMP3NOERASE;
 544              		.loc 1 427 0
 545 004a 8023     		movs	r3, #128
 546 004c 1B04     		lsls	r3, r3, #16
 547 004e CA68     		ldr	r2, [r1, #12]
 548 0050 1343     		orrs	r3, r2
 549 0052 CB60     		str	r3, [r1, #12]
 550              	.L24:
 428:Drivers/STM32L0xx_HAL_Driver/Src/stm32l0xx_hal_rtc_ex.c ****     }
 429:Drivers/STM32L0xx_HAL_Driver/Src/stm32l0xx_hal_rtc_ex.c **** 
 430:Drivers/STM32L0xx_HAL_Driver/Src/stm32l0xx_hal_rtc_ex.c **** #endif /* (STM32L083xx) || (STM32L082xx) || (STM32L081xx) ||
 431:Drivers/STM32L0xx_HAL_Driver/Src/stm32l0xx_hal_rtc_ex.c ****         * (STM32L073xx) || (STM32L072xx) || (STM32L071xx) || (STM32L031xx) || (STM32L041xx) || (STM
 432:Drivers/STM32L0xx_HAL_Driver/Src/stm32l0xx_hal_rtc_ex.c ****         */
 433:Drivers/STM32L0xx_HAL_Driver/Src/stm32l0xx_hal_rtc_ex.c ****   }
 434:Drivers/STM32L0xx_HAL_Driver/Src/stm32l0xx_hal_rtc_ex.c **** 
 435:Drivers/STM32L0xx_HAL_Driver/Src/stm32l0xx_hal_rtc_ex.c ****   if(sTamper->MaskFlag != RTC_TAMPERMASK_FLAG_DISABLE)
 551              		.loc 1 435 0
 552 0054 0B69     		ldr	r3, [r1, #16]
 553 0056 002B     		cmp	r3, #0
 554 0058 15D0     		beq	.L27
 436:Drivers/STM32L0xx_HAL_Driver/Src/stm32l0xx_hal_rtc_ex.c ****   {
 437:Drivers/STM32L0xx_HAL_Driver/Src/stm32l0xx_hal_rtc_ex.c ****     sTamper->MaskFlag = 0U;
 555              		.loc 1 437 0
 556 005a 0023     		movs	r3, #0
 557 005c 0B61     		str	r3, [r1, #16]
 438:Drivers/STM32L0xx_HAL_Driver/Src/stm32l0xx_hal_rtc_ex.c ****     
 439:Drivers/STM32L0xx_HAL_Driver/Src/stm32l0xx_hal_rtc_ex.c **** #if defined (STM32L063xx) || defined (STM32L062xx) || defined (STM32L061xx) || \
 440:Drivers/STM32L0xx_HAL_Driver/Src/stm32l0xx_hal_rtc_ex.c ****     defined (STM32L053xx) || defined (STM32L052xx) || defined (STM32L051xx) ||\
 441:Drivers/STM32L0xx_HAL_Driver/Src/stm32l0xx_hal_rtc_ex.c ****     defined (STM32L083xx) || defined (STM32L082xx) || defined (STM32L081xx) || \
 442:Drivers/STM32L0xx_HAL_Driver/Src/stm32l0xx_hal_rtc_ex.c ****     defined (STM32L073xx) || defined (STM32L072xx) || defined (STM32L071xx) || \
 443:Drivers/STM32L0xx_HAL_Driver/Src/stm32l0xx_hal_rtc_ex.c ****     defined (STM32L031xx) || defined (STM32L041xx)
 444:Drivers/STM32L0xx_HAL_Driver/Src/stm32l0xx_hal_rtc_ex.c **** 
 445:Drivers/STM32L0xx_HAL_Driver/Src/stm32l0xx_hal_rtc_ex.c ****     if((sTamper->Tamper & RTC_TAMPER_1) != 0U)
 558              		.loc 1 445 0
 559 005e 0B68     		ldr	r3, [r1]
 560 0060 DA07     		lsls	r2, r3, #31
 561 0062 02D5     		bpl	.L28
 446:Drivers/STM32L0xx_HAL_Driver/Src/stm32l0xx_hal_rtc_ex.c ****     {
 447:Drivers/STM32L0xx_HAL_Driver/Src/stm32l0xx_hal_rtc_ex.c ****       sTamper->MaskFlag |= RTC_TAMPCR_TAMP1MF;
 562              		.loc 1 447 0
 563 0064 8022     		movs	r2, #128
 564 0066 D202     		lsls	r2, r2, #11
 565 0068 0A61     		str	r2, [r1, #16]
 566              	.L28:
 448:Drivers/STM32L0xx_HAL_Driver/Src/stm32l0xx_hal_rtc_ex.c ****     }
 449:Drivers/STM32L0xx_HAL_Driver/Src/stm32l0xx_hal_rtc_ex.c **** #endif /* (STM32L063xx) || (STM32L062xx) || (STM32L061xx) ||
 450:Drivers/STM32L0xx_HAL_Driver/Src/stm32l0xx_hal_rtc_ex.c ****         * (STM32L053xx) || (STM32L052xx) || (STM32L051xx) ||
 451:Drivers/STM32L0xx_HAL_Driver/Src/stm32l0xx_hal_rtc_ex.c ****         * (STM32L083xx) || (STM32L082xx) || (STM32L081xx) ||
 452:Drivers/STM32L0xx_HAL_Driver/Src/stm32l0xx_hal_rtc_ex.c ****         * (STM32L073xx) || (STM32L072xx) || (STM32L071xx) || 
 453:Drivers/STM32L0xx_HAL_Driver/Src/stm32l0xx_hal_rtc_ex.c ****         * (STM32L031xx) || (STM32L041xx)
 454:Drivers/STM32L0xx_HAL_Driver/Src/stm32l0xx_hal_rtc_ex.c ****         */
 455:Drivers/STM32L0xx_HAL_Driver/Src/stm32l0xx_hal_rtc_ex.c ****   
 456:Drivers/STM32L0xx_HAL_Driver/Src/stm32l0xx_hal_rtc_ex.c ****     if((sTamper->Tamper & RTC_TAMPER_2) != 0U)
 567              		.loc 1 456 0
 568 006a 1A07     		lsls	r2, r3, #28
 569 006c 04D5     		bpl	.L29
 457:Drivers/STM32L0xx_HAL_Driver/Src/stm32l0xx_hal_rtc_ex.c ****     {
ARM GAS  /var/folders/2m/zqg86yyd4hbf56w83tkxjpvr0000gn/T//ccxnAkOG.s 			page 19


 458:Drivers/STM32L0xx_HAL_Driver/Src/stm32l0xx_hal_rtc_ex.c ****       sTamper->MaskFlag |= RTC_TAMPCR_TAMP2MF;
 570              		.loc 1 458 0
 571 006e 8022     		movs	r2, #128
 572 0070 9203     		lsls	r2, r2, #14
 573 0072 0C69     		ldr	r4, [r1, #16]
 574 0074 2243     		orrs	r2, r4
 575 0076 0A61     		str	r2, [r1, #16]
 576              	.L29:
 459:Drivers/STM32L0xx_HAL_Driver/Src/stm32l0xx_hal_rtc_ex.c ****     }
 460:Drivers/STM32L0xx_HAL_Driver/Src/stm32l0xx_hal_rtc_ex.c **** #if defined (STM32L083xx) || defined (STM32L082xx) || defined (STM32L081xx) || \
 461:Drivers/STM32L0xx_HAL_Driver/Src/stm32l0xx_hal_rtc_ex.c ****     defined (STM32L073xx) || defined (STM32L072xx) || defined (STM32L071xx) || \
 462:Drivers/STM32L0xx_HAL_Driver/Src/stm32l0xx_hal_rtc_ex.c ****     defined (STM32L031xx) || defined (STM32L041xx) || defined (STM32L011xx) || defined (STM32L021xx
 463:Drivers/STM32L0xx_HAL_Driver/Src/stm32l0xx_hal_rtc_ex.c **** 
 464:Drivers/STM32L0xx_HAL_Driver/Src/stm32l0xx_hal_rtc_ex.c ****     if((sTamper->Tamper & RTC_TAMPER_3) != 0U)
 577              		.loc 1 464 0
 578 0078 9B06     		lsls	r3, r3, #26
 579 007a 04D5     		bpl	.L27
 465:Drivers/STM32L0xx_HAL_Driver/Src/stm32l0xx_hal_rtc_ex.c ****     {
 466:Drivers/STM32L0xx_HAL_Driver/Src/stm32l0xx_hal_rtc_ex.c ****       sTamper->MaskFlag |= RTC_TAMPCR_TAMP3MF;
 580              		.loc 1 466 0
 581 007c 8023     		movs	r3, #128
 582 007e 5B04     		lsls	r3, r3, #17
 583 0080 0A69     		ldr	r2, [r1, #16]
 584 0082 1343     		orrs	r3, r2
 585 0084 0B61     		str	r3, [r1, #16]
 586              	.L27:
 467:Drivers/STM32L0xx_HAL_Driver/Src/stm32l0xx_hal_rtc_ex.c ****     }
 468:Drivers/STM32L0xx_HAL_Driver/Src/stm32l0xx_hal_rtc_ex.c **** #endif /* (STM32L083xx) || (STM32L082xx) || (STM32L081xx) || 
 469:Drivers/STM32L0xx_HAL_Driver/Src/stm32l0xx_hal_rtc_ex.c ****         * (STM32L073xx) || (STM32L072xx) || (STM32L071xx) || (STM32L031xx) || (STM32L041xx)|| (STM3
 470:Drivers/STM32L0xx_HAL_Driver/Src/stm32l0xx_hal_rtc_ex.c ****         */
 471:Drivers/STM32L0xx_HAL_Driver/Src/stm32l0xx_hal_rtc_ex.c ****   }
 472:Drivers/STM32L0xx_HAL_Driver/Src/stm32l0xx_hal_rtc_ex.c **** 
 473:Drivers/STM32L0xx_HAL_Driver/Src/stm32l0xx_hal_rtc_ex.c ****   /* Configure the RTC_TAMPCR register */
 474:Drivers/STM32L0xx_HAL_Driver/Src/stm32l0xx_hal_rtc_ex.c ****   tmpreg = (uint32_t)((uint32_t)sTamper->Tamper | (uint32_t)sTamper->Trigger  | (uint32_t)sTamper->
 587              		.loc 1 474 0
 588 0086 0A68     		ldr	r2, [r1]
 589 0088 8B68     		ldr	r3, [r1, #8]
 590 008a 1343     		orrs	r3, r2
 591 008c CC68     		ldr	r4, [r1, #12]
 592 008e 2343     		orrs	r3, r4
 593 0090 0C69     		ldr	r4, [r1, #16]
 594 0092 2343     		orrs	r3, r4
 475:Drivers/STM32L0xx_HAL_Driver/Src/stm32l0xx_hal_rtc_ex.c ****             (uint32_t)sTamper->MaskFlag | (uint32_t)sTamper->Filter | (uint32_t)sTamper->SamplingFr
 595              		.loc 1 475 0
 596 0094 4C69     		ldr	r4, [r1, #20]
 597 0096 2343     		orrs	r3, r4
 598 0098 8C69     		ldr	r4, [r1, #24]
 599 009a 2343     		orrs	r3, r4
 600 009c CC69     		ldr	r4, [r1, #28]
 601 009e 2343     		orrs	r3, r4
 476:Drivers/STM32L0xx_HAL_Driver/Src/stm32l0xx_hal_rtc_ex.c ****             (uint32_t)sTamper->PrechargeDuration | (uint32_t)sTamper->TamperPullUp | (uint32_t)sTam
 602              		.loc 1 476 0
 603 00a0 0C6A     		ldr	r4, [r1, #32]
 604 00a2 2343     		orrs	r3, r4
 605 00a4 496A     		ldr	r1, [r1, #36]
 606              	.LVL51:
 474:Drivers/STM32L0xx_HAL_Driver/Src/stm32l0xx_hal_rtc_ex.c ****             (uint32_t)sTamper->MaskFlag | (uint32_t)sTamper->Filter | (uint32_t)sTamper->SamplingFr
ARM GAS  /var/folders/2m/zqg86yyd4hbf56w83tkxjpvr0000gn/T//ccxnAkOG.s 			page 20


 607              		.loc 1 474 0
 608 00a6 0B43     		orrs	r3, r1
 609              	.LVL52:
 477:Drivers/STM32L0xx_HAL_Driver/Src/stm32l0xx_hal_rtc_ex.c **** 
 478:Drivers/STM32L0xx_HAL_Driver/Src/stm32l0xx_hal_rtc_ex.c **** #if defined (STM32L063xx) || defined (STM32L062xx) || defined (STM32L061xx) || \
 479:Drivers/STM32L0xx_HAL_Driver/Src/stm32l0xx_hal_rtc_ex.c ****     defined (STM32L053xx) || defined (STM32L052xx) || defined (STM32L051xx)
 480:Drivers/STM32L0xx_HAL_Driver/Src/stm32l0xx_hal_rtc_ex.c ****   hrtc->Instance->TAMPCR &= ((uint32_t)~((uint32_t)sTamper->Tamper | (uint32_t)(sTamper->Tamper << 
 481:Drivers/STM32L0xx_HAL_Driver/Src/stm32l0xx_hal_rtc_ex.c ****                                          RTC_TAMPCR_TAMPFREQ | RTC_TAMPCR_TAMPFLT | RTC_TAMPCR_TAMP
 482:Drivers/STM32L0xx_HAL_Driver/Src/stm32l0xx_hal_rtc_ex.c ****                                          RTC_TAMPCR_TAMPPUDIS | RTC_TAMPCR_TAMPIE | RTC_TAMPCR_TAMP
 483:Drivers/STM32L0xx_HAL_Driver/Src/stm32l0xx_hal_rtc_ex.c ****                                          RTC_TAMPCR_TAMP2IE | RTC_TAMPCR_TAMP1NOERASE | RTC_TAMPCR_
 484:Drivers/STM32L0xx_HAL_Driver/Src/stm32l0xx_hal_rtc_ex.c ****                                          RTC_TAMPCR_TAMP1MF | RTC_TAMPCR_TAMP2MF));
 485:Drivers/STM32L0xx_HAL_Driver/Src/stm32l0xx_hal_rtc_ex.c **** 
 486:Drivers/STM32L0xx_HAL_Driver/Src/stm32l0xx_hal_rtc_ex.c **** #elif defined (STM32L083xx) || defined (STM32L082xx) || defined (STM32L081xx) || \
 487:Drivers/STM32L0xx_HAL_Driver/Src/stm32l0xx_hal_rtc_ex.c ****       defined (STM32L073xx) || defined (STM32L072xx) || defined (STM32L071xx) || \
 488:Drivers/STM32L0xx_HAL_Driver/Src/stm32l0xx_hal_rtc_ex.c ****       defined (STM32L031xx) || defined (STM32L041xx)      
 489:Drivers/STM32L0xx_HAL_Driver/Src/stm32l0xx_hal_rtc_ex.c ****   hrtc->Instance->TAMPCR &= ((uint32_t)~((uint32_t)sTamper->Tamper | (uint32_t)(sTamper->Tamper << 
 610              		.loc 1 489 0
 611 00a8 0568     		ldr	r5, [r0]
 612 00aa 296C     		ldr	r1, [r5, #64]
 613 00ac 5400     		lsls	r4, r2, #1
 614 00ae 2243     		orrs	r2, r4
 490:Drivers/STM32L0xx_HAL_Driver/Src/stm32l0xx_hal_rtc_ex.c ****                                         RTC_TAMPCR_TAMPFREQ | RTC_TAMPCR_TAMPFLT | RTC_TAMPCR_TAMPP
 491:Drivers/STM32L0xx_HAL_Driver/Src/stm32l0xx_hal_rtc_ex.c ****                                         RTC_TAMPCR_TAMPPUDIS | RTC_TAMPCR_TAMPIE | RTC_TAMPCR_TAMP1
 492:Drivers/STM32L0xx_HAL_Driver/Src/stm32l0xx_hal_rtc_ex.c ****                                         RTC_TAMPCR_TAMP2IE | RTC_TAMPCR_TAMP3IE | RTC_TAMPCR_TAMP1N
 493:Drivers/STM32L0xx_HAL_Driver/Src/stm32l0xx_hal_rtc_ex.c ****                                         RTC_TAMPCR_TAMP2NOERASE | RTC_TAMPCR_TAMP3NOERASE | RTC_TAM
 494:Drivers/STM32L0xx_HAL_Driver/Src/stm32l0xx_hal_rtc_ex.c ****                                         RTC_TAMPCR_TAMP2MF | RTC_TAMPCR_TAMP3MF));
 615              		.loc 1 494 0
 616 00b0 084C     		ldr	r4, .L31
 617 00b2 2243     		orrs	r2, r4
 489:Drivers/STM32L0xx_HAL_Driver/Src/stm32l0xx_hal_rtc_ex.c ****                                         RTC_TAMPCR_TAMPFREQ | RTC_TAMPCR_TAMPFLT | RTC_TAMPCR_TAMPP
 618              		.loc 1 489 0
 619 00b4 9143     		bics	r1, r2
 620 00b6 2964     		str	r1, [r5, #64]
 495:Drivers/STM32L0xx_HAL_Driver/Src/stm32l0xx_hal_rtc_ex.c ****                                         
 496:Drivers/STM32L0xx_HAL_Driver/Src/stm32l0xx_hal_rtc_ex.c **** #elif defined (STM32L011xx) || defined (STM32L021xx)
 497:Drivers/STM32L0xx_HAL_Driver/Src/stm32l0xx_hal_rtc_ex.c ****   hrtc->Instance->TAMPCR &= ((uint32_t)~((uint32_t)sTamper->Tamper | (uint32_t)(sTamper->Tamper << 
 498:Drivers/STM32L0xx_HAL_Driver/Src/stm32l0xx_hal_rtc_ex.c ****                                         RTC_TAMPCR_TAMPFREQ | RTC_TAMPCR_TAMPFLT | RTC_TAMPCR_TAMPP
 499:Drivers/STM32L0xx_HAL_Driver/Src/stm32l0xx_hal_rtc_ex.c ****                                         RTC_TAMPCR_TAMPPUDIS | RTC_TAMPCR_TAMPIE                   
 500:Drivers/STM32L0xx_HAL_Driver/Src/stm32l0xx_hal_rtc_ex.c ****                                         RTC_TAMPCR_TAMP2IE | RTC_TAMPCR_TAMP3IE                    
 501:Drivers/STM32L0xx_HAL_Driver/Src/stm32l0xx_hal_rtc_ex.c ****                                         RTC_TAMPCR_TAMP2NOERASE | RTC_TAMPCR_TAMP3NOERASE          
 502:Drivers/STM32L0xx_HAL_Driver/Src/stm32l0xx_hal_rtc_ex.c ****                                         RTC_TAMPCR_TAMP2MF | RTC_TAMPCR_TAMP3MF));
 503:Drivers/STM32L0xx_HAL_Driver/Src/stm32l0xx_hal_rtc_ex.c ****                                         
 504:Drivers/STM32L0xx_HAL_Driver/Src/stm32l0xx_hal_rtc_ex.c **** #endif /* (STM32L011xx) || (STM32L021xx) 
 505:Drivers/STM32L0xx_HAL_Driver/Src/stm32l0xx_hal_rtc_ex.c ****         */
 506:Drivers/STM32L0xx_HAL_Driver/Src/stm32l0xx_hal_rtc_ex.c ****  
 507:Drivers/STM32L0xx_HAL_Driver/Src/stm32l0xx_hal_rtc_ex.c ****   hrtc->Instance->TAMPCR |= tmpreg;
 621              		.loc 1 507 0
 622 00b8 0168     		ldr	r1, [r0]
 623 00ba 0A6C     		ldr	r2, [r1, #64]
 624 00bc 1343     		orrs	r3, r2
 625              	.LVL53:
 626 00be 0B64     		str	r3, [r1, #64]
 508:Drivers/STM32L0xx_HAL_Driver/Src/stm32l0xx_hal_rtc_ex.c **** 
 509:Drivers/STM32L0xx_HAL_Driver/Src/stm32l0xx_hal_rtc_ex.c ****   hrtc->State = HAL_RTC_STATE_READY;
 627              		.loc 1 509 0
 628 00c0 2123     		movs	r3, #33
 629 00c2 0122     		movs	r2, #1
ARM GAS  /var/folders/2m/zqg86yyd4hbf56w83tkxjpvr0000gn/T//ccxnAkOG.s 			page 21


 630 00c4 C254     		strb	r2, [r0, r3]
 510:Drivers/STM32L0xx_HAL_Driver/Src/stm32l0xx_hal_rtc_ex.c **** 
 511:Drivers/STM32L0xx_HAL_Driver/Src/stm32l0xx_hal_rtc_ex.c ****   /* Process Unlocked */
 512:Drivers/STM32L0xx_HAL_Driver/Src/stm32l0xx_hal_rtc_ex.c ****   __HAL_UNLOCK(hrtc);
 631              		.loc 1 512 0
 632 00c6 013B     		subs	r3, r3, #1
 633 00c8 0022     		movs	r2, #0
 634 00ca C254     		strb	r2, [r0, r3]
 513:Drivers/STM32L0xx_HAL_Driver/Src/stm32l0xx_hal_rtc_ex.c **** 
 514:Drivers/STM32L0xx_HAL_Driver/Src/stm32l0xx_hal_rtc_ex.c ****   return HAL_OK;
 635              		.loc 1 514 0
 636 00cc 0020     		movs	r0, #0
 637              	.LVL54:
 638              	.L22:
 515:Drivers/STM32L0xx_HAL_Driver/Src/stm32l0xx_hal_rtc_ex.c **** }
 639              		.loc 1 515 0
 640              		@ sp needed
 641 00ce 30BD     		pop	{r4, r5, pc}
 642              	.LVL55:
 643              	.L30:
 387:Drivers/STM32L0xx_HAL_Driver/Src/stm32l0xx_hal_rtc_ex.c **** 
 644              		.loc 1 387 0
 645 00d0 0220     		movs	r0, #2
 646              	.LVL56:
 647 00d2 FCE7     		b	.L22
 648              	.L32:
 649              		.align	2
 650              	.L31:
 651 00d4 84FFFF01 		.word	33554308
 652              		.cfi_endproc
 653              	.LFE43:
 655              		.section	.text.HAL_RTCEx_SetTamper_IT,"ax",%progbits
 656              		.align	1
 657              		.global	HAL_RTCEx_SetTamper_IT
 658              		.syntax unified
 659              		.code	16
 660              		.thumb_func
 661              		.fpu softvfp
 663              	HAL_RTCEx_SetTamper_IT:
 664              	.LFB44:
 516:Drivers/STM32L0xx_HAL_Driver/Src/stm32l0xx_hal_rtc_ex.c **** 
 517:Drivers/STM32L0xx_HAL_Driver/Src/stm32l0xx_hal_rtc_ex.c **** /**
 518:Drivers/STM32L0xx_HAL_Driver/Src/stm32l0xx_hal_rtc_ex.c ****   * @brief  Set Tamper with interrupt.
 519:Drivers/STM32L0xx_HAL_Driver/Src/stm32l0xx_hal_rtc_ex.c ****   * @note   By calling this API we force the tamper interrupt for all tampers.
 520:Drivers/STM32L0xx_HAL_Driver/Src/stm32l0xx_hal_rtc_ex.c ****   * @param  hrtc: RTC handle
 521:Drivers/STM32L0xx_HAL_Driver/Src/stm32l0xx_hal_rtc_ex.c ****   * @param  sTamper: Pointer to RTC Tamper.
 522:Drivers/STM32L0xx_HAL_Driver/Src/stm32l0xx_hal_rtc_ex.c ****   * @retval HAL status
 523:Drivers/STM32L0xx_HAL_Driver/Src/stm32l0xx_hal_rtc_ex.c ****   */
 524:Drivers/STM32L0xx_HAL_Driver/Src/stm32l0xx_hal_rtc_ex.c **** HAL_StatusTypeDef HAL_RTCEx_SetTamper_IT(RTC_HandleTypeDef *hrtc, RTC_TamperTypeDef* sTamper)
 525:Drivers/STM32L0xx_HAL_Driver/Src/stm32l0xx_hal_rtc_ex.c **** {
 665              		.loc 1 525 0
 666              		.cfi_startproc
 667              		@ args = 0, pretend = 0, frame = 0
 668              		@ frame_needed = 0, uses_anonymous_args = 0
 669              	.LVL57:
 670 0000 30B5     		push	{r4, r5, lr}
 671              	.LCFI6:
ARM GAS  /var/folders/2m/zqg86yyd4hbf56w83tkxjpvr0000gn/T//ccxnAkOG.s 			page 22


 672              		.cfi_def_cfa_offset 12
 673              		.cfi_offset 4, -12
 674              		.cfi_offset 5, -8
 675              		.cfi_offset 14, -4
 676              	.LVL58:
 526:Drivers/STM32L0xx_HAL_Driver/Src/stm32l0xx_hal_rtc_ex.c ****   uint32_t tmpreg = 0U;
 527:Drivers/STM32L0xx_HAL_Driver/Src/stm32l0xx_hal_rtc_ex.c **** 
 528:Drivers/STM32L0xx_HAL_Driver/Src/stm32l0xx_hal_rtc_ex.c ****   /* Check the parameters */
 529:Drivers/STM32L0xx_HAL_Driver/Src/stm32l0xx_hal_rtc_ex.c ****   assert_param( IS_RTC_TAMPER(sTamper->Tamper));
 530:Drivers/STM32L0xx_HAL_Driver/Src/stm32l0xx_hal_rtc_ex.c ****   assert_param(IS_RTC_TAMPER_INTERRUPT(sTamper->Interrupt));
 531:Drivers/STM32L0xx_HAL_Driver/Src/stm32l0xx_hal_rtc_ex.c ****   assert_param( IS_RTC_TAMPER_TRIGGER(sTamper->Trigger));
 532:Drivers/STM32L0xx_HAL_Driver/Src/stm32l0xx_hal_rtc_ex.c ****   assert_param(IS_RTC_TAMPER_ERASE_MODE(sTamper->NoErase));
 533:Drivers/STM32L0xx_HAL_Driver/Src/stm32l0xx_hal_rtc_ex.c ****   assert_param(IS_RTC_TAMPER_MASKFLAG_STATE(sTamper->MaskFlag));
 534:Drivers/STM32L0xx_HAL_Driver/Src/stm32l0xx_hal_rtc_ex.c ****   assert_param(IS_RTC_TAMPER_FILTER(sTamper->Filter));
 535:Drivers/STM32L0xx_HAL_Driver/Src/stm32l0xx_hal_rtc_ex.c ****   assert_param(IS_RTC_TAMPER_SAMPLING_FREQ(sTamper->SamplingFrequency));
 536:Drivers/STM32L0xx_HAL_Driver/Src/stm32l0xx_hal_rtc_ex.c ****   assert_param(IS_RTC_TAMPER_PRECHARGE_DURATION(sTamper->PrechargeDuration));
 537:Drivers/STM32L0xx_HAL_Driver/Src/stm32l0xx_hal_rtc_ex.c ****   assert_param(IS_RTC_TAMPER_PULLUP_STATE(sTamper->TamperPullUp));
 538:Drivers/STM32L0xx_HAL_Driver/Src/stm32l0xx_hal_rtc_ex.c ****   assert_param(IS_RTC_TAMPER_TIMESTAMPONTAMPER_DETECTION(sTamper->TimeStampOnTamperDetection));
 539:Drivers/STM32L0xx_HAL_Driver/Src/stm32l0xx_hal_rtc_ex.c **** 
 540:Drivers/STM32L0xx_HAL_Driver/Src/stm32l0xx_hal_rtc_ex.c ****   /* Process Locked */
 541:Drivers/STM32L0xx_HAL_Driver/Src/stm32l0xx_hal_rtc_ex.c ****   __HAL_LOCK(hrtc);
 677              		.loc 1 541 0
 678 0002 2023     		movs	r3, #32
 679 0004 C35C     		ldrb	r3, [r0, r3]
 680 0006 012B     		cmp	r3, #1
 681 0008 00D1     		bne	.LCB637
 682 000a 6DE0     		b	.L42	@long jump
 683              	.LCB637:
 684              		.loc 1 541 0 is_stmt 0 discriminator 2
 685 000c 2023     		movs	r3, #32
 686 000e 0122     		movs	r2, #1
 687 0010 C254     		strb	r2, [r0, r3]
 542:Drivers/STM32L0xx_HAL_Driver/Src/stm32l0xx_hal_rtc_ex.c **** 
 543:Drivers/STM32L0xx_HAL_Driver/Src/stm32l0xx_hal_rtc_ex.c ****   hrtc->State = HAL_RTC_STATE_BUSY;
 688              		.loc 1 543 0 is_stmt 1 discriminator 2
 689 0012 0133     		adds	r3, r3, #1
 690 0014 0132     		adds	r2, r2, #1
 691 0016 C254     		strb	r2, [r0, r3]
 544:Drivers/STM32L0xx_HAL_Driver/Src/stm32l0xx_hal_rtc_ex.c **** 
 545:Drivers/STM32L0xx_HAL_Driver/Src/stm32l0xx_hal_rtc_ex.c ****   /* Configure the tamper trigger */
 546:Drivers/STM32L0xx_HAL_Driver/Src/stm32l0xx_hal_rtc_ex.c ****   if(sTamper->Trigger != RTC_TAMPERTRIGGER_RISINGEDGE)
 692              		.loc 1 546 0 discriminator 2
 693 0018 8B68     		ldr	r3, [r1, #8]
 694 001a 002B     		cmp	r3, #0
 695 001c 02D0     		beq	.L35
 547:Drivers/STM32L0xx_HAL_Driver/Src/stm32l0xx_hal_rtc_ex.c ****   {
 548:Drivers/STM32L0xx_HAL_Driver/Src/stm32l0xx_hal_rtc_ex.c ****     sTamper->Trigger = (uint32_t)(sTamper->Tamper << 1U);
 696              		.loc 1 548 0
 697 001e 0B68     		ldr	r3, [r1]
 698 0020 5B00     		lsls	r3, r3, #1
 699 0022 8B60     		str	r3, [r1, #8]
 700              	.L35:
 549:Drivers/STM32L0xx_HAL_Driver/Src/stm32l0xx_hal_rtc_ex.c ****   }
 550:Drivers/STM32L0xx_HAL_Driver/Src/stm32l0xx_hal_rtc_ex.c **** 
 551:Drivers/STM32L0xx_HAL_Driver/Src/stm32l0xx_hal_rtc_ex.c ****   if(sTamper->NoErase != RTC_TAMPER_ERASE_BACKUP_ENABLE)
 701              		.loc 1 551 0
 702 0024 CB68     		ldr	r3, [r1, #12]
ARM GAS  /var/folders/2m/zqg86yyd4hbf56w83tkxjpvr0000gn/T//ccxnAkOG.s 			page 23


 703 0026 002B     		cmp	r3, #0
 704 0028 15D0     		beq	.L36
 552:Drivers/STM32L0xx_HAL_Driver/Src/stm32l0xx_hal_rtc_ex.c ****   { 
 553:Drivers/STM32L0xx_HAL_Driver/Src/stm32l0xx_hal_rtc_ex.c ****     sTamper->NoErase = 0U;
 705              		.loc 1 553 0
 706 002a 0023     		movs	r3, #0
 707 002c CB60     		str	r3, [r1, #12]
 554:Drivers/STM32L0xx_HAL_Driver/Src/stm32l0xx_hal_rtc_ex.c ****     
 555:Drivers/STM32L0xx_HAL_Driver/Src/stm32l0xx_hal_rtc_ex.c **** #if defined (STM32L063xx) || defined (STM32L062xx) || defined (STM32L061xx) || \
 556:Drivers/STM32L0xx_HAL_Driver/Src/stm32l0xx_hal_rtc_ex.c ****     defined (STM32L053xx) || defined (STM32L052xx) || defined (STM32L051xx) ||\
 557:Drivers/STM32L0xx_HAL_Driver/Src/stm32l0xx_hal_rtc_ex.c ****     defined (STM32L083xx) || defined (STM32L082xx) || defined (STM32L081xx) || \
 558:Drivers/STM32L0xx_HAL_Driver/Src/stm32l0xx_hal_rtc_ex.c ****     defined (STM32L073xx) || defined (STM32L072xx) || defined (STM32L071xx) || \
 559:Drivers/STM32L0xx_HAL_Driver/Src/stm32l0xx_hal_rtc_ex.c ****     defined (STM32L031xx) || defined (STM32L041xx)
 560:Drivers/STM32L0xx_HAL_Driver/Src/stm32l0xx_hal_rtc_ex.c **** 
 561:Drivers/STM32L0xx_HAL_Driver/Src/stm32l0xx_hal_rtc_ex.c ****     if((sTamper->Tamper & RTC_TAMPER_1) != 0U)
 708              		.loc 1 561 0
 709 002e 0B68     		ldr	r3, [r1]
 710 0030 DA07     		lsls	r2, r3, #31
 711 0032 02D5     		bpl	.L37
 562:Drivers/STM32L0xx_HAL_Driver/Src/stm32l0xx_hal_rtc_ex.c ****     {
 563:Drivers/STM32L0xx_HAL_Driver/Src/stm32l0xx_hal_rtc_ex.c ****       sTamper->NoErase |= RTC_TAMPCR_TAMP1NOERASE;
 712              		.loc 1 563 0
 713 0034 8022     		movs	r2, #128
 714 0036 9202     		lsls	r2, r2, #10
 715 0038 CA60     		str	r2, [r1, #12]
 716              	.L37:
 564:Drivers/STM32L0xx_HAL_Driver/Src/stm32l0xx_hal_rtc_ex.c ****     }
 565:Drivers/STM32L0xx_HAL_Driver/Src/stm32l0xx_hal_rtc_ex.c **** #endif /* (STM32L063xx) || (STM32L062xx) || (STM32L061xx) ||
 566:Drivers/STM32L0xx_HAL_Driver/Src/stm32l0xx_hal_rtc_ex.c ****         * (STM32L053xx) || (STM32L052xx) || (STM32L051xx) ||
 567:Drivers/STM32L0xx_HAL_Driver/Src/stm32l0xx_hal_rtc_ex.c ****         * (STM32L083xx) || (STM32L082xx) || (STM32L081xx) ||
 568:Drivers/STM32L0xx_HAL_Driver/Src/stm32l0xx_hal_rtc_ex.c ****         * (STM32L073xx) || (STM32L072xx) || (STM32L071xx) || 
 569:Drivers/STM32L0xx_HAL_Driver/Src/stm32l0xx_hal_rtc_ex.c ****         * (STM32L031xx) || (STM32L041xx)
 570:Drivers/STM32L0xx_HAL_Driver/Src/stm32l0xx_hal_rtc_ex.c ****         */
 571:Drivers/STM32L0xx_HAL_Driver/Src/stm32l0xx_hal_rtc_ex.c **** 
 572:Drivers/STM32L0xx_HAL_Driver/Src/stm32l0xx_hal_rtc_ex.c ****         
 573:Drivers/STM32L0xx_HAL_Driver/Src/stm32l0xx_hal_rtc_ex.c ****     if((sTamper->Tamper & RTC_TAMPER_2) != 0U)
 717              		.loc 1 573 0
 718 003a 1A07     		lsls	r2, r3, #28
 719 003c 04D5     		bpl	.L38
 574:Drivers/STM32L0xx_HAL_Driver/Src/stm32l0xx_hal_rtc_ex.c ****     {
 575:Drivers/STM32L0xx_HAL_Driver/Src/stm32l0xx_hal_rtc_ex.c ****       sTamper->NoErase |= RTC_TAMPCR_TAMP2NOERASE;
 720              		.loc 1 575 0
 721 003e 8022     		movs	r2, #128
 722 0040 5203     		lsls	r2, r2, #13
 723 0042 CC68     		ldr	r4, [r1, #12]
 724 0044 2243     		orrs	r2, r4
 725 0046 CA60     		str	r2, [r1, #12]
 726              	.L38:
 576:Drivers/STM32L0xx_HAL_Driver/Src/stm32l0xx_hal_rtc_ex.c ****     }
 577:Drivers/STM32L0xx_HAL_Driver/Src/stm32l0xx_hal_rtc_ex.c **** #if defined (STM32L083xx) || defined (STM32L082xx) || defined (STM32L081xx) || \
 578:Drivers/STM32L0xx_HAL_Driver/Src/stm32l0xx_hal_rtc_ex.c ****     defined (STM32L073xx) || defined (STM32L072xx) || defined (STM32L071xx) || \
 579:Drivers/STM32L0xx_HAL_Driver/Src/stm32l0xx_hal_rtc_ex.c ****     defined (STM32L031xx) || defined (STM32L041xx) || defined (STM32L011xx) || defined (STM32L021xx
 580:Drivers/STM32L0xx_HAL_Driver/Src/stm32l0xx_hal_rtc_ex.c **** 
 581:Drivers/STM32L0xx_HAL_Driver/Src/stm32l0xx_hal_rtc_ex.c ****     if((sTamper->Tamper & RTC_TAMPER_3) != 0U)
 727              		.loc 1 581 0
 728 0048 9B06     		lsls	r3, r3, #26
 729 004a 04D5     		bpl	.L36
ARM GAS  /var/folders/2m/zqg86yyd4hbf56w83tkxjpvr0000gn/T//ccxnAkOG.s 			page 24


 582:Drivers/STM32L0xx_HAL_Driver/Src/stm32l0xx_hal_rtc_ex.c ****     {
 583:Drivers/STM32L0xx_HAL_Driver/Src/stm32l0xx_hal_rtc_ex.c ****       sTamper->NoErase |= RTC_TAMPCR_TAMP3NOERASE;
 730              		.loc 1 583 0
 731 004c 8023     		movs	r3, #128
 732 004e 1B04     		lsls	r3, r3, #16
 733 0050 CA68     		ldr	r2, [r1, #12]
 734 0052 1343     		orrs	r3, r2
 735 0054 CB60     		str	r3, [r1, #12]
 736              	.L36:
 584:Drivers/STM32L0xx_HAL_Driver/Src/stm32l0xx_hal_rtc_ex.c ****     }
 585:Drivers/STM32L0xx_HAL_Driver/Src/stm32l0xx_hal_rtc_ex.c **** #endif /* (STM32L083xx) || (STM32L082xx) || (STM32L081xx) ||
 586:Drivers/STM32L0xx_HAL_Driver/Src/stm32l0xx_hal_rtc_ex.c ****         * (STM32L073xx) || (STM32L072xx) || (STM32L071xx) || (STM32L031xx) || (STM32L041xx) || (STM
 587:Drivers/STM32L0xx_HAL_Driver/Src/stm32l0xx_hal_rtc_ex.c ****         */
 588:Drivers/STM32L0xx_HAL_Driver/Src/stm32l0xx_hal_rtc_ex.c ****   }
 589:Drivers/STM32L0xx_HAL_Driver/Src/stm32l0xx_hal_rtc_ex.c **** 
 590:Drivers/STM32L0xx_HAL_Driver/Src/stm32l0xx_hal_rtc_ex.c ****   if(sTamper->MaskFlag != RTC_TAMPERMASK_FLAG_DISABLE)
 737              		.loc 1 590 0
 738 0056 0B69     		ldr	r3, [r1, #16]
 739 0058 002B     		cmp	r3, #0
 740 005a 15D0     		beq	.L39
 591:Drivers/STM32L0xx_HAL_Driver/Src/stm32l0xx_hal_rtc_ex.c ****   {
 592:Drivers/STM32L0xx_HAL_Driver/Src/stm32l0xx_hal_rtc_ex.c ****     sTamper->MaskFlag = 0U;
 741              		.loc 1 592 0
 742 005c 0023     		movs	r3, #0
 743 005e 0B61     		str	r3, [r1, #16]
 593:Drivers/STM32L0xx_HAL_Driver/Src/stm32l0xx_hal_rtc_ex.c ****     
 594:Drivers/STM32L0xx_HAL_Driver/Src/stm32l0xx_hal_rtc_ex.c **** #if defined (STM32L063xx) || defined (STM32L062xx) || defined (STM32L061xx) || \
 595:Drivers/STM32L0xx_HAL_Driver/Src/stm32l0xx_hal_rtc_ex.c ****     defined (STM32L053xx) || defined (STM32L052xx) || defined (STM32L051xx) ||\
 596:Drivers/STM32L0xx_HAL_Driver/Src/stm32l0xx_hal_rtc_ex.c ****     defined (STM32L083xx) || defined (STM32L082xx) || defined (STM32L081xx) || \
 597:Drivers/STM32L0xx_HAL_Driver/Src/stm32l0xx_hal_rtc_ex.c ****     defined (STM32L073xx) || defined (STM32L072xx) || defined (STM32L071xx) || \
 598:Drivers/STM32L0xx_HAL_Driver/Src/stm32l0xx_hal_rtc_ex.c ****     defined (STM32L031xx) || defined (STM32L041xx)
 599:Drivers/STM32L0xx_HAL_Driver/Src/stm32l0xx_hal_rtc_ex.c ****     if((sTamper->Tamper & RTC_TAMPER_1) != 0U)
 744              		.loc 1 599 0
 745 0060 0B68     		ldr	r3, [r1]
 746 0062 DA07     		lsls	r2, r3, #31
 747 0064 02D5     		bpl	.L40
 600:Drivers/STM32L0xx_HAL_Driver/Src/stm32l0xx_hal_rtc_ex.c ****     {
 601:Drivers/STM32L0xx_HAL_Driver/Src/stm32l0xx_hal_rtc_ex.c ****       sTamper->MaskFlag |= RTC_TAMPCR_TAMP1MF;
 748              		.loc 1 601 0
 749 0066 8022     		movs	r2, #128
 750 0068 D202     		lsls	r2, r2, #11
 751 006a 0A61     		str	r2, [r1, #16]
 752              	.L40:
 602:Drivers/STM32L0xx_HAL_Driver/Src/stm32l0xx_hal_rtc_ex.c ****     }
 603:Drivers/STM32L0xx_HAL_Driver/Src/stm32l0xx_hal_rtc_ex.c **** #endif /* (STM32L063xx) || (STM32L062xx) || (STM32L061xx) ||
 604:Drivers/STM32L0xx_HAL_Driver/Src/stm32l0xx_hal_rtc_ex.c ****         * (STM32L053xx) || (STM32L052xx) || (STM32L051xx) ||
 605:Drivers/STM32L0xx_HAL_Driver/Src/stm32l0xx_hal_rtc_ex.c ****         * (STM32L083xx) || (STM32L082xx) || (STM32L081xx) ||
 606:Drivers/STM32L0xx_HAL_Driver/Src/stm32l0xx_hal_rtc_ex.c ****         * (STM32L073xx) || (STM32L072xx) || (STM32L071xx) || 
 607:Drivers/STM32L0xx_HAL_Driver/Src/stm32l0xx_hal_rtc_ex.c ****         * (STM32L031xx) || (STM32L041xx)
 608:Drivers/STM32L0xx_HAL_Driver/Src/stm32l0xx_hal_rtc_ex.c ****         */
 609:Drivers/STM32L0xx_HAL_Driver/Src/stm32l0xx_hal_rtc_ex.c **** 
 610:Drivers/STM32L0xx_HAL_Driver/Src/stm32l0xx_hal_rtc_ex.c ****     if((sTamper->Tamper & RTC_TAMPER_2) != 0U)
 753              		.loc 1 610 0
 754 006c 1A07     		lsls	r2, r3, #28
 755 006e 04D5     		bpl	.L41
 611:Drivers/STM32L0xx_HAL_Driver/Src/stm32l0xx_hal_rtc_ex.c ****     {
 612:Drivers/STM32L0xx_HAL_Driver/Src/stm32l0xx_hal_rtc_ex.c ****       sTamper->MaskFlag |= RTC_TAMPCR_TAMP2MF;
ARM GAS  /var/folders/2m/zqg86yyd4hbf56w83tkxjpvr0000gn/T//ccxnAkOG.s 			page 25


 756              		.loc 1 612 0
 757 0070 8022     		movs	r2, #128
 758 0072 9203     		lsls	r2, r2, #14
 759 0074 0C69     		ldr	r4, [r1, #16]
 760 0076 2243     		orrs	r2, r4
 761 0078 0A61     		str	r2, [r1, #16]
 762              	.L41:
 613:Drivers/STM32L0xx_HAL_Driver/Src/stm32l0xx_hal_rtc_ex.c ****     }
 614:Drivers/STM32L0xx_HAL_Driver/Src/stm32l0xx_hal_rtc_ex.c **** #if defined (STM32L083xx) || defined (STM32L082xx) || defined (STM32L081xx) || \
 615:Drivers/STM32L0xx_HAL_Driver/Src/stm32l0xx_hal_rtc_ex.c ****     defined (STM32L073xx) || defined (STM32L072xx) || defined (STM32L071xx) || \
 616:Drivers/STM32L0xx_HAL_Driver/Src/stm32l0xx_hal_rtc_ex.c ****     defined (STM32L031xx) || defined (STM32L041xx) || defined (STM32L011xx) || defined (STM32L021xx
 617:Drivers/STM32L0xx_HAL_Driver/Src/stm32l0xx_hal_rtc_ex.c **** 
 618:Drivers/STM32L0xx_HAL_Driver/Src/stm32l0xx_hal_rtc_ex.c ****     if((sTamper->Tamper & RTC_TAMPER_3) != 0U)
 763              		.loc 1 618 0
 764 007a 9B06     		lsls	r3, r3, #26
 765 007c 04D5     		bpl	.L39
 619:Drivers/STM32L0xx_HAL_Driver/Src/stm32l0xx_hal_rtc_ex.c ****     {
 620:Drivers/STM32L0xx_HAL_Driver/Src/stm32l0xx_hal_rtc_ex.c ****       sTamper->MaskFlag |= RTC_TAMPCR_TAMP3MF;
 766              		.loc 1 620 0
 767 007e 8023     		movs	r3, #128
 768 0080 5B04     		lsls	r3, r3, #17
 769 0082 0A69     		ldr	r2, [r1, #16]
 770 0084 1343     		orrs	r3, r2
 771 0086 0B61     		str	r3, [r1, #16]
 772              	.L39:
 621:Drivers/STM32L0xx_HAL_Driver/Src/stm32l0xx_hal_rtc_ex.c ****     }
 622:Drivers/STM32L0xx_HAL_Driver/Src/stm32l0xx_hal_rtc_ex.c **** #endif /* (STM32L083xx) || (STM32L082xx) || (STM32L081xx) ||
 623:Drivers/STM32L0xx_HAL_Driver/Src/stm32l0xx_hal_rtc_ex.c ****         * (STM32L073xx) || (STM32L072xx) || (STM32L071xx) || (STM32L031xx) || (STM32L041xx) || (STM
 624:Drivers/STM32L0xx_HAL_Driver/Src/stm32l0xx_hal_rtc_ex.c ****         */
 625:Drivers/STM32L0xx_HAL_Driver/Src/stm32l0xx_hal_rtc_ex.c ****   }
 626:Drivers/STM32L0xx_HAL_Driver/Src/stm32l0xx_hal_rtc_ex.c **** 
 627:Drivers/STM32L0xx_HAL_Driver/Src/stm32l0xx_hal_rtc_ex.c ****   /* Configure the RTC_TAMPCR register */    
 628:Drivers/STM32L0xx_HAL_Driver/Src/stm32l0xx_hal_rtc_ex.c ****   tmpreg = (uint32_t)((uint32_t)sTamper->Tamper | (uint32_t)sTamper->Interrupt | (uint32_t)sTamper-
 773              		.loc 1 628 0
 774 0088 0A68     		ldr	r2, [r1]
 775 008a 4B68     		ldr	r3, [r1, #4]
 776 008c 1343     		orrs	r3, r2
 777 008e 8C68     		ldr	r4, [r1, #8]
 778 0090 2343     		orrs	r3, r4
 779 0092 CC68     		ldr	r4, [r1, #12]
 780 0094 2343     		orrs	r3, r4
 781 0096 0C69     		ldr	r4, [r1, #16]
 782 0098 2343     		orrs	r3, r4
 629:Drivers/STM32L0xx_HAL_Driver/Src/stm32l0xx_hal_rtc_ex.c ****             (uint32_t)sTamper->MaskFlag | (uint32_t)sTamper->Filter | (uint32_t)sTamper->SamplingFr
 783              		.loc 1 629 0
 784 009a 4C69     		ldr	r4, [r1, #20]
 785 009c 2343     		orrs	r3, r4
 786 009e 8C69     		ldr	r4, [r1, #24]
 787 00a0 2343     		orrs	r3, r4
 788 00a2 CC69     		ldr	r4, [r1, #28]
 789 00a4 2343     		orrs	r3, r4
 630:Drivers/STM32L0xx_HAL_Driver/Src/stm32l0xx_hal_rtc_ex.c ****             (uint32_t)sTamper->PrechargeDuration | (uint32_t)sTamper->TamperPullUp | (uint32_t)sTam
 790              		.loc 1 630 0
 791 00a6 0C6A     		ldr	r4, [r1, #32]
 792 00a8 2343     		orrs	r3, r4
 793 00aa 496A     		ldr	r1, [r1, #36]
 794              	.LVL59:
ARM GAS  /var/folders/2m/zqg86yyd4hbf56w83tkxjpvr0000gn/T//ccxnAkOG.s 			page 26


 628:Drivers/STM32L0xx_HAL_Driver/Src/stm32l0xx_hal_rtc_ex.c ****             (uint32_t)sTamper->MaskFlag | (uint32_t)sTamper->Filter | (uint32_t)sTamper->SamplingFr
 795              		.loc 1 628 0
 796 00ac 0B43     		orrs	r3, r1
 797              	.LVL60:
 631:Drivers/STM32L0xx_HAL_Driver/Src/stm32l0xx_hal_rtc_ex.c ****   
 632:Drivers/STM32L0xx_HAL_Driver/Src/stm32l0xx_hal_rtc_ex.c **** #if defined (STM32L063xx) || defined (STM32L062xx) || defined (STM32L061xx) || \
 633:Drivers/STM32L0xx_HAL_Driver/Src/stm32l0xx_hal_rtc_ex.c ****     defined (STM32L053xx) || defined (STM32L052xx) || defined (STM32L051xx)
 634:Drivers/STM32L0xx_HAL_Driver/Src/stm32l0xx_hal_rtc_ex.c ****   hrtc->Instance->TAMPCR &= (uint32_t)~((uint32_t)sTamper->Tamper | (uint32_t)(sTamper->Tamper << 1
 635:Drivers/STM32L0xx_HAL_Driver/Src/stm32l0xx_hal_rtc_ex.c ****                                        RTC_TAMPCR_TAMPFREQ | RTC_TAMPCR_TAMPFLT | RTC_TAMPCR_TAMPPR
 636:Drivers/STM32L0xx_HAL_Driver/Src/stm32l0xx_hal_rtc_ex.c ****                                        RTC_TAMPCR_TAMPPUDIS | RTC_TAMPCR_TAMPIE | RTC_TAMPCR_TAMP1I
 637:Drivers/STM32L0xx_HAL_Driver/Src/stm32l0xx_hal_rtc_ex.c ****                                        RTC_TAMPCR_TAMP2IE | RTC_TAMPCR_TAMP1NOERASE | RTC_TAMPCR_TA
 638:Drivers/STM32L0xx_HAL_Driver/Src/stm32l0xx_hal_rtc_ex.c ****                                        RTC_TAMPCR_TAMP1MF | RTC_TAMPCR_TAMP2MF);
 639:Drivers/STM32L0xx_HAL_Driver/Src/stm32l0xx_hal_rtc_ex.c **** 
 640:Drivers/STM32L0xx_HAL_Driver/Src/stm32l0xx_hal_rtc_ex.c **** #elif defined (STM32L083xx) || defined (STM32L082xx) || defined (STM32L081xx) || \
 641:Drivers/STM32L0xx_HAL_Driver/Src/stm32l0xx_hal_rtc_ex.c ****       defined (STM32L073xx) || defined (STM32L072xx) || defined (STM32L071xx) || \
 642:Drivers/STM32L0xx_HAL_Driver/Src/stm32l0xx_hal_rtc_ex.c ****       defined (STM32L031xx) || defined (STM32L041xx)    
 643:Drivers/STM32L0xx_HAL_Driver/Src/stm32l0xx_hal_rtc_ex.c ****   hrtc->Instance->TAMPCR &= (uint32_t)~((uint32_t)sTamper->Tamper | (uint32_t)(sTamper->Tamper << 1
 798              		.loc 1 643 0
 799 00ae 0568     		ldr	r5, [r0]
 800 00b0 296C     		ldr	r1, [r5, #64]
 801 00b2 5400     		lsls	r4, r2, #1
 802 00b4 2243     		orrs	r2, r4
 644:Drivers/STM32L0xx_HAL_Driver/Src/stm32l0xx_hal_rtc_ex.c ****                                        RTC_TAMPCR_TAMPFREQ | RTC_TAMPCR_TAMPFLT | RTC_TAMPCR_TAMPPR
 645:Drivers/STM32L0xx_HAL_Driver/Src/stm32l0xx_hal_rtc_ex.c ****                                        RTC_TAMPCR_TAMPPUDIS | RTC_TAMPCR_TAMPIE | RTC_TAMPCR_TAMP1I
 646:Drivers/STM32L0xx_HAL_Driver/Src/stm32l0xx_hal_rtc_ex.c ****                                        RTC_TAMPCR_TAMP2IE | RTC_TAMPCR_TAMP3IE | RTC_TAMPCR_TAMP1NO
 647:Drivers/STM32L0xx_HAL_Driver/Src/stm32l0xx_hal_rtc_ex.c ****                                        RTC_TAMPCR_TAMP2NOERASE | RTC_TAMPCR_TAMP3NOERASE | RTC_TAMP
 648:Drivers/STM32L0xx_HAL_Driver/Src/stm32l0xx_hal_rtc_ex.c ****                                        RTC_TAMPCR_TAMP2MF | RTC_TAMPCR_TAMP3MF);
 803              		.loc 1 648 0
 804 00b6 0D4C     		ldr	r4, .L43
 805 00b8 2243     		orrs	r2, r4
 643:Drivers/STM32L0xx_HAL_Driver/Src/stm32l0xx_hal_rtc_ex.c ****                                        RTC_TAMPCR_TAMPFREQ | RTC_TAMPCR_TAMPFLT | RTC_TAMPCR_TAMPPR
 806              		.loc 1 643 0
 807 00ba 9143     		bics	r1, r2
 808 00bc 2964     		str	r1, [r5, #64]
 649:Drivers/STM32L0xx_HAL_Driver/Src/stm32l0xx_hal_rtc_ex.c **** 
 650:Drivers/STM32L0xx_HAL_Driver/Src/stm32l0xx_hal_rtc_ex.c **** #elif defined (STM32L011xx) || defined (STM32L021xx)
 651:Drivers/STM32L0xx_HAL_Driver/Src/stm32l0xx_hal_rtc_ex.c ****   hrtc->Instance->TAMPCR &= (uint32_t)~((uint32_t)sTamper->Tamper | (uint32_t)(sTamper->Tamper << 1
 652:Drivers/STM32L0xx_HAL_Driver/Src/stm32l0xx_hal_rtc_ex.c ****                                        RTC_TAMPCR_TAMPFREQ | RTC_TAMPCR_TAMPFLT | RTC_TAMPCR_TAMPPR
 653:Drivers/STM32L0xx_HAL_Driver/Src/stm32l0xx_hal_rtc_ex.c ****                                        RTC_TAMPCR_TAMPPUDIS | RTC_TAMPCR_TAMPIE                    
 654:Drivers/STM32L0xx_HAL_Driver/Src/stm32l0xx_hal_rtc_ex.c ****                                        RTC_TAMPCR_TAMP2IE | RTC_TAMPCR_TAMP3IE                     
 655:Drivers/STM32L0xx_HAL_Driver/Src/stm32l0xx_hal_rtc_ex.c ****                                        RTC_TAMPCR_TAMP2NOERASE | RTC_TAMPCR_TAMP3NOERASE           
 656:Drivers/STM32L0xx_HAL_Driver/Src/stm32l0xx_hal_rtc_ex.c ****                                        RTC_TAMPCR_TAMP2MF | RTC_TAMPCR_TAMP3MF);
 657:Drivers/STM32L0xx_HAL_Driver/Src/stm32l0xx_hal_rtc_ex.c **** 
 658:Drivers/STM32L0xx_HAL_Driver/Src/stm32l0xx_hal_rtc_ex.c **** #endif /* (STM32L011xx) || (STM32L021xx) 
 659:Drivers/STM32L0xx_HAL_Driver/Src/stm32l0xx_hal_rtc_ex.c ****         */
 660:Drivers/STM32L0xx_HAL_Driver/Src/stm32l0xx_hal_rtc_ex.c **** 
 661:Drivers/STM32L0xx_HAL_Driver/Src/stm32l0xx_hal_rtc_ex.c ****   hrtc->Instance->TAMPCR |= tmpreg;
 809              		.loc 1 661 0
 810 00be 0168     		ldr	r1, [r0]
 811 00c0 0A6C     		ldr	r2, [r1, #64]
 812 00c2 1343     		orrs	r3, r2
 813              	.LVL61:
 814 00c4 0B64     		str	r3, [r1, #64]
 662:Drivers/STM32L0xx_HAL_Driver/Src/stm32l0xx_hal_rtc_ex.c **** 
 663:Drivers/STM32L0xx_HAL_Driver/Src/stm32l0xx_hal_rtc_ex.c ****   /* RTC Tamper Interrupt Configuration: EXTI configuration */
 664:Drivers/STM32L0xx_HAL_Driver/Src/stm32l0xx_hal_rtc_ex.c ****   __HAL_RTC_TAMPER_TIMESTAMP_EXTI_ENABLE_IT();
 815              		.loc 1 664 0
ARM GAS  /var/folders/2m/zqg86yyd4hbf56w83tkxjpvr0000gn/T//ccxnAkOG.s 			page 27


 816 00c6 0A4B     		ldr	r3, .L43+4
 817 00c8 1968     		ldr	r1, [r3]
 818 00ca 8022     		movs	r2, #128
 819 00cc 1203     		lsls	r2, r2, #12
 820 00ce 1143     		orrs	r1, r2
 821 00d0 1960     		str	r1, [r3]
 665:Drivers/STM32L0xx_HAL_Driver/Src/stm32l0xx_hal_rtc_ex.c **** 
 666:Drivers/STM32L0xx_HAL_Driver/Src/stm32l0xx_hal_rtc_ex.c ****   __HAL_RTC_TAMPER_TIMESTAMP_EXTI_ENABLE_RISING_EDGE();
 822              		.loc 1 666 0
 823 00d2 9968     		ldr	r1, [r3, #8]
 824 00d4 0A43     		orrs	r2, r1
 825 00d6 9A60     		str	r2, [r3, #8]
 667:Drivers/STM32L0xx_HAL_Driver/Src/stm32l0xx_hal_rtc_ex.c **** 
 668:Drivers/STM32L0xx_HAL_Driver/Src/stm32l0xx_hal_rtc_ex.c ****   hrtc->State = HAL_RTC_STATE_READY;
 826              		.loc 1 668 0
 827 00d8 2123     		movs	r3, #33
 828 00da 0122     		movs	r2, #1
 829 00dc C254     		strb	r2, [r0, r3]
 669:Drivers/STM32L0xx_HAL_Driver/Src/stm32l0xx_hal_rtc_ex.c **** 
 670:Drivers/STM32L0xx_HAL_Driver/Src/stm32l0xx_hal_rtc_ex.c ****   /* Process Unlocked */
 671:Drivers/STM32L0xx_HAL_Driver/Src/stm32l0xx_hal_rtc_ex.c ****   __HAL_UNLOCK(hrtc);
 830              		.loc 1 671 0
 831 00de 013B     		subs	r3, r3, #1
 832 00e0 0022     		movs	r2, #0
 833 00e2 C254     		strb	r2, [r0, r3]
 672:Drivers/STM32L0xx_HAL_Driver/Src/stm32l0xx_hal_rtc_ex.c **** 
 673:Drivers/STM32L0xx_HAL_Driver/Src/stm32l0xx_hal_rtc_ex.c ****   return HAL_OK;
 834              		.loc 1 673 0
 835 00e4 0020     		movs	r0, #0
 836              	.LVL62:
 837              	.L34:
 674:Drivers/STM32L0xx_HAL_Driver/Src/stm32l0xx_hal_rtc_ex.c **** }
 838              		.loc 1 674 0
 839              		@ sp needed
 840 00e6 30BD     		pop	{r4, r5, pc}
 841              	.LVL63:
 842              	.L42:
 541:Drivers/STM32L0xx_HAL_Driver/Src/stm32l0xx_hal_rtc_ex.c **** 
 843              		.loc 1 541 0
 844 00e8 0220     		movs	r0, #2
 845              	.LVL64:
 846 00ea FCE7     		b	.L34
 847              	.L44:
 848              		.align	2
 849              	.L43:
 850 00ec 84FFFF01 		.word	33554308
 851 00f0 00040140 		.word	1073808384
 852              		.cfi_endproc
 853              	.LFE44:
 855              		.section	.text.HAL_RTCEx_DeactivateTamper,"ax",%progbits
 856              		.align	1
 857              		.global	HAL_RTCEx_DeactivateTamper
 858              		.syntax unified
 859              		.code	16
 860              		.thumb_func
 861              		.fpu softvfp
 863              	HAL_RTCEx_DeactivateTamper:
ARM GAS  /var/folders/2m/zqg86yyd4hbf56w83tkxjpvr0000gn/T//ccxnAkOG.s 			page 28


 864              	.LFB45:
 675:Drivers/STM32L0xx_HAL_Driver/Src/stm32l0xx_hal_rtc_ex.c **** 
 676:Drivers/STM32L0xx_HAL_Driver/Src/stm32l0xx_hal_rtc_ex.c **** /**
 677:Drivers/STM32L0xx_HAL_Driver/Src/stm32l0xx_hal_rtc_ex.c ****   * @brief  Deactivate Tamper.
 678:Drivers/STM32L0xx_HAL_Driver/Src/stm32l0xx_hal_rtc_ex.c ****   * @param  hrtc: RTC handle
 679:Drivers/STM32L0xx_HAL_Driver/Src/stm32l0xx_hal_rtc_ex.c ****   * @param  Tamper: Selected tamper pin.
 680:Drivers/STM32L0xx_HAL_Driver/Src/stm32l0xx_hal_rtc_ex.c ****   *          This parameter can be RTC_Tamper_1 and/or RTC_TAMPER_2 for STM32L05x/6x.
 681:Drivers/STM32L0xx_HAL_Driver/Src/stm32l0xx_hal_rtc_ex.c ****   *          This parameter can be any combination of RTC_TAMPER_1, RTC_TAMPER_2 and RTC_TAMPER_3 f
 682:Drivers/STM32L0xx_HAL_Driver/Src/stm32l0xx_hal_rtc_ex.c ****   * @retval HAL status
 683:Drivers/STM32L0xx_HAL_Driver/Src/stm32l0xx_hal_rtc_ex.c ****   */
 684:Drivers/STM32L0xx_HAL_Driver/Src/stm32l0xx_hal_rtc_ex.c **** HAL_StatusTypeDef HAL_RTCEx_DeactivateTamper(RTC_HandleTypeDef *hrtc, uint32_t Tamper)
 685:Drivers/STM32L0xx_HAL_Driver/Src/stm32l0xx_hal_rtc_ex.c **** {
 865              		.loc 1 685 0
 866              		.cfi_startproc
 867              		@ args = 0, pretend = 0, frame = 0
 868              		@ frame_needed = 0, uses_anonymous_args = 0
 869              	.LVL65:
 870 0000 10B5     		push	{r4, lr}
 871              	.LCFI7:
 872              		.cfi_def_cfa_offset 8
 873              		.cfi_offset 4, -8
 874              		.cfi_offset 14, -4
 686:Drivers/STM32L0xx_HAL_Driver/Src/stm32l0xx_hal_rtc_ex.c ****   assert_param( IS_RTC_TAMPER(Tamper));
 687:Drivers/STM32L0xx_HAL_Driver/Src/stm32l0xx_hal_rtc_ex.c **** 
 688:Drivers/STM32L0xx_HAL_Driver/Src/stm32l0xx_hal_rtc_ex.c ****   /* Process Locked */
 689:Drivers/STM32L0xx_HAL_Driver/Src/stm32l0xx_hal_rtc_ex.c ****   __HAL_LOCK(hrtc);
 875              		.loc 1 689 0
 876 0002 2023     		movs	r3, #32
 877 0004 C35C     		ldrb	r3, [r0, r3]
 878 0006 012B     		cmp	r3, #1
 879 0008 26D0     		beq	.L50
 880              		.loc 1 689 0 is_stmt 0 discriminator 2
 881 000a 0122     		movs	r2, #1
 882 000c 2023     		movs	r3, #32
 883 000e C254     		strb	r2, [r0, r3]
 690:Drivers/STM32L0xx_HAL_Driver/Src/stm32l0xx_hal_rtc_ex.c **** 
 691:Drivers/STM32L0xx_HAL_Driver/Src/stm32l0xx_hal_rtc_ex.c ****   hrtc->State = HAL_RTC_STATE_BUSY;
 884              		.loc 1 691 0 is_stmt 1 discriminator 2
 885 0010 0133     		adds	r3, r3, #1
 886 0012 0224     		movs	r4, #2
 887 0014 C454     		strb	r4, [r0, r3]
 692:Drivers/STM32L0xx_HAL_Driver/Src/stm32l0xx_hal_rtc_ex.c **** 
 693:Drivers/STM32L0xx_HAL_Driver/Src/stm32l0xx_hal_rtc_ex.c ****   /* Disable the selected Tamper pin */
 694:Drivers/STM32L0xx_HAL_Driver/Src/stm32l0xx_hal_rtc_ex.c ****   hrtc->Instance->TAMPCR &= ((uint32_t)~Tamper);
 888              		.loc 1 694 0 discriminator 2
 889 0016 0468     		ldr	r4, [r0]
 890 0018 236C     		ldr	r3, [r4, #64]
 891 001a 8B43     		bics	r3, r1
 892 001c 2364     		str	r3, [r4, #64]
 695:Drivers/STM32L0xx_HAL_Driver/Src/stm32l0xx_hal_rtc_ex.c ****   
 696:Drivers/STM32L0xx_HAL_Driver/Src/stm32l0xx_hal_rtc_ex.c **** #if defined (STM32L063xx) || defined (STM32L062xx) || defined (STM32L061xx) || \
 697:Drivers/STM32L0xx_HAL_Driver/Src/stm32l0xx_hal_rtc_ex.c ****     defined (STM32L053xx) || defined (STM32L052xx) || defined (STM32L051xx) ||\
 698:Drivers/STM32L0xx_HAL_Driver/Src/stm32l0xx_hal_rtc_ex.c ****     defined (STM32L083xx) || defined (STM32L082xx) || defined (STM32L081xx) || \
 699:Drivers/STM32L0xx_HAL_Driver/Src/stm32l0xx_hal_rtc_ex.c ****     defined (STM32L073xx) || defined (STM32L072xx) || defined (STM32L071xx) || \
 700:Drivers/STM32L0xx_HAL_Driver/Src/stm32l0xx_hal_rtc_ex.c ****     defined (STM32L031xx) || defined (STM32L041xx)
 701:Drivers/STM32L0xx_HAL_Driver/Src/stm32l0xx_hal_rtc_ex.c ****   if ((Tamper & RTC_TAMPER_1) != 0U)
 893              		.loc 1 701 0 discriminator 2
ARM GAS  /var/folders/2m/zqg86yyd4hbf56w83tkxjpvr0000gn/T//ccxnAkOG.s 			page 29


 894 001e 0A42     		tst	r2, r1
 895 0020 04D0     		beq	.L47
 702:Drivers/STM32L0xx_HAL_Driver/Src/stm32l0xx_hal_rtc_ex.c ****   {
 703:Drivers/STM32L0xx_HAL_Driver/Src/stm32l0xx_hal_rtc_ex.c ****     /* Disable the Tamper1 interrupt */
 704:Drivers/STM32L0xx_HAL_Driver/Src/stm32l0xx_hal_rtc_ex.c ****     hrtc->Instance->TAMPCR &= ((uint32_t)~(RTC_IT_TAMP | RTC_IT_TAMP1));
 896              		.loc 1 704 0
 897 0022 0268     		ldr	r2, [r0]
 898 0024 136C     		ldr	r3, [r2, #64]
 899 0026 0D4C     		ldr	r4, .L51
 900 0028 2340     		ands	r3, r4
 901 002a 1364     		str	r3, [r2, #64]
 902              	.L47:
 705:Drivers/STM32L0xx_HAL_Driver/Src/stm32l0xx_hal_rtc_ex.c ****   }
 706:Drivers/STM32L0xx_HAL_Driver/Src/stm32l0xx_hal_rtc_ex.c ****   
 707:Drivers/STM32L0xx_HAL_Driver/Src/stm32l0xx_hal_rtc_ex.c **** #endif /* (STM32L063xx) || (STM32L062xx) || (STM32L061xx) ||
 708:Drivers/STM32L0xx_HAL_Driver/Src/stm32l0xx_hal_rtc_ex.c ****         * (STM32L053xx) || (STM32L052xx) || (STM32L051xx) ||
 709:Drivers/STM32L0xx_HAL_Driver/Src/stm32l0xx_hal_rtc_ex.c ****         * (STM32L083xx) || (STM32L082xx) || (STM32L081xx) ||
 710:Drivers/STM32L0xx_HAL_Driver/Src/stm32l0xx_hal_rtc_ex.c ****         * (STM32L073xx) || (STM32L072xx) || (STM32L071xx) || 
 711:Drivers/STM32L0xx_HAL_Driver/Src/stm32l0xx_hal_rtc_ex.c ****         * (STM32L031xx) || (STM32L041xx)
 712:Drivers/STM32L0xx_HAL_Driver/Src/stm32l0xx_hal_rtc_ex.c ****         */
 713:Drivers/STM32L0xx_HAL_Driver/Src/stm32l0xx_hal_rtc_ex.c ****   
 714:Drivers/STM32L0xx_HAL_Driver/Src/stm32l0xx_hal_rtc_ex.c ****   if ((Tamper & RTC_TAMPER_2) != 0U)
 903              		.loc 1 714 0
 904 002c 0B07     		lsls	r3, r1, #28
 905 002e 04D5     		bpl	.L48
 715:Drivers/STM32L0xx_HAL_Driver/Src/stm32l0xx_hal_rtc_ex.c ****   {
 716:Drivers/STM32L0xx_HAL_Driver/Src/stm32l0xx_hal_rtc_ex.c ****     /* Disable the Tamper2 interrupt */
 717:Drivers/STM32L0xx_HAL_Driver/Src/stm32l0xx_hal_rtc_ex.c ****     hrtc->Instance->TAMPCR &= ((uint32_t)~(RTC_IT_TAMP | RTC_IT_TAMP2));
 906              		.loc 1 717 0
 907 0030 0268     		ldr	r2, [r0]
 908 0032 136C     		ldr	r3, [r2, #64]
 909 0034 0A4C     		ldr	r4, .L51+4
 910 0036 2340     		ands	r3, r4
 911 0038 1364     		str	r3, [r2, #64]
 912              	.L48:
 718:Drivers/STM32L0xx_HAL_Driver/Src/stm32l0xx_hal_rtc_ex.c ****   }
 719:Drivers/STM32L0xx_HAL_Driver/Src/stm32l0xx_hal_rtc_ex.c **** 
 720:Drivers/STM32L0xx_HAL_Driver/Src/stm32l0xx_hal_rtc_ex.c **** #if defined (STM32L083xx) || defined (STM32L082xx) || defined (STM32L081xx) || \
 721:Drivers/STM32L0xx_HAL_Driver/Src/stm32l0xx_hal_rtc_ex.c ****     defined (STM32L073xx) || defined (STM32L072xx) || defined (STM32L071xx) || \
 722:Drivers/STM32L0xx_HAL_Driver/Src/stm32l0xx_hal_rtc_ex.c ****     defined (STM32L031xx) || defined (STM32L041xx) || defined (STM32L011xx) || defined (STM32L021xx
 723:Drivers/STM32L0xx_HAL_Driver/Src/stm32l0xx_hal_rtc_ex.c ****     
 724:Drivers/STM32L0xx_HAL_Driver/Src/stm32l0xx_hal_rtc_ex.c ****     if ((Tamper & RTC_TAMPER_3) != 0U)
 913              		.loc 1 724 0
 914 003a 8B06     		lsls	r3, r1, #26
 915 003c 04D5     		bpl	.L49
 725:Drivers/STM32L0xx_HAL_Driver/Src/stm32l0xx_hal_rtc_ex.c ****   {
 726:Drivers/STM32L0xx_HAL_Driver/Src/stm32l0xx_hal_rtc_ex.c ****     /* Disable the Tamper3 interrupt */
 727:Drivers/STM32L0xx_HAL_Driver/Src/stm32l0xx_hal_rtc_ex.c ****     hrtc->Instance->TAMPCR &= ((uint32_t)~(RTC_IT_TAMP | RTC_IT_TAMP3));
 916              		.loc 1 727 0
 917 003e 0268     		ldr	r2, [r0]
 918 0040 136C     		ldr	r3, [r2, #64]
 919 0042 0849     		ldr	r1, .L51+8
 920              	.LVL66:
 921 0044 0B40     		ands	r3, r1
 922 0046 1364     		str	r3, [r2, #64]
 923              	.L49:
 728:Drivers/STM32L0xx_HAL_Driver/Src/stm32l0xx_hal_rtc_ex.c ****   }
ARM GAS  /var/folders/2m/zqg86yyd4hbf56w83tkxjpvr0000gn/T//ccxnAkOG.s 			page 30


 729:Drivers/STM32L0xx_HAL_Driver/Src/stm32l0xx_hal_rtc_ex.c ****   
 730:Drivers/STM32L0xx_HAL_Driver/Src/stm32l0xx_hal_rtc_ex.c **** #endif /* (STM32L083xx) || (STM32L082xx) || (STM32L081xx) ||
 731:Drivers/STM32L0xx_HAL_Driver/Src/stm32l0xx_hal_rtc_ex.c ****     * (STM32L073xx) || (STM32L072xx) || (STM32L071xx) || (STM32L031xx) || (STM32L041xx) || (STM32L0
 732:Drivers/STM32L0xx_HAL_Driver/Src/stm32l0xx_hal_rtc_ex.c ****     */
 733:Drivers/STM32L0xx_HAL_Driver/Src/stm32l0xx_hal_rtc_ex.c ****     
 734:Drivers/STM32L0xx_HAL_Driver/Src/stm32l0xx_hal_rtc_ex.c ****   hrtc->State = HAL_RTC_STATE_READY;
 924              		.loc 1 734 0
 925 0048 2123     		movs	r3, #33
 926 004a 0122     		movs	r2, #1
 927 004c C254     		strb	r2, [r0, r3]
 735:Drivers/STM32L0xx_HAL_Driver/Src/stm32l0xx_hal_rtc_ex.c **** 
 736:Drivers/STM32L0xx_HAL_Driver/Src/stm32l0xx_hal_rtc_ex.c ****   /* Process Unlocked */
 737:Drivers/STM32L0xx_HAL_Driver/Src/stm32l0xx_hal_rtc_ex.c ****   __HAL_UNLOCK(hrtc);
 928              		.loc 1 737 0
 929 004e 013B     		subs	r3, r3, #1
 930 0050 0022     		movs	r2, #0
 931 0052 C254     		strb	r2, [r0, r3]
 738:Drivers/STM32L0xx_HAL_Driver/Src/stm32l0xx_hal_rtc_ex.c **** 
 739:Drivers/STM32L0xx_HAL_Driver/Src/stm32l0xx_hal_rtc_ex.c ****   return HAL_OK;
 932              		.loc 1 739 0
 933 0054 0020     		movs	r0, #0
 934              	.LVL67:
 935              	.L46:
 740:Drivers/STM32L0xx_HAL_Driver/Src/stm32l0xx_hal_rtc_ex.c **** }
 936              		.loc 1 740 0
 937              		@ sp needed
 938 0056 10BD     		pop	{r4, pc}
 939              	.LVL68:
 940              	.L50:
 689:Drivers/STM32L0xx_HAL_Driver/Src/stm32l0xx_hal_rtc_ex.c **** 
 941              		.loc 1 689 0
 942 0058 0220     		movs	r0, #2
 943              	.LVL69:
 944 005a FCE7     		b	.L46
 945              	.L52:
 946              		.align	2
 947              	.L51:
 948 005c FBFFFEFF 		.word	-65541
 949 0060 FBFFF7FF 		.word	-524293
 950 0064 FBFFBFFF 		.word	-4194309
 951              		.cfi_endproc
 952              	.LFE45:
 954              		.section	.text.HAL_RTCEx_TimeStampEventCallback,"ax",%progbits
 955              		.align	1
 956              		.weak	HAL_RTCEx_TimeStampEventCallback
 957              		.syntax unified
 958              		.code	16
 959              		.thumb_func
 960              		.fpu softvfp
 962              	HAL_RTCEx_TimeStampEventCallback:
 963              	.LFB47:
 741:Drivers/STM32L0xx_HAL_Driver/Src/stm32l0xx_hal_rtc_ex.c **** 
 742:Drivers/STM32L0xx_HAL_Driver/Src/stm32l0xx_hal_rtc_ex.c **** /**
 743:Drivers/STM32L0xx_HAL_Driver/Src/stm32l0xx_hal_rtc_ex.c ****   * @brief  Handle TimeStamp interrupt request.
 744:Drivers/STM32L0xx_HAL_Driver/Src/stm32l0xx_hal_rtc_ex.c ****   * @param  hrtc: RTC handle
 745:Drivers/STM32L0xx_HAL_Driver/Src/stm32l0xx_hal_rtc_ex.c ****   * @retval None
 746:Drivers/STM32L0xx_HAL_Driver/Src/stm32l0xx_hal_rtc_ex.c ****   */
ARM GAS  /var/folders/2m/zqg86yyd4hbf56w83tkxjpvr0000gn/T//ccxnAkOG.s 			page 31


 747:Drivers/STM32L0xx_HAL_Driver/Src/stm32l0xx_hal_rtc_ex.c **** void HAL_RTCEx_TamperTimeStampIRQHandler(RTC_HandleTypeDef *hrtc)
 748:Drivers/STM32L0xx_HAL_Driver/Src/stm32l0xx_hal_rtc_ex.c **** { 
 749:Drivers/STM32L0xx_HAL_Driver/Src/stm32l0xx_hal_rtc_ex.c ****   /* Get the TimeStamp interrupt source enable status */
 750:Drivers/STM32L0xx_HAL_Driver/Src/stm32l0xx_hal_rtc_ex.c ****   if(__HAL_RTC_TIMESTAMP_GET_IT_SOURCE(hrtc, RTC_IT_TS) != RESET)
 751:Drivers/STM32L0xx_HAL_Driver/Src/stm32l0xx_hal_rtc_ex.c ****   {
 752:Drivers/STM32L0xx_HAL_Driver/Src/stm32l0xx_hal_rtc_ex.c ****     /* Get the pending status of the TIMESTAMP Interrupt */
 753:Drivers/STM32L0xx_HAL_Driver/Src/stm32l0xx_hal_rtc_ex.c ****     if(__HAL_RTC_TIMESTAMP_GET_FLAG(hrtc, RTC_FLAG_TSF) != RESET)
 754:Drivers/STM32L0xx_HAL_Driver/Src/stm32l0xx_hal_rtc_ex.c ****     {
 755:Drivers/STM32L0xx_HAL_Driver/Src/stm32l0xx_hal_rtc_ex.c ****       /* TIMESTAMP callback */ 
 756:Drivers/STM32L0xx_HAL_Driver/Src/stm32l0xx_hal_rtc_ex.c ****       HAL_RTCEx_TimeStampEventCallback(hrtc);
 757:Drivers/STM32L0xx_HAL_Driver/Src/stm32l0xx_hal_rtc_ex.c ****       
 758:Drivers/STM32L0xx_HAL_Driver/Src/stm32l0xx_hal_rtc_ex.c ****       /* Clear the TIMESTAMP interrupt pending bit */
 759:Drivers/STM32L0xx_HAL_Driver/Src/stm32l0xx_hal_rtc_ex.c ****       __HAL_RTC_TIMESTAMP_CLEAR_FLAG(hrtc, RTC_FLAG_TSF);
 760:Drivers/STM32L0xx_HAL_Driver/Src/stm32l0xx_hal_rtc_ex.c ****     }
 761:Drivers/STM32L0xx_HAL_Driver/Src/stm32l0xx_hal_rtc_ex.c ****   }
 762:Drivers/STM32L0xx_HAL_Driver/Src/stm32l0xx_hal_rtc_ex.c **** 
 763:Drivers/STM32L0xx_HAL_Driver/Src/stm32l0xx_hal_rtc_ex.c **** #if defined (STM32L063xx) || defined (STM32L062xx) || defined (STM32L061xx) || \
 764:Drivers/STM32L0xx_HAL_Driver/Src/stm32l0xx_hal_rtc_ex.c ****     defined (STM32L053xx) || defined (STM32L052xx) || defined (STM32L051xx) ||\
 765:Drivers/STM32L0xx_HAL_Driver/Src/stm32l0xx_hal_rtc_ex.c ****     defined (STM32L083xx) || defined (STM32L082xx) || defined (STM32L081xx) || \
 766:Drivers/STM32L0xx_HAL_Driver/Src/stm32l0xx_hal_rtc_ex.c ****     defined (STM32L073xx) || defined (STM32L072xx) || defined (STM32L071xx) || \
 767:Drivers/STM32L0xx_HAL_Driver/Src/stm32l0xx_hal_rtc_ex.c ****     defined (STM32L031xx) || defined (STM32L041xx)
 768:Drivers/STM32L0xx_HAL_Driver/Src/stm32l0xx_hal_rtc_ex.c **** 
 769:Drivers/STM32L0xx_HAL_Driver/Src/stm32l0xx_hal_rtc_ex.c ****   /* Get the Tamper1 interrupts source enable status */
 770:Drivers/STM32L0xx_HAL_Driver/Src/stm32l0xx_hal_rtc_ex.c ****   if(__HAL_RTC_TAMPER_GET_IT_SOURCE(hrtc, RTC_IT_TAMP | RTC_IT_TAMP1) != RESET)
 771:Drivers/STM32L0xx_HAL_Driver/Src/stm32l0xx_hal_rtc_ex.c ****   {
 772:Drivers/STM32L0xx_HAL_Driver/Src/stm32l0xx_hal_rtc_ex.c ****     /* Get the pending status of the Tamper1 Interrupt */
 773:Drivers/STM32L0xx_HAL_Driver/Src/stm32l0xx_hal_rtc_ex.c ****     if(__HAL_RTC_TAMPER_GET_FLAG(hrtc, RTC_FLAG_TAMP1F) != RESET)
 774:Drivers/STM32L0xx_HAL_Driver/Src/stm32l0xx_hal_rtc_ex.c ****     {
 775:Drivers/STM32L0xx_HAL_Driver/Src/stm32l0xx_hal_rtc_ex.c ****       /* Tamper1 callback */
 776:Drivers/STM32L0xx_HAL_Driver/Src/stm32l0xx_hal_rtc_ex.c ****       HAL_RTCEx_Tamper1EventCallback(hrtc);
 777:Drivers/STM32L0xx_HAL_Driver/Src/stm32l0xx_hal_rtc_ex.c **** 
 778:Drivers/STM32L0xx_HAL_Driver/Src/stm32l0xx_hal_rtc_ex.c ****       /* Clear the Tamper1 interrupt pending bit */
 779:Drivers/STM32L0xx_HAL_Driver/Src/stm32l0xx_hal_rtc_ex.c ****       __HAL_RTC_TAMPER_CLEAR_FLAG(hrtc, RTC_FLAG_TAMP1F);
 780:Drivers/STM32L0xx_HAL_Driver/Src/stm32l0xx_hal_rtc_ex.c ****     }
 781:Drivers/STM32L0xx_HAL_Driver/Src/stm32l0xx_hal_rtc_ex.c ****   }
 782:Drivers/STM32L0xx_HAL_Driver/Src/stm32l0xx_hal_rtc_ex.c **** #endif /* (STM32L063xx) || (STM32L062xx) || (STM32L061xx) ||
 783:Drivers/STM32L0xx_HAL_Driver/Src/stm32l0xx_hal_rtc_ex.c ****         * (STM32L053xx) || (STM32L052xx) || (STM32L051xx) ||
 784:Drivers/STM32L0xx_HAL_Driver/Src/stm32l0xx_hal_rtc_ex.c ****         * (STM32L083xx) || (STM32L082xx) || (STM32L081xx) ||
 785:Drivers/STM32L0xx_HAL_Driver/Src/stm32l0xx_hal_rtc_ex.c ****         * (STM32L073xx) || (STM32L072xx) || (STM32L071xx) || 
 786:Drivers/STM32L0xx_HAL_Driver/Src/stm32l0xx_hal_rtc_ex.c ****         * (STM32L031xx) || (STM32L041xx)
 787:Drivers/STM32L0xx_HAL_Driver/Src/stm32l0xx_hal_rtc_ex.c ****         */
 788:Drivers/STM32L0xx_HAL_Driver/Src/stm32l0xx_hal_rtc_ex.c **** 
 789:Drivers/STM32L0xx_HAL_Driver/Src/stm32l0xx_hal_rtc_ex.c ****   /* Get the Tamper2 interrupts source enable status */
 790:Drivers/STM32L0xx_HAL_Driver/Src/stm32l0xx_hal_rtc_ex.c ****   if(__HAL_RTC_TAMPER_GET_IT_SOURCE(hrtc, RTC_IT_TAMP | RTC_IT_TAMP2) != RESET)
 791:Drivers/STM32L0xx_HAL_Driver/Src/stm32l0xx_hal_rtc_ex.c ****   {
 792:Drivers/STM32L0xx_HAL_Driver/Src/stm32l0xx_hal_rtc_ex.c ****     /* Get the pending status of the Tamper2 Interrupt */
 793:Drivers/STM32L0xx_HAL_Driver/Src/stm32l0xx_hal_rtc_ex.c ****     if(__HAL_RTC_TAMPER_GET_FLAG(hrtc, RTC_FLAG_TAMP2F) != RESET)
 794:Drivers/STM32L0xx_HAL_Driver/Src/stm32l0xx_hal_rtc_ex.c ****     {
 795:Drivers/STM32L0xx_HAL_Driver/Src/stm32l0xx_hal_rtc_ex.c ****       /* Tamper2 callback */
 796:Drivers/STM32L0xx_HAL_Driver/Src/stm32l0xx_hal_rtc_ex.c ****       HAL_RTCEx_Tamper2EventCallback(hrtc);
 797:Drivers/STM32L0xx_HAL_Driver/Src/stm32l0xx_hal_rtc_ex.c **** 
 798:Drivers/STM32L0xx_HAL_Driver/Src/stm32l0xx_hal_rtc_ex.c ****       /* Clear the Tamper2 interrupt pending bit */
 799:Drivers/STM32L0xx_HAL_Driver/Src/stm32l0xx_hal_rtc_ex.c ****       __HAL_RTC_TAMPER_CLEAR_FLAG(hrtc, RTC_FLAG_TAMP2F);
 800:Drivers/STM32L0xx_HAL_Driver/Src/stm32l0xx_hal_rtc_ex.c ****     }
 801:Drivers/STM32L0xx_HAL_Driver/Src/stm32l0xx_hal_rtc_ex.c ****   }
 802:Drivers/STM32L0xx_HAL_Driver/Src/stm32l0xx_hal_rtc_ex.c **** 
 803:Drivers/STM32L0xx_HAL_Driver/Src/stm32l0xx_hal_rtc_ex.c **** #if defined (STM32L083xx) || defined (STM32L082xx) || defined (STM32L081xx) || \
ARM GAS  /var/folders/2m/zqg86yyd4hbf56w83tkxjpvr0000gn/T//ccxnAkOG.s 			page 32


 804:Drivers/STM32L0xx_HAL_Driver/Src/stm32l0xx_hal_rtc_ex.c ****     defined (STM32L073xx) || defined (STM32L072xx) || defined (STM32L071xx) || \
 805:Drivers/STM32L0xx_HAL_Driver/Src/stm32l0xx_hal_rtc_ex.c ****     defined (STM32L031xx) || defined (STM32L041xx) || defined (STM32L011xx) || defined (STM32L021xx
 806:Drivers/STM32L0xx_HAL_Driver/Src/stm32l0xx_hal_rtc_ex.c ****     
 807:Drivers/STM32L0xx_HAL_Driver/Src/stm32l0xx_hal_rtc_ex.c ****   /* Get the Tamper3 interrupts source enable status */
 808:Drivers/STM32L0xx_HAL_Driver/Src/stm32l0xx_hal_rtc_ex.c ****   if(__HAL_RTC_TAMPER_GET_IT_SOURCE(hrtc, RTC_IT_TAMP | RTC_IT_TAMP3) != RESET)
 809:Drivers/STM32L0xx_HAL_Driver/Src/stm32l0xx_hal_rtc_ex.c ****   {
 810:Drivers/STM32L0xx_HAL_Driver/Src/stm32l0xx_hal_rtc_ex.c ****     /* Get the pending status of the Tamper3 Interrupt */
 811:Drivers/STM32L0xx_HAL_Driver/Src/stm32l0xx_hal_rtc_ex.c ****     if(__HAL_RTC_TAMPER_GET_FLAG(hrtc, RTC_FLAG_TAMP3F) != RESET)
 812:Drivers/STM32L0xx_HAL_Driver/Src/stm32l0xx_hal_rtc_ex.c ****     {
 813:Drivers/STM32L0xx_HAL_Driver/Src/stm32l0xx_hal_rtc_ex.c ****       /* Tamper3 callback */
 814:Drivers/STM32L0xx_HAL_Driver/Src/stm32l0xx_hal_rtc_ex.c ****       HAL_RTCEx_Tamper3EventCallback(hrtc);
 815:Drivers/STM32L0xx_HAL_Driver/Src/stm32l0xx_hal_rtc_ex.c **** 
 816:Drivers/STM32L0xx_HAL_Driver/Src/stm32l0xx_hal_rtc_ex.c ****       /* Clear the Tamper3 interrupt pending bit */
 817:Drivers/STM32L0xx_HAL_Driver/Src/stm32l0xx_hal_rtc_ex.c ****       __HAL_RTC_TAMPER_CLEAR_FLAG(hrtc, RTC_FLAG_TAMP3F);
 818:Drivers/STM32L0xx_HAL_Driver/Src/stm32l0xx_hal_rtc_ex.c ****     }
 819:Drivers/STM32L0xx_HAL_Driver/Src/stm32l0xx_hal_rtc_ex.c ****   }
 820:Drivers/STM32L0xx_HAL_Driver/Src/stm32l0xx_hal_rtc_ex.c ****   
 821:Drivers/STM32L0xx_HAL_Driver/Src/stm32l0xx_hal_rtc_ex.c **** #endif /* (STM32L083xx) || (STM32L082xx) || (STM32L081xx) ||
 822:Drivers/STM32L0xx_HAL_Driver/Src/stm32l0xx_hal_rtc_ex.c ****         * (STM32L073xx) || (STM32L072xx) || (STM32L071xx) || (STM32L031xx) || (STM32L041xx) ||
 823:Drivers/STM32L0xx_HAL_Driver/Src/stm32l0xx_hal_rtc_ex.c **** 	    * (STM32L011xx) || (STM32L021xx)
 824:Drivers/STM32L0xx_HAL_Driver/Src/stm32l0xx_hal_rtc_ex.c ****         */
 825:Drivers/STM32L0xx_HAL_Driver/Src/stm32l0xx_hal_rtc_ex.c **** 
 826:Drivers/STM32L0xx_HAL_Driver/Src/stm32l0xx_hal_rtc_ex.c ****   /* Clear the EXTI's Flag for RTC TimeStamp and Tamper */
 827:Drivers/STM32L0xx_HAL_Driver/Src/stm32l0xx_hal_rtc_ex.c ****   __HAL_RTC_TAMPER_TIMESTAMP_EXTI_CLEAR_FLAG();
 828:Drivers/STM32L0xx_HAL_Driver/Src/stm32l0xx_hal_rtc_ex.c **** 
 829:Drivers/STM32L0xx_HAL_Driver/Src/stm32l0xx_hal_rtc_ex.c ****   /* Change RTC state */
 830:Drivers/STM32L0xx_HAL_Driver/Src/stm32l0xx_hal_rtc_ex.c ****   hrtc->State = HAL_RTC_STATE_READY;
 831:Drivers/STM32L0xx_HAL_Driver/Src/stm32l0xx_hal_rtc_ex.c **** }
 832:Drivers/STM32L0xx_HAL_Driver/Src/stm32l0xx_hal_rtc_ex.c **** 
 833:Drivers/STM32L0xx_HAL_Driver/Src/stm32l0xx_hal_rtc_ex.c **** /**
 834:Drivers/STM32L0xx_HAL_Driver/Src/stm32l0xx_hal_rtc_ex.c ****   * @brief  TimeStamp callback. 
 835:Drivers/STM32L0xx_HAL_Driver/Src/stm32l0xx_hal_rtc_ex.c ****   * @param  hrtc: RTC handle
 836:Drivers/STM32L0xx_HAL_Driver/Src/stm32l0xx_hal_rtc_ex.c ****   * @retval None
 837:Drivers/STM32L0xx_HAL_Driver/Src/stm32l0xx_hal_rtc_ex.c ****   */
 838:Drivers/STM32L0xx_HAL_Driver/Src/stm32l0xx_hal_rtc_ex.c **** __weak void HAL_RTCEx_TimeStampEventCallback(RTC_HandleTypeDef *hrtc)
 839:Drivers/STM32L0xx_HAL_Driver/Src/stm32l0xx_hal_rtc_ex.c **** {
 964              		.loc 1 839 0
 965              		.cfi_startproc
 966              		@ args = 0, pretend = 0, frame = 0
 967              		@ frame_needed = 0, uses_anonymous_args = 0
 968              		@ link register save eliminated.
 969              	.LVL70:
 840:Drivers/STM32L0xx_HAL_Driver/Src/stm32l0xx_hal_rtc_ex.c ****   /* Prevent unused argument(s) compilation warning */
 841:Drivers/STM32L0xx_HAL_Driver/Src/stm32l0xx_hal_rtc_ex.c ****   UNUSED(hrtc);
 842:Drivers/STM32L0xx_HAL_Driver/Src/stm32l0xx_hal_rtc_ex.c **** 
 843:Drivers/STM32L0xx_HAL_Driver/Src/stm32l0xx_hal_rtc_ex.c ****   /* NOTE : This function should not be modified, when the callback is needed,
 844:Drivers/STM32L0xx_HAL_Driver/Src/stm32l0xx_hal_rtc_ex.c ****             the HAL_RTCEx_TimeStampEventCallback could be implemented in the user file
 845:Drivers/STM32L0xx_HAL_Driver/Src/stm32l0xx_hal_rtc_ex.c ****   */
 846:Drivers/STM32L0xx_HAL_Driver/Src/stm32l0xx_hal_rtc_ex.c **** }
 970              		.loc 1 846 0
 971              		@ sp needed
 972 0000 7047     		bx	lr
 973              		.cfi_endproc
 974              	.LFE47:
 976              		.section	.text.HAL_RTCEx_Tamper1EventCallback,"ax",%progbits
 977              		.align	1
 978              		.weak	HAL_RTCEx_Tamper1EventCallback
ARM GAS  /var/folders/2m/zqg86yyd4hbf56w83tkxjpvr0000gn/T//ccxnAkOG.s 			page 33


 979              		.syntax unified
 980              		.code	16
 981              		.thumb_func
 982              		.fpu softvfp
 984              	HAL_RTCEx_Tamper1EventCallback:
 985              	.LFB48:
 847:Drivers/STM32L0xx_HAL_Driver/Src/stm32l0xx_hal_rtc_ex.c **** 
 848:Drivers/STM32L0xx_HAL_Driver/Src/stm32l0xx_hal_rtc_ex.c **** /**
 849:Drivers/STM32L0xx_HAL_Driver/Src/stm32l0xx_hal_rtc_ex.c ****   * @brief  Tamper 1 callback.
 850:Drivers/STM32L0xx_HAL_Driver/Src/stm32l0xx_hal_rtc_ex.c ****   * @param  hrtc: RTC handle
 851:Drivers/STM32L0xx_HAL_Driver/Src/stm32l0xx_hal_rtc_ex.c ****   * @retval None
 852:Drivers/STM32L0xx_HAL_Driver/Src/stm32l0xx_hal_rtc_ex.c ****   */
 853:Drivers/STM32L0xx_HAL_Driver/Src/stm32l0xx_hal_rtc_ex.c **** __weak void HAL_RTCEx_Tamper1EventCallback(RTC_HandleTypeDef *hrtc)
 854:Drivers/STM32L0xx_HAL_Driver/Src/stm32l0xx_hal_rtc_ex.c **** {
 986              		.loc 1 854 0
 987              		.cfi_startproc
 988              		@ args = 0, pretend = 0, frame = 0
 989              		@ frame_needed = 0, uses_anonymous_args = 0
 990              		@ link register save eliminated.
 991              	.LVL71:
 855:Drivers/STM32L0xx_HAL_Driver/Src/stm32l0xx_hal_rtc_ex.c ****   /* Prevent unused argument(s) compilation warning */
 856:Drivers/STM32L0xx_HAL_Driver/Src/stm32l0xx_hal_rtc_ex.c ****   UNUSED(hrtc);
 857:Drivers/STM32L0xx_HAL_Driver/Src/stm32l0xx_hal_rtc_ex.c **** 
 858:Drivers/STM32L0xx_HAL_Driver/Src/stm32l0xx_hal_rtc_ex.c ****   /* NOTE : This function should not be modified, when the callback is needed,
 859:Drivers/STM32L0xx_HAL_Driver/Src/stm32l0xx_hal_rtc_ex.c ****             the HAL_RTCEx_Tamper1EventCallback could be implemented in the user file
 860:Drivers/STM32L0xx_HAL_Driver/Src/stm32l0xx_hal_rtc_ex.c ****    */
 861:Drivers/STM32L0xx_HAL_Driver/Src/stm32l0xx_hal_rtc_ex.c **** }
 992              		.loc 1 861 0
 993              		@ sp needed
 994 0000 7047     		bx	lr
 995              		.cfi_endproc
 996              	.LFE48:
 998              		.section	.text.HAL_RTCEx_Tamper2EventCallback,"ax",%progbits
 999              		.align	1
 1000              		.weak	HAL_RTCEx_Tamper2EventCallback
 1001              		.syntax unified
 1002              		.code	16
 1003              		.thumb_func
 1004              		.fpu softvfp
 1006              	HAL_RTCEx_Tamper2EventCallback:
 1007              	.LFB49:
 862:Drivers/STM32L0xx_HAL_Driver/Src/stm32l0xx_hal_rtc_ex.c **** 
 863:Drivers/STM32L0xx_HAL_Driver/Src/stm32l0xx_hal_rtc_ex.c **** /**
 864:Drivers/STM32L0xx_HAL_Driver/Src/stm32l0xx_hal_rtc_ex.c ****   * @brief  Tamper 2 callback. 
 865:Drivers/STM32L0xx_HAL_Driver/Src/stm32l0xx_hal_rtc_ex.c ****   * @param  hrtc: RTC handle
 866:Drivers/STM32L0xx_HAL_Driver/Src/stm32l0xx_hal_rtc_ex.c ****   * @retval None
 867:Drivers/STM32L0xx_HAL_Driver/Src/stm32l0xx_hal_rtc_ex.c ****   */
 868:Drivers/STM32L0xx_HAL_Driver/Src/stm32l0xx_hal_rtc_ex.c **** __weak void HAL_RTCEx_Tamper2EventCallback(RTC_HandleTypeDef *hrtc)
 869:Drivers/STM32L0xx_HAL_Driver/Src/stm32l0xx_hal_rtc_ex.c **** {
 1008              		.loc 1 869 0
 1009              		.cfi_startproc
 1010              		@ args = 0, pretend = 0, frame = 0
 1011              		@ frame_needed = 0, uses_anonymous_args = 0
 1012              		@ link register save eliminated.
 1013              	.LVL72:
 870:Drivers/STM32L0xx_HAL_Driver/Src/stm32l0xx_hal_rtc_ex.c ****   /* Prevent unused argument(s) compilation warning */
 871:Drivers/STM32L0xx_HAL_Driver/Src/stm32l0xx_hal_rtc_ex.c ****   UNUSED(hrtc);
ARM GAS  /var/folders/2m/zqg86yyd4hbf56w83tkxjpvr0000gn/T//ccxnAkOG.s 			page 34


 872:Drivers/STM32L0xx_HAL_Driver/Src/stm32l0xx_hal_rtc_ex.c **** 
 873:Drivers/STM32L0xx_HAL_Driver/Src/stm32l0xx_hal_rtc_ex.c ****   /* NOTE : This function should not be modified, when the callback is needed,
 874:Drivers/STM32L0xx_HAL_Driver/Src/stm32l0xx_hal_rtc_ex.c ****             the HAL_RTCEx_Tamper2EventCallback could be implemented in the user file
 875:Drivers/STM32L0xx_HAL_Driver/Src/stm32l0xx_hal_rtc_ex.c ****    */
 876:Drivers/STM32L0xx_HAL_Driver/Src/stm32l0xx_hal_rtc_ex.c **** }
 1014              		.loc 1 876 0
 1015              		@ sp needed
 1016 0000 7047     		bx	lr
 1017              		.cfi_endproc
 1018              	.LFE49:
 1020              		.section	.text.HAL_RTCEx_Tamper3EventCallback,"ax",%progbits
 1021              		.align	1
 1022              		.weak	HAL_RTCEx_Tamper3EventCallback
 1023              		.syntax unified
 1024              		.code	16
 1025              		.thumb_func
 1026              		.fpu softvfp
 1028              	HAL_RTCEx_Tamper3EventCallback:
 1029              	.LFB50:
 877:Drivers/STM32L0xx_HAL_Driver/Src/stm32l0xx_hal_rtc_ex.c **** 
 878:Drivers/STM32L0xx_HAL_Driver/Src/stm32l0xx_hal_rtc_ex.c **** 
 879:Drivers/STM32L0xx_HAL_Driver/Src/stm32l0xx_hal_rtc_ex.c **** #if defined (STM32L083xx) || defined (STM32L082xx) || defined (STM32L081xx) || \
 880:Drivers/STM32L0xx_HAL_Driver/Src/stm32l0xx_hal_rtc_ex.c ****     defined (STM32L073xx) || defined (STM32L072xx) || defined (STM32L071xx) || \
 881:Drivers/STM32L0xx_HAL_Driver/Src/stm32l0xx_hal_rtc_ex.c ****     defined (STM32L031xx) || defined (STM32L041xx) || defined (STM32L011xx) || defined (STM32L021xx
 882:Drivers/STM32L0xx_HAL_Driver/Src/stm32l0xx_hal_rtc_ex.c ****     
 883:Drivers/STM32L0xx_HAL_Driver/Src/stm32l0xx_hal_rtc_ex.c **** /**
 884:Drivers/STM32L0xx_HAL_Driver/Src/stm32l0xx_hal_rtc_ex.c ****   * @brief  Tamper 3 callback. 
 885:Drivers/STM32L0xx_HAL_Driver/Src/stm32l0xx_hal_rtc_ex.c ****   * @param  hrtc: RTC handle
 886:Drivers/STM32L0xx_HAL_Driver/Src/stm32l0xx_hal_rtc_ex.c ****   * @retval None
 887:Drivers/STM32L0xx_HAL_Driver/Src/stm32l0xx_hal_rtc_ex.c ****   */
 888:Drivers/STM32L0xx_HAL_Driver/Src/stm32l0xx_hal_rtc_ex.c **** __weak void HAL_RTCEx_Tamper3EventCallback(RTC_HandleTypeDef *hrtc)
 889:Drivers/STM32L0xx_HAL_Driver/Src/stm32l0xx_hal_rtc_ex.c **** {
 1030              		.loc 1 889 0
 1031              		.cfi_startproc
 1032              		@ args = 0, pretend = 0, frame = 0
 1033              		@ frame_needed = 0, uses_anonymous_args = 0
 1034              		@ link register save eliminated.
 1035              	.LVL73:
 890:Drivers/STM32L0xx_HAL_Driver/Src/stm32l0xx_hal_rtc_ex.c ****   /* Prevent unused argument(s) compilation warning */
 891:Drivers/STM32L0xx_HAL_Driver/Src/stm32l0xx_hal_rtc_ex.c ****   UNUSED(hrtc);
 892:Drivers/STM32L0xx_HAL_Driver/Src/stm32l0xx_hal_rtc_ex.c **** 
 893:Drivers/STM32L0xx_HAL_Driver/Src/stm32l0xx_hal_rtc_ex.c ****   /* NOTE : This function should not be modified, when the callback is needed,
 894:Drivers/STM32L0xx_HAL_Driver/Src/stm32l0xx_hal_rtc_ex.c ****             the HAL_RTCEx_Tamper3EventCallback could be implemented in the user file
 895:Drivers/STM32L0xx_HAL_Driver/Src/stm32l0xx_hal_rtc_ex.c ****    */
 896:Drivers/STM32L0xx_HAL_Driver/Src/stm32l0xx_hal_rtc_ex.c **** }
 1036              		.loc 1 896 0
 1037              		@ sp needed
 1038 0000 7047     		bx	lr
 1039              		.cfi_endproc
 1040              	.LFE50:
 1042              		.section	.text.HAL_RTCEx_TamperTimeStampIRQHandler,"ax",%progbits
 1043              		.align	1
 1044              		.global	HAL_RTCEx_TamperTimeStampIRQHandler
 1045              		.syntax unified
 1046              		.code	16
 1047              		.thumb_func
 1048              		.fpu softvfp
ARM GAS  /var/folders/2m/zqg86yyd4hbf56w83tkxjpvr0000gn/T//ccxnAkOG.s 			page 35


 1050              	HAL_RTCEx_TamperTimeStampIRQHandler:
 1051              	.LFB46:
 748:Drivers/STM32L0xx_HAL_Driver/Src/stm32l0xx_hal_rtc_ex.c ****   /* Get the TimeStamp interrupt source enable status */
 1052              		.loc 1 748 0
 1053              		.cfi_startproc
 1054              		@ args = 0, pretend = 0, frame = 0
 1055              		@ frame_needed = 0, uses_anonymous_args = 0
 1056              	.LVL74:
 1057 0000 10B5     		push	{r4, lr}
 1058              	.LCFI8:
 1059              		.cfi_def_cfa_offset 8
 1060              		.cfi_offset 4, -8
 1061              		.cfi_offset 14, -4
 1062 0002 0400     		movs	r4, r0
 750:Drivers/STM32L0xx_HAL_Driver/Src/stm32l0xx_hal_rtc_ex.c ****   {
 1063              		.loc 1 750 0
 1064 0004 0368     		ldr	r3, [r0]
 1065 0006 9A68     		ldr	r2, [r3, #8]
 1066 0008 1204     		lsls	r2, r2, #16
 1067 000a 02D5     		bpl	.L58
 753:Drivers/STM32L0xx_HAL_Driver/Src/stm32l0xx_hal_rtc_ex.c ****     {
 1068              		.loc 1 753 0
 1069 000c DB68     		ldr	r3, [r3, #12]
 1070 000e 1B05     		lsls	r3, r3, #20
 1071 0010 1FD4     		bmi	.L62
 1072              	.LVL75:
 1073              	.L58:
 770:Drivers/STM32L0xx_HAL_Driver/Src/stm32l0xx_hal_rtc_ex.c ****   {
 1074              		.loc 1 770 0
 1075 0012 2368     		ldr	r3, [r4]
 1076 0014 196C     		ldr	r1, [r3, #64]
 1077 0016 244A     		ldr	r2, .L66
 1078 0018 1142     		tst	r1, r2
 1079 001a 02D0     		beq	.L59
 773:Drivers/STM32L0xx_HAL_Driver/Src/stm32l0xx_hal_rtc_ex.c ****     {
 1080              		.loc 1 773 0
 1081 001c DB68     		ldr	r3, [r3, #12]
 1082 001e 9B04     		lsls	r3, r3, #18
 1083 0020 21D4     		bmi	.L63
 1084              	.L59:
 790:Drivers/STM32L0xx_HAL_Driver/Src/stm32l0xx_hal_rtc_ex.c ****   {
 1085              		.loc 1 790 0
 1086 0022 2368     		ldr	r3, [r4]
 1087 0024 196C     		ldr	r1, [r3, #64]
 1088 0026 214A     		ldr	r2, .L66+4
 1089 0028 1142     		tst	r1, r2
 1090 002a 02D0     		beq	.L60
 793:Drivers/STM32L0xx_HAL_Driver/Src/stm32l0xx_hal_rtc_ex.c ****     {
 1091              		.loc 1 793 0
 1092 002c DB68     		ldr	r3, [r3, #12]
 1093 002e 5B04     		lsls	r3, r3, #17
 1094 0030 24D4     		bmi	.L64
 1095              	.L60:
 808:Drivers/STM32L0xx_HAL_Driver/Src/stm32l0xx_hal_rtc_ex.c ****   {
 1096              		.loc 1 808 0
 1097 0032 2368     		ldr	r3, [r4]
 1098 0034 196C     		ldr	r1, [r3, #64]
ARM GAS  /var/folders/2m/zqg86yyd4hbf56w83tkxjpvr0000gn/T//ccxnAkOG.s 			page 36


 1099 0036 1E4A     		ldr	r2, .L66+8
 1100 0038 1142     		tst	r1, r2
 1101 003a 02D0     		beq	.L61
 811:Drivers/STM32L0xx_HAL_Driver/Src/stm32l0xx_hal_rtc_ex.c ****     {
 1102              		.loc 1 811 0
 1103 003c DB68     		ldr	r3, [r3, #12]
 1104 003e 1B04     		lsls	r3, r3, #16
 1105 0040 27D4     		bmi	.L65
 1106              	.L61:
 827:Drivers/STM32L0xx_HAL_Driver/Src/stm32l0xx_hal_rtc_ex.c **** 
 1107              		.loc 1 827 0
 1108 0042 1C4B     		ldr	r3, .L66+12
 1109 0044 8022     		movs	r2, #128
 1110 0046 1203     		lsls	r2, r2, #12
 1111 0048 5A61     		str	r2, [r3, #20]
 830:Drivers/STM32L0xx_HAL_Driver/Src/stm32l0xx_hal_rtc_ex.c **** }
 1112              		.loc 1 830 0
 1113 004a 2123     		movs	r3, #33
 1114 004c 0122     		movs	r2, #1
 1115 004e E254     		strb	r2, [r4, r3]
 831:Drivers/STM32L0xx_HAL_Driver/Src/stm32l0xx_hal_rtc_ex.c **** 
 1116              		.loc 1 831 0
 1117              		@ sp needed
 1118              	.LVL76:
 1119 0050 10BD     		pop	{r4, pc}
 1120              	.LVL77:
 1121              	.L62:
 756:Drivers/STM32L0xx_HAL_Driver/Src/stm32l0xx_hal_rtc_ex.c ****       
 1122              		.loc 1 756 0
 1123 0052 FFF7FEFF 		bl	HAL_RTCEx_TimeStampEventCallback
 1124              	.LVL78:
 759:Drivers/STM32L0xx_HAL_Driver/Src/stm32l0xx_hal_rtc_ex.c ****     }
 1125              		.loc 1 759 0
 1126 0056 2168     		ldr	r1, [r4]
 1127 0058 CA68     		ldr	r2, [r1, #12]
 1128 005a FF23     		movs	r3, #255
 1129 005c 1A40     		ands	r2, r3
 1130 005e 164B     		ldr	r3, .L66+16
 1131 0060 1343     		orrs	r3, r2
 1132 0062 CB60     		str	r3, [r1, #12]
 1133 0064 D5E7     		b	.L58
 1134              	.L63:
 776:Drivers/STM32L0xx_HAL_Driver/Src/stm32l0xx_hal_rtc_ex.c **** 
 1135              		.loc 1 776 0
 1136 0066 2000     		movs	r0, r4
 1137 0068 FFF7FEFF 		bl	HAL_RTCEx_Tamper1EventCallback
 1138              	.LVL79:
 779:Drivers/STM32L0xx_HAL_Driver/Src/stm32l0xx_hal_rtc_ex.c ****     }
 1139              		.loc 1 779 0
 1140 006c 2168     		ldr	r1, [r4]
 1141 006e CA68     		ldr	r2, [r1, #12]
 1142 0070 FF23     		movs	r3, #255
 1143 0072 1A40     		ands	r2, r3
 1144 0074 114B     		ldr	r3, .L66+20
 1145 0076 1343     		orrs	r3, r2
 1146 0078 CB60     		str	r3, [r1, #12]
 1147 007a D2E7     		b	.L59
ARM GAS  /var/folders/2m/zqg86yyd4hbf56w83tkxjpvr0000gn/T//ccxnAkOG.s 			page 37


 1148              	.L64:
 796:Drivers/STM32L0xx_HAL_Driver/Src/stm32l0xx_hal_rtc_ex.c **** 
 1149              		.loc 1 796 0
 1150 007c 2000     		movs	r0, r4
 1151 007e FFF7FEFF 		bl	HAL_RTCEx_Tamper2EventCallback
 1152              	.LVL80:
 799:Drivers/STM32L0xx_HAL_Driver/Src/stm32l0xx_hal_rtc_ex.c ****     }
 1153              		.loc 1 799 0
 1154 0082 2168     		ldr	r1, [r4]
 1155 0084 CA68     		ldr	r2, [r1, #12]
 1156 0086 FF23     		movs	r3, #255
 1157 0088 1A40     		ands	r2, r3
 1158 008a 0D4B     		ldr	r3, .L66+24
 1159 008c 1343     		orrs	r3, r2
 1160 008e CB60     		str	r3, [r1, #12]
 1161 0090 CFE7     		b	.L60
 1162              	.L65:
 814:Drivers/STM32L0xx_HAL_Driver/Src/stm32l0xx_hal_rtc_ex.c **** 
 1163              		.loc 1 814 0
 1164 0092 2000     		movs	r0, r4
 1165 0094 FFF7FEFF 		bl	HAL_RTCEx_Tamper3EventCallback
 1166              	.LVL81:
 817:Drivers/STM32L0xx_HAL_Driver/Src/stm32l0xx_hal_rtc_ex.c ****     }
 1167              		.loc 1 817 0
 1168 0098 2168     		ldr	r1, [r4]
 1169 009a CA68     		ldr	r2, [r1, #12]
 1170 009c FF23     		movs	r3, #255
 1171 009e 1A40     		ands	r2, r3
 1172 00a0 084B     		ldr	r3, .L66+28
 1173 00a2 1343     		orrs	r3, r2
 1174 00a4 CB60     		str	r3, [r1, #12]
 1175 00a6 CCE7     		b	.L61
 1176              	.L67:
 1177              		.align	2
 1178              	.L66:
 1179 00a8 04000100 		.word	65540
 1180 00ac 04000800 		.word	524292
 1181 00b0 04004000 		.word	4194308
 1182 00b4 00040140 		.word	1073808384
 1183 00b8 7FF7FFFF 		.word	-2177
 1184 00bc 7FDFFFFF 		.word	-8321
 1185 00c0 7FBFFFFF 		.word	-16513
 1186 00c4 7F7FFFFF 		.word	-32897
 1187              		.cfi_endproc
 1188              	.LFE46:
 1190              		.section	.text.HAL_RTCEx_PollForTimeStampEvent,"ax",%progbits
 1191              		.align	1
 1192              		.global	HAL_RTCEx_PollForTimeStampEvent
 1193              		.syntax unified
 1194              		.code	16
 1195              		.thumb_func
 1196              		.fpu softvfp
 1198              	HAL_RTCEx_PollForTimeStampEvent:
 1199              	.LFB51:
 897:Drivers/STM32L0xx_HAL_Driver/Src/stm32l0xx_hal_rtc_ex.c **** 
 898:Drivers/STM32L0xx_HAL_Driver/Src/stm32l0xx_hal_rtc_ex.c **** #endif /* (STM32L083xx) || (STM32L082xx) || (STM32L081xx) ||
 899:Drivers/STM32L0xx_HAL_Driver/Src/stm32l0xx_hal_rtc_ex.c ****     * (STM32L073xx) || (STM32L072xx) || (STM32L071xx) || (STM32L031xx) || (STM32L041xx) || (STM32L0
ARM GAS  /var/folders/2m/zqg86yyd4hbf56w83tkxjpvr0000gn/T//ccxnAkOG.s 			page 38


 900:Drivers/STM32L0xx_HAL_Driver/Src/stm32l0xx_hal_rtc_ex.c ****     */
 901:Drivers/STM32L0xx_HAL_Driver/Src/stm32l0xx_hal_rtc_ex.c **** 
 902:Drivers/STM32L0xx_HAL_Driver/Src/stm32l0xx_hal_rtc_ex.c **** 
 903:Drivers/STM32L0xx_HAL_Driver/Src/stm32l0xx_hal_rtc_ex.c **** /**
 904:Drivers/STM32L0xx_HAL_Driver/Src/stm32l0xx_hal_rtc_ex.c ****   * @brief  Handle TimeStamp polling request.
 905:Drivers/STM32L0xx_HAL_Driver/Src/stm32l0xx_hal_rtc_ex.c ****   * @param  hrtc: RTC handle
 906:Drivers/STM32L0xx_HAL_Driver/Src/stm32l0xx_hal_rtc_ex.c ****   * @param  Timeout: Timeout duration
 907:Drivers/STM32L0xx_HAL_Driver/Src/stm32l0xx_hal_rtc_ex.c ****   * @retval HAL status
 908:Drivers/STM32L0xx_HAL_Driver/Src/stm32l0xx_hal_rtc_ex.c ****   */
 909:Drivers/STM32L0xx_HAL_Driver/Src/stm32l0xx_hal_rtc_ex.c **** HAL_StatusTypeDef HAL_RTCEx_PollForTimeStampEvent(RTC_HandleTypeDef *hrtc, uint32_t Timeout)
 910:Drivers/STM32L0xx_HAL_Driver/Src/stm32l0xx_hal_rtc_ex.c **** { 
 1200              		.loc 1 910 0
 1201              		.cfi_startproc
 1202              		@ args = 0, pretend = 0, frame = 0
 1203              		@ frame_needed = 0, uses_anonymous_args = 0
 1204              	.LVL82:
 1205 0000 70B5     		push	{r4, r5, r6, lr}
 1206              	.LCFI9:
 1207              		.cfi_def_cfa_offset 16
 1208              		.cfi_offset 4, -16
 1209              		.cfi_offset 5, -12
 1210              		.cfi_offset 6, -8
 1211              		.cfi_offset 14, -4
 1212 0002 0500     		movs	r5, r0
 1213 0004 0E00     		movs	r6, r1
 911:Drivers/STM32L0xx_HAL_Driver/Src/stm32l0xx_hal_rtc_ex.c ****   uint32_t tickstart = HAL_GetTick();
 1214              		.loc 1 911 0
 1215 0006 FFF7FEFF 		bl	HAL_GetTick
 1216              	.LVL83:
 1217 000a 0400     		movs	r4, r0
 1218              	.LVL84:
 1219              	.L72:
 912:Drivers/STM32L0xx_HAL_Driver/Src/stm32l0xx_hal_rtc_ex.c **** 
 913:Drivers/STM32L0xx_HAL_Driver/Src/stm32l0xx_hal_rtc_ex.c ****   while(__HAL_RTC_TIMESTAMP_GET_FLAG(hrtc, RTC_FLAG_TSF) == RESET)
 1220              		.loc 1 913 0
 1221 000c 2B68     		ldr	r3, [r5]
 1222 000e DA68     		ldr	r2, [r3, #12]
 1223 0010 1205     		lsls	r2, r2, #20
 1224 0012 1BD4     		bmi	.L75
 914:Drivers/STM32L0xx_HAL_Driver/Src/stm32l0xx_hal_rtc_ex.c ****   {
 915:Drivers/STM32L0xx_HAL_Driver/Src/stm32l0xx_hal_rtc_ex.c ****     if(__HAL_RTC_TIMESTAMP_GET_FLAG(hrtc, RTC_FLAG_TSOVF) != RESET)
 1225              		.loc 1 915 0
 1226 0014 DA68     		ldr	r2, [r3, #12]
 1227 0016 D204     		lsls	r2, r2, #19
 1228 0018 0DD4     		bmi	.L76
 916:Drivers/STM32L0xx_HAL_Driver/Src/stm32l0xx_hal_rtc_ex.c ****     {
 917:Drivers/STM32L0xx_HAL_Driver/Src/stm32l0xx_hal_rtc_ex.c ****       /* Clear the TIMESTAMP OverRun Flag */
 918:Drivers/STM32L0xx_HAL_Driver/Src/stm32l0xx_hal_rtc_ex.c ****       __HAL_RTC_TIMESTAMP_CLEAR_FLAG(hrtc, RTC_FLAG_TSOVF);
 919:Drivers/STM32L0xx_HAL_Driver/Src/stm32l0xx_hal_rtc_ex.c **** 
 920:Drivers/STM32L0xx_HAL_Driver/Src/stm32l0xx_hal_rtc_ex.c ****       /* Change TIMESTAMP state */
 921:Drivers/STM32L0xx_HAL_Driver/Src/stm32l0xx_hal_rtc_ex.c ****       hrtc->State = HAL_RTC_STATE_ERROR; 
 922:Drivers/STM32L0xx_HAL_Driver/Src/stm32l0xx_hal_rtc_ex.c **** 
 923:Drivers/STM32L0xx_HAL_Driver/Src/stm32l0xx_hal_rtc_ex.c ****       return HAL_ERROR; 
 924:Drivers/STM32L0xx_HAL_Driver/Src/stm32l0xx_hal_rtc_ex.c ****     }
 925:Drivers/STM32L0xx_HAL_Driver/Src/stm32l0xx_hal_rtc_ex.c **** 
 926:Drivers/STM32L0xx_HAL_Driver/Src/stm32l0xx_hal_rtc_ex.c ****     if(Timeout != HAL_MAX_DELAY)
 1229              		.loc 1 926 0
ARM GAS  /var/folders/2m/zqg86yyd4hbf56w83tkxjpvr0000gn/T//ccxnAkOG.s 			page 39


 1230 001a 731C     		adds	r3, r6, #1
 1231 001c F6D0     		beq	.L72
 927:Drivers/STM32L0xx_HAL_Driver/Src/stm32l0xx_hal_rtc_ex.c ****     {
 928:Drivers/STM32L0xx_HAL_Driver/Src/stm32l0xx_hal_rtc_ex.c ****       if((Timeout == 0U)||((HAL_GetTick() - tickstart ) > Timeout))
 1232              		.loc 1 928 0
 1233 001e 002E     		cmp	r6, #0
 1234 0020 04D0     		beq	.L73
 1235              		.loc 1 928 0 is_stmt 0 discriminator 1
 1236 0022 FFF7FEFF 		bl	HAL_GetTick
 1237              	.LVL85:
 1238 0026 001B     		subs	r0, r0, r4
 1239 0028 B042     		cmp	r0, r6
 1240 002a EFD9     		bls	.L72
 1241              	.L73:
 929:Drivers/STM32L0xx_HAL_Driver/Src/stm32l0xx_hal_rtc_ex.c ****       {
 930:Drivers/STM32L0xx_HAL_Driver/Src/stm32l0xx_hal_rtc_ex.c ****         hrtc->State = HAL_RTC_STATE_TIMEOUT;
 1242              		.loc 1 930 0 is_stmt 1
 1243 002c 2123     		movs	r3, #33
 1244 002e 0322     		movs	r2, #3
 1245 0030 EA54     		strb	r2, [r5, r3]
 931:Drivers/STM32L0xx_HAL_Driver/Src/stm32l0xx_hal_rtc_ex.c ****         return HAL_TIMEOUT;
 1246              		.loc 1 931 0
 1247 0032 0320     		movs	r0, #3
 1248 0034 0EE0     		b	.L71
 1249              	.L76:
 918:Drivers/STM32L0xx_HAL_Driver/Src/stm32l0xx_hal_rtc_ex.c **** 
 1250              		.loc 1 918 0
 1251 0036 D968     		ldr	r1, [r3, #12]
 1252 0038 FF22     		movs	r2, #255
 1253 003a 1140     		ands	r1, r2
 1254 003c 064A     		ldr	r2, .L77
 1255 003e 0A43     		orrs	r2, r1
 1256 0040 DA60     		str	r2, [r3, #12]
 921:Drivers/STM32L0xx_HAL_Driver/Src/stm32l0xx_hal_rtc_ex.c **** 
 1257              		.loc 1 921 0
 1258 0042 2123     		movs	r3, #33
 1259 0044 0422     		movs	r2, #4
 1260 0046 EA54     		strb	r2, [r5, r3]
 923:Drivers/STM32L0xx_HAL_Driver/Src/stm32l0xx_hal_rtc_ex.c ****     }
 1261              		.loc 1 923 0
 1262 0048 0120     		movs	r0, #1
 1263 004a 03E0     		b	.L71
 1264              	.L75:
 932:Drivers/STM32L0xx_HAL_Driver/Src/stm32l0xx_hal_rtc_ex.c ****       }
 933:Drivers/STM32L0xx_HAL_Driver/Src/stm32l0xx_hal_rtc_ex.c ****     }
 934:Drivers/STM32L0xx_HAL_Driver/Src/stm32l0xx_hal_rtc_ex.c ****   }
 935:Drivers/STM32L0xx_HAL_Driver/Src/stm32l0xx_hal_rtc_ex.c **** 
 936:Drivers/STM32L0xx_HAL_Driver/Src/stm32l0xx_hal_rtc_ex.c ****   /* Change RTC state */
 937:Drivers/STM32L0xx_HAL_Driver/Src/stm32l0xx_hal_rtc_ex.c ****   hrtc->State = HAL_RTC_STATE_READY;
 1265              		.loc 1 937 0
 1266 004c 2123     		movs	r3, #33
 1267 004e 0122     		movs	r2, #1
 1268 0050 EA54     		strb	r2, [r5, r3]
 938:Drivers/STM32L0xx_HAL_Driver/Src/stm32l0xx_hal_rtc_ex.c ****   
 939:Drivers/STM32L0xx_HAL_Driver/Src/stm32l0xx_hal_rtc_ex.c ****   return HAL_OK;
 1269              		.loc 1 939 0
 1270 0052 0020     		movs	r0, #0
ARM GAS  /var/folders/2m/zqg86yyd4hbf56w83tkxjpvr0000gn/T//ccxnAkOG.s 			page 40


 1271              	.L71:
 940:Drivers/STM32L0xx_HAL_Driver/Src/stm32l0xx_hal_rtc_ex.c **** }
 1272              		.loc 1 940 0
 1273              		@ sp needed
 1274              	.LVL86:
 1275              	.LVL87:
 1276              	.LVL88:
 1277 0054 70BD     		pop	{r4, r5, r6, pc}
 1278              	.L78:
 1279 0056 C046     		.align	2
 1280              	.L77:
 1281 0058 7FEFFFFF 		.word	-4225
 1282              		.cfi_endproc
 1283              	.LFE51:
 1285              		.section	.text.HAL_RTCEx_PollForTamper1Event,"ax",%progbits
 1286              		.align	1
 1287              		.global	HAL_RTCEx_PollForTamper1Event
 1288              		.syntax unified
 1289              		.code	16
 1290              		.thumb_func
 1291              		.fpu softvfp
 1293              	HAL_RTCEx_PollForTamper1Event:
 1294              	.LFB52:
 941:Drivers/STM32L0xx_HAL_Driver/Src/stm32l0xx_hal_rtc_ex.c **** 
 942:Drivers/STM32L0xx_HAL_Driver/Src/stm32l0xx_hal_rtc_ex.c **** #if defined (STM32L063xx) || defined (STM32L062xx) || defined (STM32L061xx) || \
 943:Drivers/STM32L0xx_HAL_Driver/Src/stm32l0xx_hal_rtc_ex.c ****     defined (STM32L053xx) || defined (STM32L052xx) || defined (STM32L051xx) ||\
 944:Drivers/STM32L0xx_HAL_Driver/Src/stm32l0xx_hal_rtc_ex.c ****     defined (STM32L083xx) || defined (STM32L082xx) || defined (STM32L081xx) || \
 945:Drivers/STM32L0xx_HAL_Driver/Src/stm32l0xx_hal_rtc_ex.c ****     defined (STM32L073xx) || defined (STM32L072xx) || defined (STM32L071xx) || \
 946:Drivers/STM32L0xx_HAL_Driver/Src/stm32l0xx_hal_rtc_ex.c ****     defined (STM32L031xx) || defined (STM32L041xx)
 947:Drivers/STM32L0xx_HAL_Driver/Src/stm32l0xx_hal_rtc_ex.c **** /**
 948:Drivers/STM32L0xx_HAL_Driver/Src/stm32l0xx_hal_rtc_ex.c ****   * @brief  Handle Tamper 1 Polling.
 949:Drivers/STM32L0xx_HAL_Driver/Src/stm32l0xx_hal_rtc_ex.c ****   * @param  hrtc: RTC handle
 950:Drivers/STM32L0xx_HAL_Driver/Src/stm32l0xx_hal_rtc_ex.c ****   * @param  Timeout: Timeout duration
 951:Drivers/STM32L0xx_HAL_Driver/Src/stm32l0xx_hal_rtc_ex.c ****   * @retval HAL status
 952:Drivers/STM32L0xx_HAL_Driver/Src/stm32l0xx_hal_rtc_ex.c ****   */
 953:Drivers/STM32L0xx_HAL_Driver/Src/stm32l0xx_hal_rtc_ex.c **** HAL_StatusTypeDef HAL_RTCEx_PollForTamper1Event(RTC_HandleTypeDef *hrtc, uint32_t Timeout)
 954:Drivers/STM32L0xx_HAL_Driver/Src/stm32l0xx_hal_rtc_ex.c **** {
 1295              		.loc 1 954 0
 1296              		.cfi_startproc
 1297              		@ args = 0, pretend = 0, frame = 0
 1298              		@ frame_needed = 0, uses_anonymous_args = 0
 1299              	.LVL89:
 1300 0000 70B5     		push	{r4, r5, r6, lr}
 1301              	.LCFI10:
 1302              		.cfi_def_cfa_offset 16
 1303              		.cfi_offset 4, -16
 1304              		.cfi_offset 5, -12
 1305              		.cfi_offset 6, -8
 1306              		.cfi_offset 14, -4
 1307 0002 0400     		movs	r4, r0
 1308 0004 0D00     		movs	r5, r1
 955:Drivers/STM32L0xx_HAL_Driver/Src/stm32l0xx_hal_rtc_ex.c ****   uint32_t tickstart = HAL_GetTick();
 1309              		.loc 1 955 0
 1310 0006 FFF7FEFF 		bl	HAL_GetTick
 1311              	.LVL90:
 1312 000a 0600     		movs	r6, r0
 1313              	.LVL91:
ARM GAS  /var/folders/2m/zqg86yyd4hbf56w83tkxjpvr0000gn/T//ccxnAkOG.s 			page 41


 1314              	.L81:
 956:Drivers/STM32L0xx_HAL_Driver/Src/stm32l0xx_hal_rtc_ex.c **** 
 957:Drivers/STM32L0xx_HAL_Driver/Src/stm32l0xx_hal_rtc_ex.c ****   /* Get the status of the Interrupt */
 958:Drivers/STM32L0xx_HAL_Driver/Src/stm32l0xx_hal_rtc_ex.c ****   while(__HAL_RTC_TAMPER_GET_FLAG(hrtc, RTC_FLAG_TAMP1F)== RESET)
 1315              		.loc 1 958 0
 1316 000c 2368     		ldr	r3, [r4]
 1317 000e DA68     		ldr	r2, [r3, #12]
 1318 0010 9204     		lsls	r2, r2, #18
 1319 0012 0DD4     		bmi	.L85
 959:Drivers/STM32L0xx_HAL_Driver/Src/stm32l0xx_hal_rtc_ex.c ****   {
 960:Drivers/STM32L0xx_HAL_Driver/Src/stm32l0xx_hal_rtc_ex.c ****     if(Timeout != HAL_MAX_DELAY)
 1320              		.loc 1 960 0
 1321 0014 6B1C     		adds	r3, r5, #1
 1322 0016 F9D0     		beq	.L81
 961:Drivers/STM32L0xx_HAL_Driver/Src/stm32l0xx_hal_rtc_ex.c ****     {
 962:Drivers/STM32L0xx_HAL_Driver/Src/stm32l0xx_hal_rtc_ex.c ****       if((Timeout == 0U)||((HAL_GetTick() - tickstart ) > Timeout))
 1323              		.loc 1 962 0
 1324 0018 002D     		cmp	r5, #0
 1325 001a 04D0     		beq	.L82
 1326              		.loc 1 962 0 is_stmt 0 discriminator 1
 1327 001c FFF7FEFF 		bl	HAL_GetTick
 1328              	.LVL92:
 1329 0020 801B     		subs	r0, r0, r6
 1330 0022 A842     		cmp	r0, r5
 1331 0024 F2D9     		bls	.L81
 1332              	.L82:
 963:Drivers/STM32L0xx_HAL_Driver/Src/stm32l0xx_hal_rtc_ex.c ****       {
 964:Drivers/STM32L0xx_HAL_Driver/Src/stm32l0xx_hal_rtc_ex.c ****         hrtc->State = HAL_RTC_STATE_TIMEOUT;
 1333              		.loc 1 964 0 is_stmt 1
 1334 0026 2123     		movs	r3, #33
 1335 0028 0322     		movs	r2, #3
 1336 002a E254     		strb	r2, [r4, r3]
 965:Drivers/STM32L0xx_HAL_Driver/Src/stm32l0xx_hal_rtc_ex.c ****         return HAL_TIMEOUT;
 1337              		.loc 1 965 0
 1338 002c 0320     		movs	r0, #3
 1339 002e 09E0     		b	.L83
 1340              	.L85:
 966:Drivers/STM32L0xx_HAL_Driver/Src/stm32l0xx_hal_rtc_ex.c ****       }
 967:Drivers/STM32L0xx_HAL_Driver/Src/stm32l0xx_hal_rtc_ex.c ****     }
 968:Drivers/STM32L0xx_HAL_Driver/Src/stm32l0xx_hal_rtc_ex.c ****   }
 969:Drivers/STM32L0xx_HAL_Driver/Src/stm32l0xx_hal_rtc_ex.c **** 
 970:Drivers/STM32L0xx_HAL_Driver/Src/stm32l0xx_hal_rtc_ex.c ****   /* Clear the Tamper Flag */
 971:Drivers/STM32L0xx_HAL_Driver/Src/stm32l0xx_hal_rtc_ex.c ****   __HAL_RTC_TAMPER_CLEAR_FLAG(hrtc,RTC_FLAG_TAMP1F);
 1341              		.loc 1 971 0
 1342 0030 D968     		ldr	r1, [r3, #12]
 1343 0032 FF22     		movs	r2, #255
 1344 0034 1140     		ands	r1, r2
 1345 0036 044A     		ldr	r2, .L86
 1346 0038 0A43     		orrs	r2, r1
 1347 003a DA60     		str	r2, [r3, #12]
 972:Drivers/STM32L0xx_HAL_Driver/Src/stm32l0xx_hal_rtc_ex.c ****   
 973:Drivers/STM32L0xx_HAL_Driver/Src/stm32l0xx_hal_rtc_ex.c ****   /* Change RTC state */
 974:Drivers/STM32L0xx_HAL_Driver/Src/stm32l0xx_hal_rtc_ex.c ****   hrtc->State = HAL_RTC_STATE_READY;
 1348              		.loc 1 974 0
 1349 003c 2123     		movs	r3, #33
 1350 003e 0122     		movs	r2, #1
 1351 0040 E254     		strb	r2, [r4, r3]
ARM GAS  /var/folders/2m/zqg86yyd4hbf56w83tkxjpvr0000gn/T//ccxnAkOG.s 			page 42


 975:Drivers/STM32L0xx_HAL_Driver/Src/stm32l0xx_hal_rtc_ex.c ****   
 976:Drivers/STM32L0xx_HAL_Driver/Src/stm32l0xx_hal_rtc_ex.c ****   return HAL_OK; 
 1352              		.loc 1 976 0
 1353 0042 0020     		movs	r0, #0
 1354              	.L83:
 977:Drivers/STM32L0xx_HAL_Driver/Src/stm32l0xx_hal_rtc_ex.c **** }
 1355              		.loc 1 977 0
 1356              		@ sp needed
 1357              	.LVL93:
 1358              	.LVL94:
 1359              	.LVL95:
 1360 0044 70BD     		pop	{r4, r5, r6, pc}
 1361              	.L87:
 1362 0046 C046     		.align	2
 1363              	.L86:
 1364 0048 7FDFFFFF 		.word	-8321
 1365              		.cfi_endproc
 1366              	.LFE52:
 1368              		.section	.text.HAL_RTCEx_PollForTamper2Event,"ax",%progbits
 1369              		.align	1
 1370              		.global	HAL_RTCEx_PollForTamper2Event
 1371              		.syntax unified
 1372              		.code	16
 1373              		.thumb_func
 1374              		.fpu softvfp
 1376              	HAL_RTCEx_PollForTamper2Event:
 1377              	.LFB53:
 978:Drivers/STM32L0xx_HAL_Driver/Src/stm32l0xx_hal_rtc_ex.c **** #endif /* (STM32L063xx) || (STM32L062xx) || (STM32L061xx) ||
 979:Drivers/STM32L0xx_HAL_Driver/Src/stm32l0xx_hal_rtc_ex.c ****         * (STM32L053xx) || (STM32L052xx) || (STM32L051xx) ||
 980:Drivers/STM32L0xx_HAL_Driver/Src/stm32l0xx_hal_rtc_ex.c ****         * (STM32L083xx) || (STM32L082xx) || (STM32L081xx) ||
 981:Drivers/STM32L0xx_HAL_Driver/Src/stm32l0xx_hal_rtc_ex.c ****         * (STM32L073xx) || (STM32L072xx) || (STM32L071xx) || 
 982:Drivers/STM32L0xx_HAL_Driver/Src/stm32l0xx_hal_rtc_ex.c ****         * (STM32L031xx) || (STM32L041xx)
 983:Drivers/STM32L0xx_HAL_Driver/Src/stm32l0xx_hal_rtc_ex.c ****         */
 984:Drivers/STM32L0xx_HAL_Driver/Src/stm32l0xx_hal_rtc_ex.c **** 
 985:Drivers/STM32L0xx_HAL_Driver/Src/stm32l0xx_hal_rtc_ex.c **** /**
 986:Drivers/STM32L0xx_HAL_Driver/Src/stm32l0xx_hal_rtc_ex.c ****   * @brief  Handle Tamper 2 Polling.
 987:Drivers/STM32L0xx_HAL_Driver/Src/stm32l0xx_hal_rtc_ex.c ****   * @param  hrtc: RTC handle
 988:Drivers/STM32L0xx_HAL_Driver/Src/stm32l0xx_hal_rtc_ex.c ****   * @param  Timeout: Timeout duration
 989:Drivers/STM32L0xx_HAL_Driver/Src/stm32l0xx_hal_rtc_ex.c ****   * @retval HAL status
 990:Drivers/STM32L0xx_HAL_Driver/Src/stm32l0xx_hal_rtc_ex.c ****   */
 991:Drivers/STM32L0xx_HAL_Driver/Src/stm32l0xx_hal_rtc_ex.c **** HAL_StatusTypeDef HAL_RTCEx_PollForTamper2Event(RTC_HandleTypeDef *hrtc, uint32_t Timeout)
 992:Drivers/STM32L0xx_HAL_Driver/Src/stm32l0xx_hal_rtc_ex.c **** {
 1378              		.loc 1 992 0
 1379              		.cfi_startproc
 1380              		@ args = 0, pretend = 0, frame = 0
 1381              		@ frame_needed = 0, uses_anonymous_args = 0
 1382              	.LVL96:
 1383 0000 70B5     		push	{r4, r5, r6, lr}
 1384              	.LCFI11:
 1385              		.cfi_def_cfa_offset 16
 1386              		.cfi_offset 4, -16
 1387              		.cfi_offset 5, -12
 1388              		.cfi_offset 6, -8
 1389              		.cfi_offset 14, -4
 1390 0002 0400     		movs	r4, r0
 1391 0004 0D00     		movs	r5, r1
 993:Drivers/STM32L0xx_HAL_Driver/Src/stm32l0xx_hal_rtc_ex.c ****   uint32_t tickstart = HAL_GetTick();
ARM GAS  /var/folders/2m/zqg86yyd4hbf56w83tkxjpvr0000gn/T//ccxnAkOG.s 			page 43


 1392              		.loc 1 993 0
 1393 0006 FFF7FEFF 		bl	HAL_GetTick
 1394              	.LVL97:
 1395 000a 0600     		movs	r6, r0
 1396              	.LVL98:
 1397              	.L90:
 994:Drivers/STM32L0xx_HAL_Driver/Src/stm32l0xx_hal_rtc_ex.c **** 
 995:Drivers/STM32L0xx_HAL_Driver/Src/stm32l0xx_hal_rtc_ex.c ****   /* Get the status of the Interrupt */
 996:Drivers/STM32L0xx_HAL_Driver/Src/stm32l0xx_hal_rtc_ex.c ****   while(__HAL_RTC_TAMPER_GET_FLAG(hrtc, RTC_FLAG_TAMP2F) == RESET)
 1398              		.loc 1 996 0
 1399 000c 2368     		ldr	r3, [r4]
 1400 000e DA68     		ldr	r2, [r3, #12]
 1401 0010 5204     		lsls	r2, r2, #17
 1402 0012 0DD4     		bmi	.L94
 997:Drivers/STM32L0xx_HAL_Driver/Src/stm32l0xx_hal_rtc_ex.c ****   {
 998:Drivers/STM32L0xx_HAL_Driver/Src/stm32l0xx_hal_rtc_ex.c ****     if(Timeout != HAL_MAX_DELAY)
 1403              		.loc 1 998 0
 1404 0014 6B1C     		adds	r3, r5, #1
 1405 0016 F9D0     		beq	.L90
 999:Drivers/STM32L0xx_HAL_Driver/Src/stm32l0xx_hal_rtc_ex.c ****     {
1000:Drivers/STM32L0xx_HAL_Driver/Src/stm32l0xx_hal_rtc_ex.c ****       if((Timeout == 0U)||((HAL_GetTick() - tickstart ) > Timeout))
 1406              		.loc 1 1000 0
 1407 0018 002D     		cmp	r5, #0
 1408 001a 04D0     		beq	.L91
 1409              		.loc 1 1000 0 is_stmt 0 discriminator 1
 1410 001c FFF7FEFF 		bl	HAL_GetTick
 1411              	.LVL99:
 1412 0020 801B     		subs	r0, r0, r6
 1413 0022 A842     		cmp	r0, r5
 1414 0024 F2D9     		bls	.L90
 1415              	.L91:
1001:Drivers/STM32L0xx_HAL_Driver/Src/stm32l0xx_hal_rtc_ex.c ****       {
1002:Drivers/STM32L0xx_HAL_Driver/Src/stm32l0xx_hal_rtc_ex.c ****         hrtc->State = HAL_RTC_STATE_TIMEOUT;
 1416              		.loc 1 1002 0 is_stmt 1
 1417 0026 2123     		movs	r3, #33
 1418 0028 0322     		movs	r2, #3
 1419 002a E254     		strb	r2, [r4, r3]
1003:Drivers/STM32L0xx_HAL_Driver/Src/stm32l0xx_hal_rtc_ex.c ****         return HAL_TIMEOUT;
 1420              		.loc 1 1003 0
 1421 002c 0320     		movs	r0, #3
 1422 002e 09E0     		b	.L92
 1423              	.L94:
1004:Drivers/STM32L0xx_HAL_Driver/Src/stm32l0xx_hal_rtc_ex.c ****       }
1005:Drivers/STM32L0xx_HAL_Driver/Src/stm32l0xx_hal_rtc_ex.c ****     }
1006:Drivers/STM32L0xx_HAL_Driver/Src/stm32l0xx_hal_rtc_ex.c ****   }
1007:Drivers/STM32L0xx_HAL_Driver/Src/stm32l0xx_hal_rtc_ex.c **** 
1008:Drivers/STM32L0xx_HAL_Driver/Src/stm32l0xx_hal_rtc_ex.c ****   /* Clear the Tamper Flag */
1009:Drivers/STM32L0xx_HAL_Driver/Src/stm32l0xx_hal_rtc_ex.c ****   __HAL_RTC_TAMPER_CLEAR_FLAG(hrtc,RTC_FLAG_TAMP2F);
 1424              		.loc 1 1009 0
 1425 0030 D968     		ldr	r1, [r3, #12]
 1426 0032 FF22     		movs	r2, #255
 1427 0034 1140     		ands	r1, r2
 1428 0036 044A     		ldr	r2, .L95
 1429 0038 0A43     		orrs	r2, r1
 1430 003a DA60     		str	r2, [r3, #12]
1010:Drivers/STM32L0xx_HAL_Driver/Src/stm32l0xx_hal_rtc_ex.c **** 
1011:Drivers/STM32L0xx_HAL_Driver/Src/stm32l0xx_hal_rtc_ex.c ****   /* Change RTC state */
ARM GAS  /var/folders/2m/zqg86yyd4hbf56w83tkxjpvr0000gn/T//ccxnAkOG.s 			page 44


1012:Drivers/STM32L0xx_HAL_Driver/Src/stm32l0xx_hal_rtc_ex.c ****   hrtc->State = HAL_RTC_STATE_READY;
 1431              		.loc 1 1012 0
 1432 003c 2123     		movs	r3, #33
 1433 003e 0122     		movs	r2, #1
 1434 0040 E254     		strb	r2, [r4, r3]
1013:Drivers/STM32L0xx_HAL_Driver/Src/stm32l0xx_hal_rtc_ex.c **** 
1014:Drivers/STM32L0xx_HAL_Driver/Src/stm32l0xx_hal_rtc_ex.c ****   return HAL_OK;
 1435              		.loc 1 1014 0
 1436 0042 0020     		movs	r0, #0
 1437              	.L92:
1015:Drivers/STM32L0xx_HAL_Driver/Src/stm32l0xx_hal_rtc_ex.c **** }
 1438              		.loc 1 1015 0
 1439              		@ sp needed
 1440              	.LVL100:
 1441              	.LVL101:
 1442              	.LVL102:
 1443 0044 70BD     		pop	{r4, r5, r6, pc}
 1444              	.L96:
 1445 0046 C046     		.align	2
 1446              	.L95:
 1447 0048 7FBFFFFF 		.word	-16513
 1448              		.cfi_endproc
 1449              	.LFE53:
 1451              		.section	.text.HAL_RTCEx_PollForTamper3Event,"ax",%progbits
 1452              		.align	1
 1453              		.global	HAL_RTCEx_PollForTamper3Event
 1454              		.syntax unified
 1455              		.code	16
 1456              		.thumb_func
 1457              		.fpu softvfp
 1459              	HAL_RTCEx_PollForTamper3Event:
 1460              	.LFB54:
1016:Drivers/STM32L0xx_HAL_Driver/Src/stm32l0xx_hal_rtc_ex.c **** 
1017:Drivers/STM32L0xx_HAL_Driver/Src/stm32l0xx_hal_rtc_ex.c **** 
1018:Drivers/STM32L0xx_HAL_Driver/Src/stm32l0xx_hal_rtc_ex.c **** #if defined (STM32L083xx) || defined (STM32L082xx) || defined (STM32L081xx) || \
1019:Drivers/STM32L0xx_HAL_Driver/Src/stm32l0xx_hal_rtc_ex.c ****     defined (STM32L073xx) || defined (STM32L072xx) || defined (STM32L071xx) || \
1020:Drivers/STM32L0xx_HAL_Driver/Src/stm32l0xx_hal_rtc_ex.c ****     defined (STM32L031xx) || defined (STM32L041xx) || defined (STM32L011xx) || defined (STM32L021xx
1021:Drivers/STM32L0xx_HAL_Driver/Src/stm32l0xx_hal_rtc_ex.c ****     
1022:Drivers/STM32L0xx_HAL_Driver/Src/stm32l0xx_hal_rtc_ex.c **** /**
1023:Drivers/STM32L0xx_HAL_Driver/Src/stm32l0xx_hal_rtc_ex.c ****   * @brief  Handle Tamper 3 Polling.
1024:Drivers/STM32L0xx_HAL_Driver/Src/stm32l0xx_hal_rtc_ex.c ****   * @param  hrtc: RTC handle
1025:Drivers/STM32L0xx_HAL_Driver/Src/stm32l0xx_hal_rtc_ex.c ****   * @param  Timeout: Timeout duration
1026:Drivers/STM32L0xx_HAL_Driver/Src/stm32l0xx_hal_rtc_ex.c ****   * @retval HAL status
1027:Drivers/STM32L0xx_HAL_Driver/Src/stm32l0xx_hal_rtc_ex.c ****   */
1028:Drivers/STM32L0xx_HAL_Driver/Src/stm32l0xx_hal_rtc_ex.c **** HAL_StatusTypeDef HAL_RTCEx_PollForTamper3Event(RTC_HandleTypeDef *hrtc, uint32_t Timeout)
1029:Drivers/STM32L0xx_HAL_Driver/Src/stm32l0xx_hal_rtc_ex.c **** {  
 1461              		.loc 1 1029 0
 1462              		.cfi_startproc
 1463              		@ args = 0, pretend = 0, frame = 0
 1464              		@ frame_needed = 0, uses_anonymous_args = 0
 1465              	.LVL103:
 1466 0000 70B5     		push	{r4, r5, r6, lr}
 1467              	.LCFI12:
 1468              		.cfi_def_cfa_offset 16
 1469              		.cfi_offset 4, -16
 1470              		.cfi_offset 5, -12
 1471              		.cfi_offset 6, -8
ARM GAS  /var/folders/2m/zqg86yyd4hbf56w83tkxjpvr0000gn/T//ccxnAkOG.s 			page 45


 1472              		.cfi_offset 14, -4
 1473 0002 0400     		movs	r4, r0
 1474 0004 0D00     		movs	r5, r1
1030:Drivers/STM32L0xx_HAL_Driver/Src/stm32l0xx_hal_rtc_ex.c ****   uint32_t tickstart = HAL_GetTick();
 1475              		.loc 1 1030 0
 1476 0006 FFF7FEFF 		bl	HAL_GetTick
 1477              	.LVL104:
 1478 000a 0600     		movs	r6, r0
 1479              	.LVL105:
 1480              	.L99:
1031:Drivers/STM32L0xx_HAL_Driver/Src/stm32l0xx_hal_rtc_ex.c **** 
1032:Drivers/STM32L0xx_HAL_Driver/Src/stm32l0xx_hal_rtc_ex.c ****   /* Get the status of the Interrupt */
1033:Drivers/STM32L0xx_HAL_Driver/Src/stm32l0xx_hal_rtc_ex.c ****   while(__HAL_RTC_TAMPER_GET_FLAG(hrtc,RTC_FLAG_TAMP3F) == RESET)
 1481              		.loc 1 1033 0
 1482 000c 2368     		ldr	r3, [r4]
 1483 000e DA68     		ldr	r2, [r3, #12]
 1484 0010 1204     		lsls	r2, r2, #16
 1485 0012 0DD4     		bmi	.L103
1034:Drivers/STM32L0xx_HAL_Driver/Src/stm32l0xx_hal_rtc_ex.c ****   {
1035:Drivers/STM32L0xx_HAL_Driver/Src/stm32l0xx_hal_rtc_ex.c ****     if(Timeout != HAL_MAX_DELAY)
 1486              		.loc 1 1035 0
 1487 0014 6B1C     		adds	r3, r5, #1
 1488 0016 F9D0     		beq	.L99
1036:Drivers/STM32L0xx_HAL_Driver/Src/stm32l0xx_hal_rtc_ex.c ****     {
1037:Drivers/STM32L0xx_HAL_Driver/Src/stm32l0xx_hal_rtc_ex.c ****       if((Timeout == 0U) || ((HAL_GetTick()-tickstart) > Timeout))
 1489              		.loc 1 1037 0
 1490 0018 002D     		cmp	r5, #0
 1491 001a 04D0     		beq	.L100
 1492              		.loc 1 1037 0 is_stmt 0 discriminator 1
 1493 001c FFF7FEFF 		bl	HAL_GetTick
 1494              	.LVL106:
 1495 0020 801B     		subs	r0, r0, r6
 1496 0022 A842     		cmp	r0, r5
 1497 0024 F2D9     		bls	.L99
 1498              	.L100:
1038:Drivers/STM32L0xx_HAL_Driver/Src/stm32l0xx_hal_rtc_ex.c ****       {
1039:Drivers/STM32L0xx_HAL_Driver/Src/stm32l0xx_hal_rtc_ex.c ****         hrtc->State = HAL_RTC_STATE_TIMEOUT;
 1499              		.loc 1 1039 0 is_stmt 1
 1500 0026 2123     		movs	r3, #33
 1501 0028 0322     		movs	r2, #3
 1502 002a E254     		strb	r2, [r4, r3]
1040:Drivers/STM32L0xx_HAL_Driver/Src/stm32l0xx_hal_rtc_ex.c ****         return HAL_TIMEOUT;
 1503              		.loc 1 1040 0
 1504 002c 0320     		movs	r0, #3
 1505 002e 09E0     		b	.L101
 1506              	.L103:
1041:Drivers/STM32L0xx_HAL_Driver/Src/stm32l0xx_hal_rtc_ex.c ****       }
1042:Drivers/STM32L0xx_HAL_Driver/Src/stm32l0xx_hal_rtc_ex.c ****     }
1043:Drivers/STM32L0xx_HAL_Driver/Src/stm32l0xx_hal_rtc_ex.c ****   }
1044:Drivers/STM32L0xx_HAL_Driver/Src/stm32l0xx_hal_rtc_ex.c **** 
1045:Drivers/STM32L0xx_HAL_Driver/Src/stm32l0xx_hal_rtc_ex.c ****   /* Clear the Tamper Flag */
1046:Drivers/STM32L0xx_HAL_Driver/Src/stm32l0xx_hal_rtc_ex.c ****   __HAL_RTC_TAMPER_CLEAR_FLAG(hrtc,RTC_FLAG_TAMP3F);
 1507              		.loc 1 1046 0
 1508 0030 D968     		ldr	r1, [r3, #12]
 1509 0032 FF22     		movs	r2, #255
 1510 0034 1140     		ands	r1, r2
 1511 0036 044A     		ldr	r2, .L104
ARM GAS  /var/folders/2m/zqg86yyd4hbf56w83tkxjpvr0000gn/T//ccxnAkOG.s 			page 46


 1512 0038 0A43     		orrs	r2, r1
 1513 003a DA60     		str	r2, [r3, #12]
1047:Drivers/STM32L0xx_HAL_Driver/Src/stm32l0xx_hal_rtc_ex.c **** 
1048:Drivers/STM32L0xx_HAL_Driver/Src/stm32l0xx_hal_rtc_ex.c ****   /* Change RTC state */
1049:Drivers/STM32L0xx_HAL_Driver/Src/stm32l0xx_hal_rtc_ex.c ****   hrtc->State = HAL_RTC_STATE_READY;
 1514              		.loc 1 1049 0
 1515 003c 2123     		movs	r3, #33
 1516 003e 0122     		movs	r2, #1
 1517 0040 E254     		strb	r2, [r4, r3]
1050:Drivers/STM32L0xx_HAL_Driver/Src/stm32l0xx_hal_rtc_ex.c **** 
1051:Drivers/STM32L0xx_HAL_Driver/Src/stm32l0xx_hal_rtc_ex.c ****   return HAL_OK;
 1518              		.loc 1 1051 0
 1519 0042 0020     		movs	r0, #0
 1520              	.L101:
1052:Drivers/STM32L0xx_HAL_Driver/Src/stm32l0xx_hal_rtc_ex.c **** }
 1521              		.loc 1 1052 0
 1522              		@ sp needed
 1523              	.LVL107:
 1524              	.LVL108:
 1525              	.LVL109:
 1526 0044 70BD     		pop	{r4, r5, r6, pc}
 1527              	.L105:
 1528 0046 C046     		.align	2
 1529              	.L104:
 1530 0048 7F7FFFFF 		.word	-32897
 1531              		.cfi_endproc
 1532              	.LFE54:
 1534              		.section	.text.HAL_RTCEx_SetWakeUpTimer,"ax",%progbits
 1535              		.align	1
 1536              		.global	HAL_RTCEx_SetWakeUpTimer
 1537              		.syntax unified
 1538              		.code	16
 1539              		.thumb_func
 1540              		.fpu softvfp
 1542              	HAL_RTCEx_SetWakeUpTimer:
 1543              	.LFB55:
1053:Drivers/STM32L0xx_HAL_Driver/Src/stm32l0xx_hal_rtc_ex.c **** #endif /* (STM32L083xx) || (STM32L082xx) || (STM32L081xx) ||
1054:Drivers/STM32L0xx_HAL_Driver/Src/stm32l0xx_hal_rtc_ex.c ****     * (STM32L073xx) || (STM32L072xx) || (STM32L071xx) || (STM32L031xx) || (STM32L041xx) || (STM32L0
1055:Drivers/STM32L0xx_HAL_Driver/Src/stm32l0xx_hal_rtc_ex.c ****     */
1056:Drivers/STM32L0xx_HAL_Driver/Src/stm32l0xx_hal_rtc_ex.c **** 
1057:Drivers/STM32L0xx_HAL_Driver/Src/stm32l0xx_hal_rtc_ex.c **** /**
1058:Drivers/STM32L0xx_HAL_Driver/Src/stm32l0xx_hal_rtc_ex.c ****   * @}
1059:Drivers/STM32L0xx_HAL_Driver/Src/stm32l0xx_hal_rtc_ex.c ****   */
1060:Drivers/STM32L0xx_HAL_Driver/Src/stm32l0xx_hal_rtc_ex.c ****   
1061:Drivers/STM32L0xx_HAL_Driver/Src/stm32l0xx_hal_rtc_ex.c **** /** @addtogroup RTCEx_Exported_Functions_Group2
1062:Drivers/STM32L0xx_HAL_Driver/Src/stm32l0xx_hal_rtc_ex.c ****   * @brief    RTC Wake-up functions
1063:Drivers/STM32L0xx_HAL_Driver/Src/stm32l0xx_hal_rtc_ex.c ****   *
1064:Drivers/STM32L0xx_HAL_Driver/Src/stm32l0xx_hal_rtc_ex.c **** @verbatim   
1065:Drivers/STM32L0xx_HAL_Driver/Src/stm32l0xx_hal_rtc_ex.c ****  ===============================================================================
1066:Drivers/STM32L0xx_HAL_Driver/Src/stm32l0xx_hal_rtc_ex.c ****                         ##### RTC Wake-up functions #####
1067:Drivers/STM32L0xx_HAL_Driver/Src/stm32l0xx_hal_rtc_ex.c ****  ===============================================================================  
1068:Drivers/STM32L0xx_HAL_Driver/Src/stm32l0xx_hal_rtc_ex.c ****  
1069:Drivers/STM32L0xx_HAL_Driver/Src/stm32l0xx_hal_rtc_ex.c ****  [..] This section provides functions allowing to configure Wake-up feature
1070:Drivers/STM32L0xx_HAL_Driver/Src/stm32l0xx_hal_rtc_ex.c **** 
1071:Drivers/STM32L0xx_HAL_Driver/Src/stm32l0xx_hal_rtc_ex.c **** @endverbatim
1072:Drivers/STM32L0xx_HAL_Driver/Src/stm32l0xx_hal_rtc_ex.c ****   * @{
1073:Drivers/STM32L0xx_HAL_Driver/Src/stm32l0xx_hal_rtc_ex.c ****   */
ARM GAS  /var/folders/2m/zqg86yyd4hbf56w83tkxjpvr0000gn/T//ccxnAkOG.s 			page 47


1074:Drivers/STM32L0xx_HAL_Driver/Src/stm32l0xx_hal_rtc_ex.c **** 
1075:Drivers/STM32L0xx_HAL_Driver/Src/stm32l0xx_hal_rtc_ex.c **** /**
1076:Drivers/STM32L0xx_HAL_Driver/Src/stm32l0xx_hal_rtc_ex.c ****   * @brief  Set wake up timer.
1077:Drivers/STM32L0xx_HAL_Driver/Src/stm32l0xx_hal_rtc_ex.c ****   * @param  hrtc: RTC handle
1078:Drivers/STM32L0xx_HAL_Driver/Src/stm32l0xx_hal_rtc_ex.c ****   * @param  WakeUpCounter: Wake up counter
1079:Drivers/STM32L0xx_HAL_Driver/Src/stm32l0xx_hal_rtc_ex.c ****   * @param  WakeUpClock: Wake up clock
1080:Drivers/STM32L0xx_HAL_Driver/Src/stm32l0xx_hal_rtc_ex.c ****   * @retval HAL status
1081:Drivers/STM32L0xx_HAL_Driver/Src/stm32l0xx_hal_rtc_ex.c ****   */
1082:Drivers/STM32L0xx_HAL_Driver/Src/stm32l0xx_hal_rtc_ex.c **** HAL_StatusTypeDef HAL_RTCEx_SetWakeUpTimer(RTC_HandleTypeDef *hrtc, uint32_t WakeUpCounter, uint32_
1083:Drivers/STM32L0xx_HAL_Driver/Src/stm32l0xx_hal_rtc_ex.c **** {
 1544              		.loc 1 1083 0
 1545              		.cfi_startproc
 1546              		@ args = 0, pretend = 0, frame = 0
 1547              		@ frame_needed = 0, uses_anonymous_args = 0
 1548              	.LVL110:
 1549 0000 F8B5     		push	{r3, r4, r5, r6, r7, lr}
 1550              	.LCFI13:
 1551              		.cfi_def_cfa_offset 24
 1552              		.cfi_offset 3, -24
 1553              		.cfi_offset 4, -20
 1554              		.cfi_offset 5, -16
 1555              		.cfi_offset 6, -12
 1556              		.cfi_offset 7, -8
 1557              		.cfi_offset 14, -4
 1558 0002 0400     		movs	r4, r0
 1559 0004 0D00     		movs	r5, r1
 1560 0006 1600     		movs	r6, r2
 1561              	.LVL111:
1084:Drivers/STM32L0xx_HAL_Driver/Src/stm32l0xx_hal_rtc_ex.c ****   uint32_t tickstart = 0U;
1085:Drivers/STM32L0xx_HAL_Driver/Src/stm32l0xx_hal_rtc_ex.c **** 
1086:Drivers/STM32L0xx_HAL_Driver/Src/stm32l0xx_hal_rtc_ex.c ****   /* Check the parameters */
1087:Drivers/STM32L0xx_HAL_Driver/Src/stm32l0xx_hal_rtc_ex.c ****   assert_param(IS_RTC_WAKEUP_CLOCK(WakeUpClock));
1088:Drivers/STM32L0xx_HAL_Driver/Src/stm32l0xx_hal_rtc_ex.c ****   assert_param(IS_RTC_WAKEUP_COUNTER(WakeUpCounter));
1089:Drivers/STM32L0xx_HAL_Driver/Src/stm32l0xx_hal_rtc_ex.c **** 
1090:Drivers/STM32L0xx_HAL_Driver/Src/stm32l0xx_hal_rtc_ex.c ****   /* Process Locked */ 
1091:Drivers/STM32L0xx_HAL_Driver/Src/stm32l0xx_hal_rtc_ex.c ****   __HAL_LOCK(hrtc);
 1562              		.loc 1 1091 0
 1563 0008 2023     		movs	r3, #32
 1564 000a C35C     		ldrb	r3, [r0, r3]
 1565 000c 012B     		cmp	r3, #1
 1566 000e 61D0     		beq	.L113
 1567              		.loc 1 1091 0 is_stmt 0 discriminator 2
 1568 0010 2023     		movs	r3, #32
 1569 0012 0122     		movs	r2, #1
 1570              	.LVL112:
 1571 0014 C254     		strb	r2, [r0, r3]
1092:Drivers/STM32L0xx_HAL_Driver/Src/stm32l0xx_hal_rtc_ex.c **** 
1093:Drivers/STM32L0xx_HAL_Driver/Src/stm32l0xx_hal_rtc_ex.c ****   hrtc->State = HAL_RTC_STATE_BUSY;
 1572              		.loc 1 1093 0 is_stmt 1 discriminator 2
 1573 0016 0133     		adds	r3, r3, #1
 1574 0018 0132     		adds	r2, r2, #1
 1575 001a C254     		strb	r2, [r0, r3]
1094:Drivers/STM32L0xx_HAL_Driver/Src/stm32l0xx_hal_rtc_ex.c **** 
1095:Drivers/STM32L0xx_HAL_Driver/Src/stm32l0xx_hal_rtc_ex.c ****   /* Disable the write protection for RTC registers */
1096:Drivers/STM32L0xx_HAL_Driver/Src/stm32l0xx_hal_rtc_ex.c ****   __HAL_RTC_WRITEPROTECTION_DISABLE(hrtc);
 1576              		.loc 1 1096 0 discriminator 2
 1577 001c 0368     		ldr	r3, [r0]
ARM GAS  /var/folders/2m/zqg86yyd4hbf56w83tkxjpvr0000gn/T//ccxnAkOG.s 			page 48


 1578 001e C832     		adds	r2, r2, #200
 1579 0020 5A62     		str	r2, [r3, #36]
 1580 0022 0368     		ldr	r3, [r0]
 1581 0024 773A     		subs	r2, r2, #119
 1582 0026 5A62     		str	r2, [r3, #36]
1097:Drivers/STM32L0xx_HAL_Driver/Src/stm32l0xx_hal_rtc_ex.c ****  
1098:Drivers/STM32L0xx_HAL_Driver/Src/stm32l0xx_hal_rtc_ex.c ****   /*Check RTC WUTWF flag is reset only when wake up timer enabled*/
1099:Drivers/STM32L0xx_HAL_Driver/Src/stm32l0xx_hal_rtc_ex.c ****   if((hrtc->Instance->CR & RTC_CR_WUTE) != RESET){
 1583              		.loc 1 1099 0 discriminator 2
 1584 0028 0368     		ldr	r3, [r0]
 1585 002a 9B68     		ldr	r3, [r3, #8]
 1586 002c 5B05     		lsls	r3, r3, #21
 1587 002e 18D5     		bpl	.L108
1100:Drivers/STM32L0xx_HAL_Driver/Src/stm32l0xx_hal_rtc_ex.c ****     tickstart = HAL_GetTick();
 1588              		.loc 1 1100 0
 1589 0030 FFF7FEFF 		bl	HAL_GetTick
 1590              	.LVL113:
 1591 0034 0700     		movs	r7, r0
 1592              	.LVL114:
 1593              	.L109:
1101:Drivers/STM32L0xx_HAL_Driver/Src/stm32l0xx_hal_rtc_ex.c **** 
1102:Drivers/STM32L0xx_HAL_Driver/Src/stm32l0xx_hal_rtc_ex.c ****    /* Wait till RTC WUTWF flag is reset and if Time out is reached exit */
1103:Drivers/STM32L0xx_HAL_Driver/Src/stm32l0xx_hal_rtc_ex.c ****    while(__HAL_RTC_WAKEUPTIMER_GET_FLAG(hrtc, RTC_FLAG_WUTWF) == SET)
 1594              		.loc 1 1103 0
 1595 0036 2368     		ldr	r3, [r4]
 1596 0038 DB68     		ldr	r3, [r3, #12]
 1597 003a 5B07     		lsls	r3, r3, #29
 1598 003c 11D5     		bpl	.L108
1104:Drivers/STM32L0xx_HAL_Driver/Src/stm32l0xx_hal_rtc_ex.c ****    {
1105:Drivers/STM32L0xx_HAL_Driver/Src/stm32l0xx_hal_rtc_ex.c ****     if((HAL_GetTick() - tickstart ) > RTC_TIMEOUT_VALUE)
 1599              		.loc 1 1105 0
 1600 003e FFF7FEFF 		bl	HAL_GetTick
 1601              	.LVL115:
 1602 0042 C01B     		subs	r0, r0, r7
 1603 0044 FA23     		movs	r3, #250
 1604 0046 9B00     		lsls	r3, r3, #2
 1605 0048 9842     		cmp	r0, r3
 1606 004a F4D9     		bls	.L109
1106:Drivers/STM32L0xx_HAL_Driver/Src/stm32l0xx_hal_rtc_ex.c ****       {
1107:Drivers/STM32L0xx_HAL_Driver/Src/stm32l0xx_hal_rtc_ex.c ****        /* Enable the write protection for RTC registers */
1108:Drivers/STM32L0xx_HAL_Driver/Src/stm32l0xx_hal_rtc_ex.c ****        __HAL_RTC_WRITEPROTECTION_ENABLE(hrtc);
 1607              		.loc 1 1108 0
 1608 004c 2368     		ldr	r3, [r4]
 1609 004e FF22     		movs	r2, #255
 1610 0050 5A62     		str	r2, [r3, #36]
1109:Drivers/STM32L0xx_HAL_Driver/Src/stm32l0xx_hal_rtc_ex.c **** 
1110:Drivers/STM32L0xx_HAL_Driver/Src/stm32l0xx_hal_rtc_ex.c ****        hrtc->State = HAL_RTC_STATE_TIMEOUT;
 1611              		.loc 1 1110 0
 1612 0052 2123     		movs	r3, #33
 1613 0054 FC3A     		subs	r2, r2, #252
 1614 0056 E254     		strb	r2, [r4, r3]
1111:Drivers/STM32L0xx_HAL_Driver/Src/stm32l0xx_hal_rtc_ex.c **** 
1112:Drivers/STM32L0xx_HAL_Driver/Src/stm32l0xx_hal_rtc_ex.c ****        /* Process Unlocked */ 
1113:Drivers/STM32L0xx_HAL_Driver/Src/stm32l0xx_hal_rtc_ex.c ****        __HAL_UNLOCK(hrtc);
 1615              		.loc 1 1113 0
 1616 0058 013B     		subs	r3, r3, #1
 1617 005a 0022     		movs	r2, #0
ARM GAS  /var/folders/2m/zqg86yyd4hbf56w83tkxjpvr0000gn/T//ccxnAkOG.s 			page 49


 1618 005c E254     		strb	r2, [r4, r3]
1114:Drivers/STM32L0xx_HAL_Driver/Src/stm32l0xx_hal_rtc_ex.c **** 
1115:Drivers/STM32L0xx_HAL_Driver/Src/stm32l0xx_hal_rtc_ex.c ****        return HAL_TIMEOUT;
 1619              		.loc 1 1115 0
 1620 005e 0320     		movs	r0, #3
 1621 0060 37E0     		b	.L107
 1622              	.LVL116:
 1623              	.L108:
1116:Drivers/STM32L0xx_HAL_Driver/Src/stm32l0xx_hal_rtc_ex.c ****       }
1117:Drivers/STM32L0xx_HAL_Driver/Src/stm32l0xx_hal_rtc_ex.c ****     }
1118:Drivers/STM32L0xx_HAL_Driver/Src/stm32l0xx_hal_rtc_ex.c ****   }
1119:Drivers/STM32L0xx_HAL_Driver/Src/stm32l0xx_hal_rtc_ex.c **** 
1120:Drivers/STM32L0xx_HAL_Driver/Src/stm32l0xx_hal_rtc_ex.c ****   __HAL_RTC_WAKEUPTIMER_DISABLE(hrtc);
 1624              		.loc 1 1120 0
 1625 0062 2268     		ldr	r2, [r4]
 1626 0064 9368     		ldr	r3, [r2, #8]
 1627 0066 1C49     		ldr	r1, .L115
 1628 0068 0B40     		ands	r3, r1
 1629 006a 9360     		str	r3, [r2, #8]
1121:Drivers/STM32L0xx_HAL_Driver/Src/stm32l0xx_hal_rtc_ex.c **** 
1122:Drivers/STM32L0xx_HAL_Driver/Src/stm32l0xx_hal_rtc_ex.c ****   tickstart = HAL_GetTick();
 1630              		.loc 1 1122 0
 1631 006c FFF7FEFF 		bl	HAL_GetTick
 1632              	.LVL117:
 1633 0070 0700     		movs	r7, r0
 1634              	.LVL118:
 1635              	.L111:
1123:Drivers/STM32L0xx_HAL_Driver/Src/stm32l0xx_hal_rtc_ex.c **** 
1124:Drivers/STM32L0xx_HAL_Driver/Src/stm32l0xx_hal_rtc_ex.c ****   /* Wait till RTC WUTWF flag is set and if Time out is reached exit */
1125:Drivers/STM32L0xx_HAL_Driver/Src/stm32l0xx_hal_rtc_ex.c ****   while(__HAL_RTC_WAKEUPTIMER_GET_FLAG(hrtc, RTC_FLAG_WUTWF) == RESET)
 1636              		.loc 1 1125 0
 1637 0072 2368     		ldr	r3, [r4]
 1638 0074 DA68     		ldr	r2, [r3, #12]
 1639 0076 5207     		lsls	r2, r2, #29
 1640 0078 11D4     		bmi	.L114
1126:Drivers/STM32L0xx_HAL_Driver/Src/stm32l0xx_hal_rtc_ex.c ****   {
1127:Drivers/STM32L0xx_HAL_Driver/Src/stm32l0xx_hal_rtc_ex.c ****     if((HAL_GetTick() - tickstart ) > RTC_TIMEOUT_VALUE)
 1641              		.loc 1 1127 0
 1642 007a FFF7FEFF 		bl	HAL_GetTick
 1643              	.LVL119:
 1644 007e C01B     		subs	r0, r0, r7
 1645 0080 FA23     		movs	r3, #250
 1646 0082 9B00     		lsls	r3, r3, #2
 1647 0084 9842     		cmp	r0, r3
 1648 0086 F4D9     		bls	.L111
1128:Drivers/STM32L0xx_HAL_Driver/Src/stm32l0xx_hal_rtc_ex.c ****     {
1129:Drivers/STM32L0xx_HAL_Driver/Src/stm32l0xx_hal_rtc_ex.c ****       /* Enable the write protection for RTC registers */
1130:Drivers/STM32L0xx_HAL_Driver/Src/stm32l0xx_hal_rtc_ex.c ****       __HAL_RTC_WRITEPROTECTION_ENABLE(hrtc);
 1649              		.loc 1 1130 0
 1650 0088 2368     		ldr	r3, [r4]
 1651 008a FF22     		movs	r2, #255
 1652 008c 5A62     		str	r2, [r3, #36]
1131:Drivers/STM32L0xx_HAL_Driver/Src/stm32l0xx_hal_rtc_ex.c **** 
1132:Drivers/STM32L0xx_HAL_Driver/Src/stm32l0xx_hal_rtc_ex.c ****       hrtc->State = HAL_RTC_STATE_TIMEOUT;
 1653              		.loc 1 1132 0
 1654 008e 2123     		movs	r3, #33
 1655 0090 FC3A     		subs	r2, r2, #252
ARM GAS  /var/folders/2m/zqg86yyd4hbf56w83tkxjpvr0000gn/T//ccxnAkOG.s 			page 50


 1656 0092 E254     		strb	r2, [r4, r3]
1133:Drivers/STM32L0xx_HAL_Driver/Src/stm32l0xx_hal_rtc_ex.c **** 
1134:Drivers/STM32L0xx_HAL_Driver/Src/stm32l0xx_hal_rtc_ex.c ****       /* Process Unlocked */ 
1135:Drivers/STM32L0xx_HAL_Driver/Src/stm32l0xx_hal_rtc_ex.c ****       __HAL_UNLOCK(hrtc);
 1657              		.loc 1 1135 0
 1658 0094 013B     		subs	r3, r3, #1
 1659 0096 0022     		movs	r2, #0
 1660 0098 E254     		strb	r2, [r4, r3]
1136:Drivers/STM32L0xx_HAL_Driver/Src/stm32l0xx_hal_rtc_ex.c **** 
1137:Drivers/STM32L0xx_HAL_Driver/Src/stm32l0xx_hal_rtc_ex.c ****       return HAL_TIMEOUT;
 1661              		.loc 1 1137 0
 1662 009a 0320     		movs	r0, #3
 1663 009c 19E0     		b	.L107
 1664              	.L114:
1138:Drivers/STM32L0xx_HAL_Driver/Src/stm32l0xx_hal_rtc_ex.c ****     }
1139:Drivers/STM32L0xx_HAL_Driver/Src/stm32l0xx_hal_rtc_ex.c ****   }
1140:Drivers/STM32L0xx_HAL_Driver/Src/stm32l0xx_hal_rtc_ex.c **** 
1141:Drivers/STM32L0xx_HAL_Driver/Src/stm32l0xx_hal_rtc_ex.c ****   /* Clear the Wakeup Timer clock source bits in CR register */
1142:Drivers/STM32L0xx_HAL_Driver/Src/stm32l0xx_hal_rtc_ex.c ****   hrtc->Instance->CR &= (uint32_t)~RTC_CR_WUCKSEL;
 1665              		.loc 1 1142 0
 1666 009e 9A68     		ldr	r2, [r3, #8]
 1667 00a0 0721     		movs	r1, #7
 1668 00a2 8A43     		bics	r2, r1
 1669 00a4 9A60     		str	r2, [r3, #8]
1143:Drivers/STM32L0xx_HAL_Driver/Src/stm32l0xx_hal_rtc_ex.c **** 
1144:Drivers/STM32L0xx_HAL_Driver/Src/stm32l0xx_hal_rtc_ex.c ****   /* Configure the clock source */
1145:Drivers/STM32L0xx_HAL_Driver/Src/stm32l0xx_hal_rtc_ex.c ****   hrtc->Instance->CR |= (uint32_t)WakeUpClock;
 1670              		.loc 1 1145 0
 1671 00a6 2268     		ldr	r2, [r4]
 1672 00a8 9368     		ldr	r3, [r2, #8]
 1673 00aa 1E43     		orrs	r6, r3
 1674              	.LVL120:
 1675 00ac 9660     		str	r6, [r2, #8]
1146:Drivers/STM32L0xx_HAL_Driver/Src/stm32l0xx_hal_rtc_ex.c **** 
1147:Drivers/STM32L0xx_HAL_Driver/Src/stm32l0xx_hal_rtc_ex.c ****   /* Configure the Wakeup Timer counter */
1148:Drivers/STM32L0xx_HAL_Driver/Src/stm32l0xx_hal_rtc_ex.c ****   hrtc->Instance->WUTR = (uint32_t)WakeUpCounter;
 1676              		.loc 1 1148 0
 1677 00ae 2368     		ldr	r3, [r4]
 1678 00b0 5D61     		str	r5, [r3, #20]
1149:Drivers/STM32L0xx_HAL_Driver/Src/stm32l0xx_hal_rtc_ex.c **** 
1150:Drivers/STM32L0xx_HAL_Driver/Src/stm32l0xx_hal_rtc_ex.c ****    /* Enable the Wakeup Timer */
1151:Drivers/STM32L0xx_HAL_Driver/Src/stm32l0xx_hal_rtc_ex.c ****   __HAL_RTC_WAKEUPTIMER_ENABLE(hrtc);
 1679              		.loc 1 1151 0
 1680 00b2 2268     		ldr	r2, [r4]
 1681 00b4 9168     		ldr	r1, [r2, #8]
 1682 00b6 8023     		movs	r3, #128
 1683 00b8 DB00     		lsls	r3, r3, #3
 1684 00ba 0B43     		orrs	r3, r1
 1685 00bc 9360     		str	r3, [r2, #8]
1152:Drivers/STM32L0xx_HAL_Driver/Src/stm32l0xx_hal_rtc_ex.c **** 
1153:Drivers/STM32L0xx_HAL_Driver/Src/stm32l0xx_hal_rtc_ex.c ****   /* Enable the write protection for RTC registers */
1154:Drivers/STM32L0xx_HAL_Driver/Src/stm32l0xx_hal_rtc_ex.c ****   __HAL_RTC_WRITEPROTECTION_ENABLE(hrtc);
 1686              		.loc 1 1154 0
 1687 00be 2368     		ldr	r3, [r4]
 1688 00c0 FF22     		movs	r2, #255
 1689 00c2 5A62     		str	r2, [r3, #36]
1155:Drivers/STM32L0xx_HAL_Driver/Src/stm32l0xx_hal_rtc_ex.c **** 
ARM GAS  /var/folders/2m/zqg86yyd4hbf56w83tkxjpvr0000gn/T//ccxnAkOG.s 			page 51


1156:Drivers/STM32L0xx_HAL_Driver/Src/stm32l0xx_hal_rtc_ex.c ****   hrtc->State = HAL_RTC_STATE_READY;
 1690              		.loc 1 1156 0
 1691 00c4 2123     		movs	r3, #33
 1692 00c6 FE3A     		subs	r2, r2, #254
 1693 00c8 E254     		strb	r2, [r4, r3]
1157:Drivers/STM32L0xx_HAL_Driver/Src/stm32l0xx_hal_rtc_ex.c **** 
1158:Drivers/STM32L0xx_HAL_Driver/Src/stm32l0xx_hal_rtc_ex.c ****   /* Process Unlocked */
1159:Drivers/STM32L0xx_HAL_Driver/Src/stm32l0xx_hal_rtc_ex.c ****   __HAL_UNLOCK(hrtc);
 1694              		.loc 1 1159 0
 1695 00ca 013B     		subs	r3, r3, #1
 1696 00cc 0022     		movs	r2, #0
 1697 00ce E254     		strb	r2, [r4, r3]
1160:Drivers/STM32L0xx_HAL_Driver/Src/stm32l0xx_hal_rtc_ex.c **** 
1161:Drivers/STM32L0xx_HAL_Driver/Src/stm32l0xx_hal_rtc_ex.c ****   return HAL_OK;
 1698              		.loc 1 1161 0
 1699 00d0 0020     		movs	r0, #0
 1700              	.LVL121:
 1701              	.L107:
1162:Drivers/STM32L0xx_HAL_Driver/Src/stm32l0xx_hal_rtc_ex.c **** }
 1702              		.loc 1 1162 0
 1703              		@ sp needed
 1704              	.LVL122:
 1705              	.LVL123:
 1706 00d2 F8BD     		pop	{r3, r4, r5, r6, r7, pc}
 1707              	.LVL124:
 1708              	.L113:
1091:Drivers/STM32L0xx_HAL_Driver/Src/stm32l0xx_hal_rtc_ex.c **** 
 1709              		.loc 1 1091 0
 1710 00d4 0220     		movs	r0, #2
 1711              	.LVL125:
 1712 00d6 FCE7     		b	.L107
 1713              	.L116:
 1714              		.align	2
 1715              	.L115:
 1716 00d8 FFFBFFFF 		.word	-1025
 1717              		.cfi_endproc
 1718              	.LFE55:
 1720              		.section	.text.HAL_RTCEx_SetWakeUpTimer_IT,"ax",%progbits
 1721              		.align	1
 1722              		.global	HAL_RTCEx_SetWakeUpTimer_IT
 1723              		.syntax unified
 1724              		.code	16
 1725              		.thumb_func
 1726              		.fpu softvfp
 1728              	HAL_RTCEx_SetWakeUpTimer_IT:
 1729              	.LFB56:
1163:Drivers/STM32L0xx_HAL_Driver/Src/stm32l0xx_hal_rtc_ex.c **** 
1164:Drivers/STM32L0xx_HAL_Driver/Src/stm32l0xx_hal_rtc_ex.c **** /**
1165:Drivers/STM32L0xx_HAL_Driver/Src/stm32l0xx_hal_rtc_ex.c ****   * @brief  Set wake up timer with interrupt.
1166:Drivers/STM32L0xx_HAL_Driver/Src/stm32l0xx_hal_rtc_ex.c ****   * @param  hrtc: RTC handle
1167:Drivers/STM32L0xx_HAL_Driver/Src/stm32l0xx_hal_rtc_ex.c ****   * @param  WakeUpCounter: Wake up counter
1168:Drivers/STM32L0xx_HAL_Driver/Src/stm32l0xx_hal_rtc_ex.c ****   * @param  WakeUpClock: Wake up clock  
1169:Drivers/STM32L0xx_HAL_Driver/Src/stm32l0xx_hal_rtc_ex.c ****   * @retval HAL status
1170:Drivers/STM32L0xx_HAL_Driver/Src/stm32l0xx_hal_rtc_ex.c ****   */
1171:Drivers/STM32L0xx_HAL_Driver/Src/stm32l0xx_hal_rtc_ex.c **** HAL_StatusTypeDef HAL_RTCEx_SetWakeUpTimer_IT(RTC_HandleTypeDef *hrtc, uint32_t WakeUpCounter, uint
1172:Drivers/STM32L0xx_HAL_Driver/Src/stm32l0xx_hal_rtc_ex.c **** {
 1730              		.loc 1 1172 0
ARM GAS  /var/folders/2m/zqg86yyd4hbf56w83tkxjpvr0000gn/T//ccxnAkOG.s 			page 52


 1731              		.cfi_startproc
 1732              		@ args = 0, pretend = 0, frame = 0
 1733              		@ frame_needed = 0, uses_anonymous_args = 0
 1734              	.LVL126:
 1735 0000 F8B5     		push	{r3, r4, r5, r6, r7, lr}
 1736              	.LCFI14:
 1737              		.cfi_def_cfa_offset 24
 1738              		.cfi_offset 3, -24
 1739              		.cfi_offset 4, -20
 1740              		.cfi_offset 5, -16
 1741              		.cfi_offset 6, -12
 1742              		.cfi_offset 7, -8
 1743              		.cfi_offset 14, -4
 1744 0002 0400     		movs	r4, r0
 1745 0004 0E00     		movs	r6, r1
 1746 0006 1500     		movs	r5, r2
 1747              	.LVL127:
1173:Drivers/STM32L0xx_HAL_Driver/Src/stm32l0xx_hal_rtc_ex.c ****   uint32_t tickstart = 0U;
1174:Drivers/STM32L0xx_HAL_Driver/Src/stm32l0xx_hal_rtc_ex.c **** 
1175:Drivers/STM32L0xx_HAL_Driver/Src/stm32l0xx_hal_rtc_ex.c ****   /* Check the parameters */
1176:Drivers/STM32L0xx_HAL_Driver/Src/stm32l0xx_hal_rtc_ex.c ****   assert_param(IS_RTC_WAKEUP_CLOCK(WakeUpClock));
1177:Drivers/STM32L0xx_HAL_Driver/Src/stm32l0xx_hal_rtc_ex.c ****   assert_param(IS_RTC_WAKEUP_COUNTER(WakeUpCounter));
1178:Drivers/STM32L0xx_HAL_Driver/Src/stm32l0xx_hal_rtc_ex.c **** 
1179:Drivers/STM32L0xx_HAL_Driver/Src/stm32l0xx_hal_rtc_ex.c ****   /* Process Locked */ 
1180:Drivers/STM32L0xx_HAL_Driver/Src/stm32l0xx_hal_rtc_ex.c ****   __HAL_LOCK(hrtc);
 1748              		.loc 1 1180 0
 1749 0008 2023     		movs	r3, #32
 1750 000a C35C     		ldrb	r3, [r0, r3]
 1751 000c 012B     		cmp	r3, #1
 1752 000e 00D1     		bne	.LCB1658
 1753 0010 77E0     		b	.L124	@long jump
 1754              	.LCB1658:
 1755              		.loc 1 1180 0 is_stmt 0 discriminator 2
 1756 0012 2023     		movs	r3, #32
 1757 0014 0122     		movs	r2, #1
 1758              	.LVL128:
 1759 0016 C254     		strb	r2, [r0, r3]
1181:Drivers/STM32L0xx_HAL_Driver/Src/stm32l0xx_hal_rtc_ex.c **** 
1182:Drivers/STM32L0xx_HAL_Driver/Src/stm32l0xx_hal_rtc_ex.c ****   hrtc->State = HAL_RTC_STATE_BUSY;
 1760              		.loc 1 1182 0 is_stmt 1 discriminator 2
 1761 0018 0133     		adds	r3, r3, #1
 1762 001a 0132     		adds	r2, r2, #1
 1763 001c C254     		strb	r2, [r0, r3]
1183:Drivers/STM32L0xx_HAL_Driver/Src/stm32l0xx_hal_rtc_ex.c **** 
1184:Drivers/STM32L0xx_HAL_Driver/Src/stm32l0xx_hal_rtc_ex.c ****   /* Disable the write protection for RTC registers */
1185:Drivers/STM32L0xx_HAL_Driver/Src/stm32l0xx_hal_rtc_ex.c ****   __HAL_RTC_WRITEPROTECTION_DISABLE(hrtc);
 1764              		.loc 1 1185 0 discriminator 2
 1765 001e 0368     		ldr	r3, [r0]
 1766 0020 C832     		adds	r2, r2, #200
 1767 0022 5A62     		str	r2, [r3, #36]
 1768 0024 0368     		ldr	r3, [r0]
 1769 0026 773A     		subs	r2, r2, #119
 1770 0028 5A62     		str	r2, [r3, #36]
1186:Drivers/STM32L0xx_HAL_Driver/Src/stm32l0xx_hal_rtc_ex.c **** 
1187:Drivers/STM32L0xx_HAL_Driver/Src/stm32l0xx_hal_rtc_ex.c ****   /*Check RTC WUTWF flag is reset only when wake up timer enabled*/
1188:Drivers/STM32L0xx_HAL_Driver/Src/stm32l0xx_hal_rtc_ex.c ****   if((hrtc->Instance->CR & RTC_CR_WUTE) != RESET){
 1771              		.loc 1 1188 0 discriminator 2
ARM GAS  /var/folders/2m/zqg86yyd4hbf56w83tkxjpvr0000gn/T//ccxnAkOG.s 			page 53


 1772 002a 0368     		ldr	r3, [r0]
 1773 002c 9B68     		ldr	r3, [r3, #8]
 1774 002e 5B05     		lsls	r3, r3, #21
 1775 0030 18D5     		bpl	.L119
1189:Drivers/STM32L0xx_HAL_Driver/Src/stm32l0xx_hal_rtc_ex.c ****     tickstart = HAL_GetTick();
 1776              		.loc 1 1189 0
 1777 0032 FFF7FEFF 		bl	HAL_GetTick
 1778              	.LVL129:
 1779 0036 0700     		movs	r7, r0
 1780              	.LVL130:
 1781              	.L120:
1190:Drivers/STM32L0xx_HAL_Driver/Src/stm32l0xx_hal_rtc_ex.c ****  
1191:Drivers/STM32L0xx_HAL_Driver/Src/stm32l0xx_hal_rtc_ex.c ****    /* Wait till RTC WUTWF flag is reset and if Time out is reached exit */
1192:Drivers/STM32L0xx_HAL_Driver/Src/stm32l0xx_hal_rtc_ex.c ****    while(__HAL_RTC_WAKEUPTIMER_GET_FLAG(hrtc, RTC_FLAG_WUTWF) == SET)
 1782              		.loc 1 1192 0
 1783 0038 2368     		ldr	r3, [r4]
 1784 003a DB68     		ldr	r3, [r3, #12]
 1785 003c 5B07     		lsls	r3, r3, #29
 1786 003e 11D5     		bpl	.L119
1193:Drivers/STM32L0xx_HAL_Driver/Src/stm32l0xx_hal_rtc_ex.c ****    {
1194:Drivers/STM32L0xx_HAL_Driver/Src/stm32l0xx_hal_rtc_ex.c ****     if((HAL_GetTick() - tickstart ) > RTC_TIMEOUT_VALUE)
 1787              		.loc 1 1194 0
 1788 0040 FFF7FEFF 		bl	HAL_GetTick
 1789              	.LVL131:
 1790 0044 C01B     		subs	r0, r0, r7
 1791 0046 FA23     		movs	r3, #250
 1792 0048 9B00     		lsls	r3, r3, #2
 1793 004a 9842     		cmp	r0, r3
 1794 004c F4D9     		bls	.L120
1195:Drivers/STM32L0xx_HAL_Driver/Src/stm32l0xx_hal_rtc_ex.c ****       {
1196:Drivers/STM32L0xx_HAL_Driver/Src/stm32l0xx_hal_rtc_ex.c ****        /* Enable the write protection for RTC registers */
1197:Drivers/STM32L0xx_HAL_Driver/Src/stm32l0xx_hal_rtc_ex.c ****        __HAL_RTC_WRITEPROTECTION_ENABLE(hrtc);
 1795              		.loc 1 1197 0
 1796 004e 2368     		ldr	r3, [r4]
 1797 0050 FF22     		movs	r2, #255
 1798 0052 5A62     		str	r2, [r3, #36]
1198:Drivers/STM32L0xx_HAL_Driver/Src/stm32l0xx_hal_rtc_ex.c **** 
1199:Drivers/STM32L0xx_HAL_Driver/Src/stm32l0xx_hal_rtc_ex.c ****        hrtc->State = HAL_RTC_STATE_TIMEOUT;
 1799              		.loc 1 1199 0
 1800 0054 2123     		movs	r3, #33
 1801 0056 FC3A     		subs	r2, r2, #252
 1802 0058 E254     		strb	r2, [r4, r3]
1200:Drivers/STM32L0xx_HAL_Driver/Src/stm32l0xx_hal_rtc_ex.c **** 
1201:Drivers/STM32L0xx_HAL_Driver/Src/stm32l0xx_hal_rtc_ex.c ****        /* Process Unlocked */ 
1202:Drivers/STM32L0xx_HAL_Driver/Src/stm32l0xx_hal_rtc_ex.c ****        __HAL_UNLOCK(hrtc);
 1803              		.loc 1 1202 0
 1804 005a 013B     		subs	r3, r3, #1
 1805 005c 0022     		movs	r2, #0
 1806 005e E254     		strb	r2, [r4, r3]
1203:Drivers/STM32L0xx_HAL_Driver/Src/stm32l0xx_hal_rtc_ex.c **** 
1204:Drivers/STM32L0xx_HAL_Driver/Src/stm32l0xx_hal_rtc_ex.c ****        return HAL_TIMEOUT;
 1807              		.loc 1 1204 0
 1808 0060 0320     		movs	r0, #3
 1809 0062 4DE0     		b	.L118
 1810              	.LVL132:
 1811              	.L119:
1205:Drivers/STM32L0xx_HAL_Driver/Src/stm32l0xx_hal_rtc_ex.c ****       }
ARM GAS  /var/folders/2m/zqg86yyd4hbf56w83tkxjpvr0000gn/T//ccxnAkOG.s 			page 54


1206:Drivers/STM32L0xx_HAL_Driver/Src/stm32l0xx_hal_rtc_ex.c ****     }
1207:Drivers/STM32L0xx_HAL_Driver/Src/stm32l0xx_hal_rtc_ex.c ****   }
1208:Drivers/STM32L0xx_HAL_Driver/Src/stm32l0xx_hal_rtc_ex.c ****   /* Disable the Wake-Up timer */
1209:Drivers/STM32L0xx_HAL_Driver/Src/stm32l0xx_hal_rtc_ex.c ****   __HAL_RTC_WAKEUPTIMER_DISABLE(hrtc);
 1812              		.loc 1 1209 0
 1813 0064 2268     		ldr	r2, [r4]
 1814 0066 9368     		ldr	r3, [r2, #8]
 1815 0068 2749     		ldr	r1, .L126
 1816 006a 0B40     		ands	r3, r1
 1817 006c 9360     		str	r3, [r2, #8]
1210:Drivers/STM32L0xx_HAL_Driver/Src/stm32l0xx_hal_rtc_ex.c **** 
1211:Drivers/STM32L0xx_HAL_Driver/Src/stm32l0xx_hal_rtc_ex.c ****   /* Clear flag Wake-Up */
1212:Drivers/STM32L0xx_HAL_Driver/Src/stm32l0xx_hal_rtc_ex.c ****   __HAL_RTC_WAKEUPTIMER_CLEAR_FLAG(hrtc, RTC_FLAG_WUTF);
 1818              		.loc 1 1212 0
 1819 006e 2168     		ldr	r1, [r4]
 1820 0070 CA68     		ldr	r2, [r1, #12]
 1821 0072 FF23     		movs	r3, #255
 1822 0074 1A40     		ands	r2, r3
 1823 0076 254B     		ldr	r3, .L126+4
 1824 0078 1343     		orrs	r3, r2
 1825 007a CB60     		str	r3, [r1, #12]
1213:Drivers/STM32L0xx_HAL_Driver/Src/stm32l0xx_hal_rtc_ex.c **** 
1214:Drivers/STM32L0xx_HAL_Driver/Src/stm32l0xx_hal_rtc_ex.c ****   tickstart = HAL_GetTick();
 1826              		.loc 1 1214 0
 1827 007c FFF7FEFF 		bl	HAL_GetTick
 1828              	.LVL133:
 1829 0080 0700     		movs	r7, r0
 1830              	.LVL134:
 1831              	.L122:
1215:Drivers/STM32L0xx_HAL_Driver/Src/stm32l0xx_hal_rtc_ex.c **** 
1216:Drivers/STM32L0xx_HAL_Driver/Src/stm32l0xx_hal_rtc_ex.c ****   /* Wait till RTC WUTWF flag is set and if Time out is reached exit */
1217:Drivers/STM32L0xx_HAL_Driver/Src/stm32l0xx_hal_rtc_ex.c ****   while(__HAL_RTC_WAKEUPTIMER_GET_FLAG(hrtc, RTC_FLAG_WUTWF) == RESET)
 1832              		.loc 1 1217 0
 1833 0082 2368     		ldr	r3, [r4]
 1834 0084 DA68     		ldr	r2, [r3, #12]
 1835 0086 5207     		lsls	r2, r2, #29
 1836 0088 11D4     		bmi	.L125
1218:Drivers/STM32L0xx_HAL_Driver/Src/stm32l0xx_hal_rtc_ex.c ****   {
1219:Drivers/STM32L0xx_HAL_Driver/Src/stm32l0xx_hal_rtc_ex.c ****     if((HAL_GetTick() - tickstart ) > RTC_TIMEOUT_VALUE)
 1837              		.loc 1 1219 0
 1838 008a FFF7FEFF 		bl	HAL_GetTick
 1839              	.LVL135:
 1840 008e C01B     		subs	r0, r0, r7
 1841 0090 FA23     		movs	r3, #250
 1842 0092 9B00     		lsls	r3, r3, #2
 1843 0094 9842     		cmp	r0, r3
 1844 0096 F4D9     		bls	.L122
1220:Drivers/STM32L0xx_HAL_Driver/Src/stm32l0xx_hal_rtc_ex.c ****     {
1221:Drivers/STM32L0xx_HAL_Driver/Src/stm32l0xx_hal_rtc_ex.c ****       /* Enable the write protection for RTC registers */
1222:Drivers/STM32L0xx_HAL_Driver/Src/stm32l0xx_hal_rtc_ex.c ****       __HAL_RTC_WRITEPROTECTION_ENABLE(hrtc);
 1845              		.loc 1 1222 0
 1846 0098 2368     		ldr	r3, [r4]
 1847 009a FF22     		movs	r2, #255
 1848 009c 5A62     		str	r2, [r3, #36]
1223:Drivers/STM32L0xx_HAL_Driver/Src/stm32l0xx_hal_rtc_ex.c **** 
1224:Drivers/STM32L0xx_HAL_Driver/Src/stm32l0xx_hal_rtc_ex.c ****       hrtc->State = HAL_RTC_STATE_TIMEOUT; 
 1849              		.loc 1 1224 0
ARM GAS  /var/folders/2m/zqg86yyd4hbf56w83tkxjpvr0000gn/T//ccxnAkOG.s 			page 55


 1850 009e 2123     		movs	r3, #33
 1851 00a0 FC3A     		subs	r2, r2, #252
 1852 00a2 E254     		strb	r2, [r4, r3]
1225:Drivers/STM32L0xx_HAL_Driver/Src/stm32l0xx_hal_rtc_ex.c **** 
1226:Drivers/STM32L0xx_HAL_Driver/Src/stm32l0xx_hal_rtc_ex.c ****       /* Process Unlocked */ 
1227:Drivers/STM32L0xx_HAL_Driver/Src/stm32l0xx_hal_rtc_ex.c ****       __HAL_UNLOCK(hrtc);
 1853              		.loc 1 1227 0
 1854 00a4 013B     		subs	r3, r3, #1
 1855 00a6 0022     		movs	r2, #0
 1856 00a8 E254     		strb	r2, [r4, r3]
1228:Drivers/STM32L0xx_HAL_Driver/Src/stm32l0xx_hal_rtc_ex.c **** 
1229:Drivers/STM32L0xx_HAL_Driver/Src/stm32l0xx_hal_rtc_ex.c ****       return HAL_TIMEOUT;
 1857              		.loc 1 1229 0
 1858 00aa 0320     		movs	r0, #3
 1859 00ac 28E0     		b	.L118
 1860              	.L125:
1230:Drivers/STM32L0xx_HAL_Driver/Src/stm32l0xx_hal_rtc_ex.c ****     }
1231:Drivers/STM32L0xx_HAL_Driver/Src/stm32l0xx_hal_rtc_ex.c ****   }
1232:Drivers/STM32L0xx_HAL_Driver/Src/stm32l0xx_hal_rtc_ex.c **** 
1233:Drivers/STM32L0xx_HAL_Driver/Src/stm32l0xx_hal_rtc_ex.c ****   /* Configure the Wakeup Timer counter */
1234:Drivers/STM32L0xx_HAL_Driver/Src/stm32l0xx_hal_rtc_ex.c ****   hrtc->Instance->WUTR = (uint32_t)WakeUpCounter;
 1861              		.loc 1 1234 0
 1862 00ae 5E61     		str	r6, [r3, #20]
1235:Drivers/STM32L0xx_HAL_Driver/Src/stm32l0xx_hal_rtc_ex.c **** 
1236:Drivers/STM32L0xx_HAL_Driver/Src/stm32l0xx_hal_rtc_ex.c ****   /* Clear the Wakeup Timer clock source bits in CR register */
1237:Drivers/STM32L0xx_HAL_Driver/Src/stm32l0xx_hal_rtc_ex.c ****   hrtc->Instance->CR &= (uint32_t)~RTC_CR_WUCKSEL;
 1863              		.loc 1 1237 0
 1864 00b0 2268     		ldr	r2, [r4]
 1865 00b2 9368     		ldr	r3, [r2, #8]
 1866 00b4 0721     		movs	r1, #7
 1867 00b6 8B43     		bics	r3, r1
 1868 00b8 9360     		str	r3, [r2, #8]
1238:Drivers/STM32L0xx_HAL_Driver/Src/stm32l0xx_hal_rtc_ex.c **** 
1239:Drivers/STM32L0xx_HAL_Driver/Src/stm32l0xx_hal_rtc_ex.c ****   /* Configure the clock source */
1240:Drivers/STM32L0xx_HAL_Driver/Src/stm32l0xx_hal_rtc_ex.c ****   hrtc->Instance->CR |= (uint32_t)WakeUpClock;
 1869              		.loc 1 1240 0
 1870 00ba 2268     		ldr	r2, [r4]
 1871 00bc 9368     		ldr	r3, [r2, #8]
 1872 00be 1D43     		orrs	r5, r3
 1873              	.LVL136:
 1874 00c0 9560     		str	r5, [r2, #8]
1241:Drivers/STM32L0xx_HAL_Driver/Src/stm32l0xx_hal_rtc_ex.c **** 
1242:Drivers/STM32L0xx_HAL_Driver/Src/stm32l0xx_hal_rtc_ex.c ****   /* RTC WakeUpTimer Interrupt Configuration: EXTI configuration */
1243:Drivers/STM32L0xx_HAL_Driver/Src/stm32l0xx_hal_rtc_ex.c ****   __HAL_RTC_WAKEUPTIMER_EXTI_ENABLE_IT();
 1875              		.loc 1 1243 0
 1876 00c2 134B     		ldr	r3, .L126+8
 1877 00c4 1968     		ldr	r1, [r3]
 1878 00c6 8022     		movs	r2, #128
 1879 00c8 5203     		lsls	r2, r2, #13
 1880 00ca 1143     		orrs	r1, r2
 1881 00cc 1960     		str	r1, [r3]
1244:Drivers/STM32L0xx_HAL_Driver/Src/stm32l0xx_hal_rtc_ex.c **** 
1245:Drivers/STM32L0xx_HAL_Driver/Src/stm32l0xx_hal_rtc_ex.c ****   __HAL_RTC_WAKEUPTIMER_EXTI_ENABLE_RISING_EDGE();
 1882              		.loc 1 1245 0
 1883 00ce 9968     		ldr	r1, [r3, #8]
 1884 00d0 0A43     		orrs	r2, r1
 1885 00d2 9A60     		str	r2, [r3, #8]
ARM GAS  /var/folders/2m/zqg86yyd4hbf56w83tkxjpvr0000gn/T//ccxnAkOG.s 			page 56


1246:Drivers/STM32L0xx_HAL_Driver/Src/stm32l0xx_hal_rtc_ex.c **** 
1247:Drivers/STM32L0xx_HAL_Driver/Src/stm32l0xx_hal_rtc_ex.c ****   /* Configure the Interrupt in the RTC_CR register */
1248:Drivers/STM32L0xx_HAL_Driver/Src/stm32l0xx_hal_rtc_ex.c ****   __HAL_RTC_WAKEUPTIMER_ENABLE_IT(hrtc,RTC_IT_WUT);
 1886              		.loc 1 1248 0
 1887 00d4 2268     		ldr	r2, [r4]
 1888 00d6 9168     		ldr	r1, [r2, #8]
 1889 00d8 8023     		movs	r3, #128
 1890 00da DB01     		lsls	r3, r3, #7
 1891 00dc 0B43     		orrs	r3, r1
 1892 00de 9360     		str	r3, [r2, #8]
1249:Drivers/STM32L0xx_HAL_Driver/Src/stm32l0xx_hal_rtc_ex.c ****   
1250:Drivers/STM32L0xx_HAL_Driver/Src/stm32l0xx_hal_rtc_ex.c ****   /* Enable the Wakeup Timer */
1251:Drivers/STM32L0xx_HAL_Driver/Src/stm32l0xx_hal_rtc_ex.c ****   __HAL_RTC_WAKEUPTIMER_ENABLE(hrtc);
 1893              		.loc 1 1251 0
 1894 00e0 2268     		ldr	r2, [r4]
 1895 00e2 9168     		ldr	r1, [r2, #8]
 1896 00e4 8023     		movs	r3, #128
 1897 00e6 DB00     		lsls	r3, r3, #3
 1898 00e8 0B43     		orrs	r3, r1
 1899 00ea 9360     		str	r3, [r2, #8]
1252:Drivers/STM32L0xx_HAL_Driver/Src/stm32l0xx_hal_rtc_ex.c **** 
1253:Drivers/STM32L0xx_HAL_Driver/Src/stm32l0xx_hal_rtc_ex.c ****   /* Enable the write protection for RTC registers */
1254:Drivers/STM32L0xx_HAL_Driver/Src/stm32l0xx_hal_rtc_ex.c ****   __HAL_RTC_WRITEPROTECTION_ENABLE(hrtc);
 1900              		.loc 1 1254 0
 1901 00ec 2368     		ldr	r3, [r4]
 1902 00ee FF22     		movs	r2, #255
 1903 00f0 5A62     		str	r2, [r3, #36]
1255:Drivers/STM32L0xx_HAL_Driver/Src/stm32l0xx_hal_rtc_ex.c **** 
1256:Drivers/STM32L0xx_HAL_Driver/Src/stm32l0xx_hal_rtc_ex.c ****   hrtc->State = HAL_RTC_STATE_READY; 
 1904              		.loc 1 1256 0
 1905 00f2 2123     		movs	r3, #33
 1906 00f4 FE3A     		subs	r2, r2, #254
 1907 00f6 E254     		strb	r2, [r4, r3]
1257:Drivers/STM32L0xx_HAL_Driver/Src/stm32l0xx_hal_rtc_ex.c **** 
1258:Drivers/STM32L0xx_HAL_Driver/Src/stm32l0xx_hal_rtc_ex.c ****   /* Process Unlocked */
1259:Drivers/STM32L0xx_HAL_Driver/Src/stm32l0xx_hal_rtc_ex.c ****   __HAL_UNLOCK(hrtc);
 1908              		.loc 1 1259 0
 1909 00f8 013B     		subs	r3, r3, #1
 1910 00fa 0022     		movs	r2, #0
 1911 00fc E254     		strb	r2, [r4, r3]
1260:Drivers/STM32L0xx_HAL_Driver/Src/stm32l0xx_hal_rtc_ex.c **** 
1261:Drivers/STM32L0xx_HAL_Driver/Src/stm32l0xx_hal_rtc_ex.c ****   return HAL_OK;
 1912              		.loc 1 1261 0
 1913 00fe 0020     		movs	r0, #0
 1914              	.LVL137:
 1915              	.L118:
1262:Drivers/STM32L0xx_HAL_Driver/Src/stm32l0xx_hal_rtc_ex.c **** }
 1916              		.loc 1 1262 0
 1917              		@ sp needed
 1918              	.LVL138:
 1919              	.LVL139:
 1920 0100 F8BD     		pop	{r3, r4, r5, r6, r7, pc}
 1921              	.LVL140:
 1922              	.L124:
1180:Drivers/STM32L0xx_HAL_Driver/Src/stm32l0xx_hal_rtc_ex.c **** 
 1923              		.loc 1 1180 0
 1924 0102 0220     		movs	r0, #2
ARM GAS  /var/folders/2m/zqg86yyd4hbf56w83tkxjpvr0000gn/T//ccxnAkOG.s 			page 57


 1925              	.LVL141:
 1926 0104 FCE7     		b	.L118
 1927              	.L127:
 1928 0106 C046     		.align	2
 1929              	.L126:
 1930 0108 FFFBFFFF 		.word	-1025
 1931 010c 7FFBFFFF 		.word	-1153
 1932 0110 00040140 		.word	1073808384
 1933              		.cfi_endproc
 1934              	.LFE56:
 1936              		.section	.text.HAL_RTCEx_DeactivateWakeUpTimer,"ax",%progbits
 1937              		.align	1
 1938              		.global	HAL_RTCEx_DeactivateWakeUpTimer
 1939              		.syntax unified
 1940              		.code	16
 1941              		.thumb_func
 1942              		.fpu softvfp
 1944              	HAL_RTCEx_DeactivateWakeUpTimer:
 1945              	.LFB57:
1263:Drivers/STM32L0xx_HAL_Driver/Src/stm32l0xx_hal_rtc_ex.c **** 
1264:Drivers/STM32L0xx_HAL_Driver/Src/stm32l0xx_hal_rtc_ex.c **** /**
1265:Drivers/STM32L0xx_HAL_Driver/Src/stm32l0xx_hal_rtc_ex.c ****   * @brief  Deactivate wake up timer counter.
1266:Drivers/STM32L0xx_HAL_Driver/Src/stm32l0xx_hal_rtc_ex.c ****   * @param  hrtc: RTC handle 
1267:Drivers/STM32L0xx_HAL_Driver/Src/stm32l0xx_hal_rtc_ex.c ****   * @retval HAL status
1268:Drivers/STM32L0xx_HAL_Driver/Src/stm32l0xx_hal_rtc_ex.c ****   */
1269:Drivers/STM32L0xx_HAL_Driver/Src/stm32l0xx_hal_rtc_ex.c **** uint32_t HAL_RTCEx_DeactivateWakeUpTimer(RTC_HandleTypeDef *hrtc)
1270:Drivers/STM32L0xx_HAL_Driver/Src/stm32l0xx_hal_rtc_ex.c **** {
 1946              		.loc 1 1270 0
 1947              		.cfi_startproc
 1948              		@ args = 0, pretend = 0, frame = 0
 1949              		@ frame_needed = 0, uses_anonymous_args = 0
 1950              	.LVL142:
 1951 0000 70B5     		push	{r4, r5, r6, lr}
 1952              	.LCFI15:
 1953              		.cfi_def_cfa_offset 16
 1954              		.cfi_offset 4, -16
 1955              		.cfi_offset 5, -12
 1956              		.cfi_offset 6, -8
 1957              		.cfi_offset 14, -4
 1958 0002 0400     		movs	r4, r0
 1959              	.LVL143:
1271:Drivers/STM32L0xx_HAL_Driver/Src/stm32l0xx_hal_rtc_ex.c ****   uint32_t tickstart = 0U;
1272:Drivers/STM32L0xx_HAL_Driver/Src/stm32l0xx_hal_rtc_ex.c **** 
1273:Drivers/STM32L0xx_HAL_Driver/Src/stm32l0xx_hal_rtc_ex.c ****   /* Process Locked */ 
1274:Drivers/STM32L0xx_HAL_Driver/Src/stm32l0xx_hal_rtc_ex.c ****   __HAL_LOCK(hrtc);
 1960              		.loc 1 1274 0
 1961 0004 2023     		movs	r3, #32
 1962 0006 C35C     		ldrb	r3, [r0, r3]
 1963 0008 012B     		cmp	r3, #1
 1964 000a 38D0     		beq	.L132
 1965              		.loc 1 1274 0 is_stmt 0 discriminator 2
 1966 000c 2023     		movs	r3, #32
 1967 000e 0122     		movs	r2, #1
 1968 0010 C254     		strb	r2, [r0, r3]
1275:Drivers/STM32L0xx_HAL_Driver/Src/stm32l0xx_hal_rtc_ex.c **** 
1276:Drivers/STM32L0xx_HAL_Driver/Src/stm32l0xx_hal_rtc_ex.c ****   hrtc->State = HAL_RTC_STATE_BUSY;
 1969              		.loc 1 1276 0 is_stmt 1 discriminator 2
ARM GAS  /var/folders/2m/zqg86yyd4hbf56w83tkxjpvr0000gn/T//ccxnAkOG.s 			page 58


 1970 0012 0133     		adds	r3, r3, #1
 1971 0014 0132     		adds	r2, r2, #1
 1972 0016 C254     		strb	r2, [r0, r3]
1277:Drivers/STM32L0xx_HAL_Driver/Src/stm32l0xx_hal_rtc_ex.c **** 
1278:Drivers/STM32L0xx_HAL_Driver/Src/stm32l0xx_hal_rtc_ex.c ****   /* Disable the write protection for RTC registers */
1279:Drivers/STM32L0xx_HAL_Driver/Src/stm32l0xx_hal_rtc_ex.c ****   __HAL_RTC_WRITEPROTECTION_DISABLE(hrtc);
 1973              		.loc 1 1279 0 discriminator 2
 1974 0018 0368     		ldr	r3, [r0]
 1975 001a C832     		adds	r2, r2, #200
 1976 001c 5A62     		str	r2, [r3, #36]
 1977 001e 0368     		ldr	r3, [r0]
 1978 0020 773A     		subs	r2, r2, #119
 1979 0022 5A62     		str	r2, [r3, #36]
1280:Drivers/STM32L0xx_HAL_Driver/Src/stm32l0xx_hal_rtc_ex.c **** 
1281:Drivers/STM32L0xx_HAL_Driver/Src/stm32l0xx_hal_rtc_ex.c ****   /* Disable the Wakeup Timer */
1282:Drivers/STM32L0xx_HAL_Driver/Src/stm32l0xx_hal_rtc_ex.c ****   __HAL_RTC_WAKEUPTIMER_DISABLE(hrtc);
 1980              		.loc 1 1282 0 discriminator 2
 1981 0024 0268     		ldr	r2, [r0]
 1982 0026 9368     		ldr	r3, [r2, #8]
 1983 0028 1649     		ldr	r1, .L134
 1984 002a 0B40     		ands	r3, r1
 1985 002c 9360     		str	r3, [r2, #8]
1283:Drivers/STM32L0xx_HAL_Driver/Src/stm32l0xx_hal_rtc_ex.c **** 
1284:Drivers/STM32L0xx_HAL_Driver/Src/stm32l0xx_hal_rtc_ex.c ****   /* In case of interrupt mode is used, the interrupt source must disabled */
1285:Drivers/STM32L0xx_HAL_Driver/Src/stm32l0xx_hal_rtc_ex.c ****   __HAL_RTC_WAKEUPTIMER_DISABLE_IT(hrtc,RTC_IT_WUT);
 1986              		.loc 1 1285 0 discriminator 2
 1987 002e 0268     		ldr	r2, [r0]
 1988 0030 9368     		ldr	r3, [r2, #8]
 1989 0032 1549     		ldr	r1, .L134+4
 1990 0034 0B40     		ands	r3, r1
 1991 0036 9360     		str	r3, [r2, #8]
1286:Drivers/STM32L0xx_HAL_Driver/Src/stm32l0xx_hal_rtc_ex.c **** 
1287:Drivers/STM32L0xx_HAL_Driver/Src/stm32l0xx_hal_rtc_ex.c ****   tickstart = HAL_GetTick();
 1992              		.loc 1 1287 0 discriminator 2
 1993 0038 FFF7FEFF 		bl	HAL_GetTick
 1994              	.LVL144:
 1995 003c 0500     		movs	r5, r0
 1996              	.LVL145:
 1997              	.L130:
1288:Drivers/STM32L0xx_HAL_Driver/Src/stm32l0xx_hal_rtc_ex.c ****   /* Wait till RTC WUTWF flag is set and if Time out is reached exit */
1289:Drivers/STM32L0xx_HAL_Driver/Src/stm32l0xx_hal_rtc_ex.c ****   while(__HAL_RTC_WAKEUPTIMER_GET_FLAG(hrtc, RTC_FLAG_WUTWF) == RESET)
 1998              		.loc 1 1289 0
 1999 003e 2368     		ldr	r3, [r4]
 2000 0040 DA68     		ldr	r2, [r3, #12]
 2001 0042 5207     		lsls	r2, r2, #29
 2002 0044 11D4     		bmi	.L133
1290:Drivers/STM32L0xx_HAL_Driver/Src/stm32l0xx_hal_rtc_ex.c ****   {
1291:Drivers/STM32L0xx_HAL_Driver/Src/stm32l0xx_hal_rtc_ex.c ****     if((HAL_GetTick() - tickstart ) > RTC_TIMEOUT_VALUE)
 2003              		.loc 1 1291 0
 2004 0046 FFF7FEFF 		bl	HAL_GetTick
 2005              	.LVL146:
 2006 004a 401B     		subs	r0, r0, r5
 2007 004c FA23     		movs	r3, #250
 2008 004e 9B00     		lsls	r3, r3, #2
 2009 0050 9842     		cmp	r0, r3
 2010 0052 F4D9     		bls	.L130
1292:Drivers/STM32L0xx_HAL_Driver/Src/stm32l0xx_hal_rtc_ex.c ****     {
ARM GAS  /var/folders/2m/zqg86yyd4hbf56w83tkxjpvr0000gn/T//ccxnAkOG.s 			page 59


1293:Drivers/STM32L0xx_HAL_Driver/Src/stm32l0xx_hal_rtc_ex.c ****       /* Enable the write protection for RTC registers */
1294:Drivers/STM32L0xx_HAL_Driver/Src/stm32l0xx_hal_rtc_ex.c ****       __HAL_RTC_WRITEPROTECTION_ENABLE(hrtc);
 2011              		.loc 1 1294 0
 2012 0054 2368     		ldr	r3, [r4]
 2013 0056 FF22     		movs	r2, #255
 2014 0058 5A62     		str	r2, [r3, #36]
1295:Drivers/STM32L0xx_HAL_Driver/Src/stm32l0xx_hal_rtc_ex.c **** 
1296:Drivers/STM32L0xx_HAL_Driver/Src/stm32l0xx_hal_rtc_ex.c ****       hrtc->State = HAL_RTC_STATE_TIMEOUT;
 2015              		.loc 1 1296 0
 2016 005a 2123     		movs	r3, #33
 2017 005c FC3A     		subs	r2, r2, #252
 2018 005e E254     		strb	r2, [r4, r3]
1297:Drivers/STM32L0xx_HAL_Driver/Src/stm32l0xx_hal_rtc_ex.c **** 
1298:Drivers/STM32L0xx_HAL_Driver/Src/stm32l0xx_hal_rtc_ex.c ****       /* Process Unlocked */
1299:Drivers/STM32L0xx_HAL_Driver/Src/stm32l0xx_hal_rtc_ex.c ****       __HAL_UNLOCK(hrtc);
 2019              		.loc 1 1299 0
 2020 0060 013B     		subs	r3, r3, #1
 2021 0062 0022     		movs	r2, #0
 2022 0064 E254     		strb	r2, [r4, r3]
1300:Drivers/STM32L0xx_HAL_Driver/Src/stm32l0xx_hal_rtc_ex.c **** 
1301:Drivers/STM32L0xx_HAL_Driver/Src/stm32l0xx_hal_rtc_ex.c ****       return HAL_TIMEOUT;
 2023              		.loc 1 1301 0
 2024 0066 0320     		movs	r0, #3
 2025 0068 08E0     		b	.L128
 2026              	.L133:
1302:Drivers/STM32L0xx_HAL_Driver/Src/stm32l0xx_hal_rtc_ex.c ****     }
1303:Drivers/STM32L0xx_HAL_Driver/Src/stm32l0xx_hal_rtc_ex.c ****   }
1304:Drivers/STM32L0xx_HAL_Driver/Src/stm32l0xx_hal_rtc_ex.c **** 
1305:Drivers/STM32L0xx_HAL_Driver/Src/stm32l0xx_hal_rtc_ex.c ****   /* Enable the write protection for RTC registers */
1306:Drivers/STM32L0xx_HAL_Driver/Src/stm32l0xx_hal_rtc_ex.c ****   __HAL_RTC_WRITEPROTECTION_ENABLE(hrtc);
 2027              		.loc 1 1306 0
 2028 006a FF22     		movs	r2, #255
 2029 006c 5A62     		str	r2, [r3, #36]
1307:Drivers/STM32L0xx_HAL_Driver/Src/stm32l0xx_hal_rtc_ex.c **** 
1308:Drivers/STM32L0xx_HAL_Driver/Src/stm32l0xx_hal_rtc_ex.c ****   hrtc->State = HAL_RTC_STATE_READY;
 2030              		.loc 1 1308 0
 2031 006e 2123     		movs	r3, #33
 2032 0070 FE3A     		subs	r2, r2, #254
 2033 0072 E254     		strb	r2, [r4, r3]
1309:Drivers/STM32L0xx_HAL_Driver/Src/stm32l0xx_hal_rtc_ex.c **** 
1310:Drivers/STM32L0xx_HAL_Driver/Src/stm32l0xx_hal_rtc_ex.c ****   /* Process Unlocked */
1311:Drivers/STM32L0xx_HAL_Driver/Src/stm32l0xx_hal_rtc_ex.c ****   __HAL_UNLOCK(hrtc);
 2034              		.loc 1 1311 0
 2035 0074 013B     		subs	r3, r3, #1
 2036 0076 0022     		movs	r2, #0
 2037 0078 E254     		strb	r2, [r4, r3]
1312:Drivers/STM32L0xx_HAL_Driver/Src/stm32l0xx_hal_rtc_ex.c **** 
1313:Drivers/STM32L0xx_HAL_Driver/Src/stm32l0xx_hal_rtc_ex.c ****   return HAL_OK;
 2038              		.loc 1 1313 0
 2039 007a 0020     		movs	r0, #0
 2040              	.LVL147:
 2041              	.L128:
1314:Drivers/STM32L0xx_HAL_Driver/Src/stm32l0xx_hal_rtc_ex.c **** }
 2042              		.loc 1 1314 0
 2043              		@ sp needed
 2044              	.LVL148:
 2045 007c 70BD     		pop	{r4, r5, r6, pc}
ARM GAS  /var/folders/2m/zqg86yyd4hbf56w83tkxjpvr0000gn/T//ccxnAkOG.s 			page 60


 2046              	.LVL149:
 2047              	.L132:
1274:Drivers/STM32L0xx_HAL_Driver/Src/stm32l0xx_hal_rtc_ex.c **** 
 2048              		.loc 1 1274 0
 2049 007e 0220     		movs	r0, #2
 2050              	.LVL150:
 2051 0080 FCE7     		b	.L128
 2052              	.L135:
 2053 0082 C046     		.align	2
 2054              	.L134:
 2055 0084 FFFBFFFF 		.word	-1025
 2056 0088 FFBFFFFF 		.word	-16385
 2057              		.cfi_endproc
 2058              	.LFE57:
 2060              		.section	.text.HAL_RTCEx_GetWakeUpTimer,"ax",%progbits
 2061              		.align	1
 2062              		.global	HAL_RTCEx_GetWakeUpTimer
 2063              		.syntax unified
 2064              		.code	16
 2065              		.thumb_func
 2066              		.fpu softvfp
 2068              	HAL_RTCEx_GetWakeUpTimer:
 2069              	.LFB58:
1315:Drivers/STM32L0xx_HAL_Driver/Src/stm32l0xx_hal_rtc_ex.c **** 
1316:Drivers/STM32L0xx_HAL_Driver/Src/stm32l0xx_hal_rtc_ex.c **** /**
1317:Drivers/STM32L0xx_HAL_Driver/Src/stm32l0xx_hal_rtc_ex.c ****   * @brief  Get wake up timer counter.
1318:Drivers/STM32L0xx_HAL_Driver/Src/stm32l0xx_hal_rtc_ex.c ****   * @param  hrtc: RTC handle 
1319:Drivers/STM32L0xx_HAL_Driver/Src/stm32l0xx_hal_rtc_ex.c ****   * @retval Counter value
1320:Drivers/STM32L0xx_HAL_Driver/Src/stm32l0xx_hal_rtc_ex.c ****   */
1321:Drivers/STM32L0xx_HAL_Driver/Src/stm32l0xx_hal_rtc_ex.c **** uint32_t HAL_RTCEx_GetWakeUpTimer(RTC_HandleTypeDef *hrtc)
1322:Drivers/STM32L0xx_HAL_Driver/Src/stm32l0xx_hal_rtc_ex.c **** {
 2070              		.loc 1 1322 0
 2071              		.cfi_startproc
 2072              		@ args = 0, pretend = 0, frame = 0
 2073              		@ frame_needed = 0, uses_anonymous_args = 0
 2074              		@ link register save eliminated.
 2075              	.LVL151:
1323:Drivers/STM32L0xx_HAL_Driver/Src/stm32l0xx_hal_rtc_ex.c ****   /* Get the counter value */
1324:Drivers/STM32L0xx_HAL_Driver/Src/stm32l0xx_hal_rtc_ex.c ****   return ((uint32_t)(hrtc->Instance->WUTR & RTC_WUTR_WUT));
 2076              		.loc 1 1324 0
 2077 0000 0368     		ldr	r3, [r0]
 2078 0002 5869     		ldr	r0, [r3, #20]
 2079              	.LVL152:
 2080 0004 0004     		lsls	r0, r0, #16
 2081 0006 000C     		lsrs	r0, r0, #16
1325:Drivers/STM32L0xx_HAL_Driver/Src/stm32l0xx_hal_rtc_ex.c **** }
 2082              		.loc 1 1325 0
 2083              		@ sp needed
 2084 0008 7047     		bx	lr
 2085              		.cfi_endproc
 2086              	.LFE58:
 2088              		.section	.text.HAL_RTCEx_WakeUpTimerEventCallback,"ax",%progbits
 2089              		.align	1
 2090              		.weak	HAL_RTCEx_WakeUpTimerEventCallback
 2091              		.syntax unified
 2092              		.code	16
 2093              		.thumb_func
ARM GAS  /var/folders/2m/zqg86yyd4hbf56w83tkxjpvr0000gn/T//ccxnAkOG.s 			page 61


 2094              		.fpu softvfp
 2096              	HAL_RTCEx_WakeUpTimerEventCallback:
 2097              	.LFB60:
1326:Drivers/STM32L0xx_HAL_Driver/Src/stm32l0xx_hal_rtc_ex.c **** 
1327:Drivers/STM32L0xx_HAL_Driver/Src/stm32l0xx_hal_rtc_ex.c **** /**
1328:Drivers/STM32L0xx_HAL_Driver/Src/stm32l0xx_hal_rtc_ex.c ****   * @brief  Handle Wake Up Timer interrupt request.
1329:Drivers/STM32L0xx_HAL_Driver/Src/stm32l0xx_hal_rtc_ex.c ****   * @param  hrtc: RTC handle
1330:Drivers/STM32L0xx_HAL_Driver/Src/stm32l0xx_hal_rtc_ex.c ****   * @retval None
1331:Drivers/STM32L0xx_HAL_Driver/Src/stm32l0xx_hal_rtc_ex.c ****   */
1332:Drivers/STM32L0xx_HAL_Driver/Src/stm32l0xx_hal_rtc_ex.c **** void HAL_RTCEx_WakeUpTimerIRQHandler(RTC_HandleTypeDef *hrtc)
1333:Drivers/STM32L0xx_HAL_Driver/Src/stm32l0xx_hal_rtc_ex.c **** {  
1334:Drivers/STM32L0xx_HAL_Driver/Src/stm32l0xx_hal_rtc_ex.c ****     /* Get the pending status of the WAKEUPTIMER Interrupt */
1335:Drivers/STM32L0xx_HAL_Driver/Src/stm32l0xx_hal_rtc_ex.c ****     if(__HAL_RTC_WAKEUPTIMER_GET_FLAG(hrtc, RTC_FLAG_WUTF) != RESET)
1336:Drivers/STM32L0xx_HAL_Driver/Src/stm32l0xx_hal_rtc_ex.c ****     {
1337:Drivers/STM32L0xx_HAL_Driver/Src/stm32l0xx_hal_rtc_ex.c ****       /* WAKEUPTIMER callback */ 
1338:Drivers/STM32L0xx_HAL_Driver/Src/stm32l0xx_hal_rtc_ex.c ****       HAL_RTCEx_WakeUpTimerEventCallback(hrtc);
1339:Drivers/STM32L0xx_HAL_Driver/Src/stm32l0xx_hal_rtc_ex.c ****       
1340:Drivers/STM32L0xx_HAL_Driver/Src/stm32l0xx_hal_rtc_ex.c ****       /* Clear the WAKEUPTIMER interrupt pending bit */
1341:Drivers/STM32L0xx_HAL_Driver/Src/stm32l0xx_hal_rtc_ex.c ****       __HAL_RTC_WAKEUPTIMER_CLEAR_FLAG(hrtc, RTC_FLAG_WUTF);
1342:Drivers/STM32L0xx_HAL_Driver/Src/stm32l0xx_hal_rtc_ex.c ****     }
1343:Drivers/STM32L0xx_HAL_Driver/Src/stm32l0xx_hal_rtc_ex.c **** 
1344:Drivers/STM32L0xx_HAL_Driver/Src/stm32l0xx_hal_rtc_ex.c **** 
1345:Drivers/STM32L0xx_HAL_Driver/Src/stm32l0xx_hal_rtc_ex.c ****   /* Clear the EXTI's line Flag for RTC WakeUpTimer */
1346:Drivers/STM32L0xx_HAL_Driver/Src/stm32l0xx_hal_rtc_ex.c ****   __HAL_RTC_WAKEUPTIMER_EXTI_CLEAR_FLAG();
1347:Drivers/STM32L0xx_HAL_Driver/Src/stm32l0xx_hal_rtc_ex.c ****   
1348:Drivers/STM32L0xx_HAL_Driver/Src/stm32l0xx_hal_rtc_ex.c ****   /* Change RTC state */
1349:Drivers/STM32L0xx_HAL_Driver/Src/stm32l0xx_hal_rtc_ex.c ****   hrtc->State = HAL_RTC_STATE_READY;
1350:Drivers/STM32L0xx_HAL_Driver/Src/stm32l0xx_hal_rtc_ex.c **** }
1351:Drivers/STM32L0xx_HAL_Driver/Src/stm32l0xx_hal_rtc_ex.c **** 
1352:Drivers/STM32L0xx_HAL_Driver/Src/stm32l0xx_hal_rtc_ex.c **** /**
1353:Drivers/STM32L0xx_HAL_Driver/Src/stm32l0xx_hal_rtc_ex.c ****   * @brief  Wake Up Timer callback.
1354:Drivers/STM32L0xx_HAL_Driver/Src/stm32l0xx_hal_rtc_ex.c ****   * @param  hrtc: RTC handle
1355:Drivers/STM32L0xx_HAL_Driver/Src/stm32l0xx_hal_rtc_ex.c ****   * @retval None
1356:Drivers/STM32L0xx_HAL_Driver/Src/stm32l0xx_hal_rtc_ex.c ****   */
1357:Drivers/STM32L0xx_HAL_Driver/Src/stm32l0xx_hal_rtc_ex.c **** __weak void HAL_RTCEx_WakeUpTimerEventCallback(RTC_HandleTypeDef *hrtc)
1358:Drivers/STM32L0xx_HAL_Driver/Src/stm32l0xx_hal_rtc_ex.c **** {
 2098              		.loc 1 1358 0
 2099              		.cfi_startproc
 2100              		@ args = 0, pretend = 0, frame = 0
 2101              		@ frame_needed = 0, uses_anonymous_args = 0
 2102              		@ link register save eliminated.
 2103              	.LVL153:
1359:Drivers/STM32L0xx_HAL_Driver/Src/stm32l0xx_hal_rtc_ex.c ****   /* Prevent unused argument(s) compilation warning */
1360:Drivers/STM32L0xx_HAL_Driver/Src/stm32l0xx_hal_rtc_ex.c ****   UNUSED(hrtc);
1361:Drivers/STM32L0xx_HAL_Driver/Src/stm32l0xx_hal_rtc_ex.c **** 
1362:Drivers/STM32L0xx_HAL_Driver/Src/stm32l0xx_hal_rtc_ex.c ****   /* NOTE : This function should not be modified, when the callback is needed,
1363:Drivers/STM32L0xx_HAL_Driver/Src/stm32l0xx_hal_rtc_ex.c ****             the HAL_RTCEx_WakeUpTimerEventCallback could be implemented in the user file
1364:Drivers/STM32L0xx_HAL_Driver/Src/stm32l0xx_hal_rtc_ex.c ****    */
1365:Drivers/STM32L0xx_HAL_Driver/Src/stm32l0xx_hal_rtc_ex.c **** }
 2104              		.loc 1 1365 0
 2105              		@ sp needed
 2106 0000 7047     		bx	lr
 2107              		.cfi_endproc
 2108              	.LFE60:
 2110              		.section	.text.HAL_RTCEx_WakeUpTimerIRQHandler,"ax",%progbits
 2111              		.align	1
 2112              		.global	HAL_RTCEx_WakeUpTimerIRQHandler
ARM GAS  /var/folders/2m/zqg86yyd4hbf56w83tkxjpvr0000gn/T//ccxnAkOG.s 			page 62


 2113              		.syntax unified
 2114              		.code	16
 2115              		.thumb_func
 2116              		.fpu softvfp
 2118              	HAL_RTCEx_WakeUpTimerIRQHandler:
 2119              	.LFB59:
1333:Drivers/STM32L0xx_HAL_Driver/Src/stm32l0xx_hal_rtc_ex.c ****     /* Get the pending status of the WAKEUPTIMER Interrupt */
 2120              		.loc 1 1333 0
 2121              		.cfi_startproc
 2122              		@ args = 0, pretend = 0, frame = 0
 2123              		@ frame_needed = 0, uses_anonymous_args = 0
 2124              	.LVL154:
 2125 0000 10B5     		push	{r4, lr}
 2126              	.LCFI16:
 2127              		.cfi_def_cfa_offset 8
 2128              		.cfi_offset 4, -8
 2129              		.cfi_offset 14, -4
 2130 0002 0400     		movs	r4, r0
1335:Drivers/STM32L0xx_HAL_Driver/Src/stm32l0xx_hal_rtc_ex.c ****     {
 2131              		.loc 1 1335 0
 2132 0004 0368     		ldr	r3, [r0]
 2133 0006 DB68     		ldr	r3, [r3, #12]
 2134 0008 5B05     		lsls	r3, r3, #21
 2135 000a 07D4     		bmi	.L140
 2136              	.LVL155:
 2137              	.L139:
1346:Drivers/STM32L0xx_HAL_Driver/Src/stm32l0xx_hal_rtc_ex.c ****   
 2138              		.loc 1 1346 0
 2139 000c 084B     		ldr	r3, .L141
 2140 000e 8022     		movs	r2, #128
 2141 0010 5203     		lsls	r2, r2, #13
 2142 0012 5A61     		str	r2, [r3, #20]
1349:Drivers/STM32L0xx_HAL_Driver/Src/stm32l0xx_hal_rtc_ex.c **** }
 2143              		.loc 1 1349 0
 2144 0014 2123     		movs	r3, #33
 2145 0016 0122     		movs	r2, #1
 2146 0018 E254     		strb	r2, [r4, r3]
1350:Drivers/STM32L0xx_HAL_Driver/Src/stm32l0xx_hal_rtc_ex.c **** 
 2147              		.loc 1 1350 0
 2148              		@ sp needed
 2149              	.LVL156:
 2150 001a 10BD     		pop	{r4, pc}
 2151              	.LVL157:
 2152              	.L140:
1338:Drivers/STM32L0xx_HAL_Driver/Src/stm32l0xx_hal_rtc_ex.c ****       
 2153              		.loc 1 1338 0
 2154 001c FFF7FEFF 		bl	HAL_RTCEx_WakeUpTimerEventCallback
 2155              	.LVL158:
1341:Drivers/STM32L0xx_HAL_Driver/Src/stm32l0xx_hal_rtc_ex.c ****     }
 2156              		.loc 1 1341 0
 2157 0020 2168     		ldr	r1, [r4]
 2158 0022 CA68     		ldr	r2, [r1, #12]
 2159 0024 FF23     		movs	r3, #255
 2160 0026 1A40     		ands	r2, r3
 2161 0028 024B     		ldr	r3, .L141+4
 2162 002a 1343     		orrs	r3, r2
 2163 002c CB60     		str	r3, [r1, #12]
ARM GAS  /var/folders/2m/zqg86yyd4hbf56w83tkxjpvr0000gn/T//ccxnAkOG.s 			page 63


 2164 002e EDE7     		b	.L139
 2165              	.L142:
 2166              		.align	2
 2167              	.L141:
 2168 0030 00040140 		.word	1073808384
 2169 0034 7FFBFFFF 		.word	-1153
 2170              		.cfi_endproc
 2171              	.LFE59:
 2173              		.section	.text.HAL_RTCEx_PollForWakeUpTimerEvent,"ax",%progbits
 2174              		.align	1
 2175              		.global	HAL_RTCEx_PollForWakeUpTimerEvent
 2176              		.syntax unified
 2177              		.code	16
 2178              		.thumb_func
 2179              		.fpu softvfp
 2181              	HAL_RTCEx_PollForWakeUpTimerEvent:
 2182              	.LFB61:
1366:Drivers/STM32L0xx_HAL_Driver/Src/stm32l0xx_hal_rtc_ex.c **** 
1367:Drivers/STM32L0xx_HAL_Driver/Src/stm32l0xx_hal_rtc_ex.c **** 
1368:Drivers/STM32L0xx_HAL_Driver/Src/stm32l0xx_hal_rtc_ex.c **** /**
1369:Drivers/STM32L0xx_HAL_Driver/Src/stm32l0xx_hal_rtc_ex.c ****   * @brief  Handle Wake Up Timer Polling.
1370:Drivers/STM32L0xx_HAL_Driver/Src/stm32l0xx_hal_rtc_ex.c ****   * @param  hrtc: RTC handle
1371:Drivers/STM32L0xx_HAL_Driver/Src/stm32l0xx_hal_rtc_ex.c ****   * @param  Timeout: Timeout duration
1372:Drivers/STM32L0xx_HAL_Driver/Src/stm32l0xx_hal_rtc_ex.c ****   * @retval HAL status
1373:Drivers/STM32L0xx_HAL_Driver/Src/stm32l0xx_hal_rtc_ex.c ****   */
1374:Drivers/STM32L0xx_HAL_Driver/Src/stm32l0xx_hal_rtc_ex.c **** HAL_StatusTypeDef HAL_RTCEx_PollForWakeUpTimerEvent(RTC_HandleTypeDef *hrtc, uint32_t Timeout)
1375:Drivers/STM32L0xx_HAL_Driver/Src/stm32l0xx_hal_rtc_ex.c **** {
 2183              		.loc 1 1375 0
 2184              		.cfi_startproc
 2185              		@ args = 0, pretend = 0, frame = 0
 2186              		@ frame_needed = 0, uses_anonymous_args = 0
 2187              	.LVL159:
 2188 0000 70B5     		push	{r4, r5, r6, lr}
 2189              	.LCFI17:
 2190              		.cfi_def_cfa_offset 16
 2191              		.cfi_offset 4, -16
 2192              		.cfi_offset 5, -12
 2193              		.cfi_offset 6, -8
 2194              		.cfi_offset 14, -4
 2195 0002 0400     		movs	r4, r0
 2196 0004 0D00     		movs	r5, r1
1376:Drivers/STM32L0xx_HAL_Driver/Src/stm32l0xx_hal_rtc_ex.c ****   uint32_t tickstart = HAL_GetTick();
 2197              		.loc 1 1376 0
 2198 0006 FFF7FEFF 		bl	HAL_GetTick
 2199              	.LVL160:
 2200 000a 0600     		movs	r6, r0
 2201              	.LVL161:
 2202              	.L145:
1377:Drivers/STM32L0xx_HAL_Driver/Src/stm32l0xx_hal_rtc_ex.c **** 
1378:Drivers/STM32L0xx_HAL_Driver/Src/stm32l0xx_hal_rtc_ex.c ****   while(__HAL_RTC_WAKEUPTIMER_GET_FLAG(hrtc, RTC_FLAG_WUTF) == RESET)
 2203              		.loc 1 1378 0
 2204 000c 2368     		ldr	r3, [r4]
 2205 000e DA68     		ldr	r2, [r3, #12]
 2206 0010 5205     		lsls	r2, r2, #21
 2207 0012 0DD4     		bmi	.L149
1379:Drivers/STM32L0xx_HAL_Driver/Src/stm32l0xx_hal_rtc_ex.c ****   {
1380:Drivers/STM32L0xx_HAL_Driver/Src/stm32l0xx_hal_rtc_ex.c ****     if(Timeout != HAL_MAX_DELAY)
ARM GAS  /var/folders/2m/zqg86yyd4hbf56w83tkxjpvr0000gn/T//ccxnAkOG.s 			page 64


 2208              		.loc 1 1380 0
 2209 0014 6B1C     		adds	r3, r5, #1
 2210 0016 F9D0     		beq	.L145
1381:Drivers/STM32L0xx_HAL_Driver/Src/stm32l0xx_hal_rtc_ex.c ****     {
1382:Drivers/STM32L0xx_HAL_Driver/Src/stm32l0xx_hal_rtc_ex.c ****       if((Timeout == 0U)||((HAL_GetTick() - tickstart ) > Timeout))
 2211              		.loc 1 1382 0
 2212 0018 002D     		cmp	r5, #0
 2213 001a 04D0     		beq	.L146
 2214              		.loc 1 1382 0 is_stmt 0 discriminator 1
 2215 001c FFF7FEFF 		bl	HAL_GetTick
 2216              	.LVL162:
 2217 0020 801B     		subs	r0, r0, r6
 2218 0022 A842     		cmp	r0, r5
 2219 0024 F2D9     		bls	.L145
 2220              	.L146:
1383:Drivers/STM32L0xx_HAL_Driver/Src/stm32l0xx_hal_rtc_ex.c ****       {
1384:Drivers/STM32L0xx_HAL_Driver/Src/stm32l0xx_hal_rtc_ex.c ****         hrtc->State = HAL_RTC_STATE_TIMEOUT;
 2221              		.loc 1 1384 0 is_stmt 1
 2222 0026 2123     		movs	r3, #33
 2223 0028 0322     		movs	r2, #3
 2224 002a E254     		strb	r2, [r4, r3]
1385:Drivers/STM32L0xx_HAL_Driver/Src/stm32l0xx_hal_rtc_ex.c ****       
1386:Drivers/STM32L0xx_HAL_Driver/Src/stm32l0xx_hal_rtc_ex.c ****         return HAL_TIMEOUT;
 2225              		.loc 1 1386 0
 2226 002c 0320     		movs	r0, #3
 2227 002e 09E0     		b	.L147
 2228              	.L149:
1387:Drivers/STM32L0xx_HAL_Driver/Src/stm32l0xx_hal_rtc_ex.c ****       }
1388:Drivers/STM32L0xx_HAL_Driver/Src/stm32l0xx_hal_rtc_ex.c ****     }
1389:Drivers/STM32L0xx_HAL_Driver/Src/stm32l0xx_hal_rtc_ex.c ****   }
1390:Drivers/STM32L0xx_HAL_Driver/Src/stm32l0xx_hal_rtc_ex.c **** 
1391:Drivers/STM32L0xx_HAL_Driver/Src/stm32l0xx_hal_rtc_ex.c ****   /* Clear the WAKEUPTIMER Flag */
1392:Drivers/STM32L0xx_HAL_Driver/Src/stm32l0xx_hal_rtc_ex.c ****   __HAL_RTC_WAKEUPTIMER_CLEAR_FLAG(hrtc, RTC_FLAG_WUTF);
 2229              		.loc 1 1392 0
 2230 0030 D968     		ldr	r1, [r3, #12]
 2231 0032 FF22     		movs	r2, #255
 2232 0034 1140     		ands	r1, r2
 2233 0036 044A     		ldr	r2, .L150
 2234 0038 0A43     		orrs	r2, r1
 2235 003a DA60     		str	r2, [r3, #12]
1393:Drivers/STM32L0xx_HAL_Driver/Src/stm32l0xx_hal_rtc_ex.c ****   
1394:Drivers/STM32L0xx_HAL_Driver/Src/stm32l0xx_hal_rtc_ex.c ****   /* Change RTC state */
1395:Drivers/STM32L0xx_HAL_Driver/Src/stm32l0xx_hal_rtc_ex.c ****   hrtc->State = HAL_RTC_STATE_READY;
 2236              		.loc 1 1395 0
 2237 003c 2123     		movs	r3, #33
 2238 003e 0122     		movs	r2, #1
 2239 0040 E254     		strb	r2, [r4, r3]
1396:Drivers/STM32L0xx_HAL_Driver/Src/stm32l0xx_hal_rtc_ex.c **** 
1397:Drivers/STM32L0xx_HAL_Driver/Src/stm32l0xx_hal_rtc_ex.c ****   return HAL_OK;
 2240              		.loc 1 1397 0
 2241 0042 0020     		movs	r0, #0
 2242              	.L147:
1398:Drivers/STM32L0xx_HAL_Driver/Src/stm32l0xx_hal_rtc_ex.c **** }
 2243              		.loc 1 1398 0
 2244              		@ sp needed
 2245              	.LVL163:
 2246              	.LVL164:
ARM GAS  /var/folders/2m/zqg86yyd4hbf56w83tkxjpvr0000gn/T//ccxnAkOG.s 			page 65


 2247              	.LVL165:
 2248 0044 70BD     		pop	{r4, r5, r6, pc}
 2249              	.L151:
 2250 0046 C046     		.align	2
 2251              	.L150:
 2252 0048 7FFBFFFF 		.word	-1153
 2253              		.cfi_endproc
 2254              	.LFE61:
 2256              		.section	.text.HAL_RTCEx_BKUPWrite,"ax",%progbits
 2257              		.align	1
 2258              		.global	HAL_RTCEx_BKUPWrite
 2259              		.syntax unified
 2260              		.code	16
 2261              		.thumb_func
 2262              		.fpu softvfp
 2264              	HAL_RTCEx_BKUPWrite:
 2265              	.LFB62:
1399:Drivers/STM32L0xx_HAL_Driver/Src/stm32l0xx_hal_rtc_ex.c **** 
1400:Drivers/STM32L0xx_HAL_Driver/Src/stm32l0xx_hal_rtc_ex.c **** /**
1401:Drivers/STM32L0xx_HAL_Driver/Src/stm32l0xx_hal_rtc_ex.c ****   * @}
1402:Drivers/STM32L0xx_HAL_Driver/Src/stm32l0xx_hal_rtc_ex.c ****   */
1403:Drivers/STM32L0xx_HAL_Driver/Src/stm32l0xx_hal_rtc_ex.c **** 
1404:Drivers/STM32L0xx_HAL_Driver/Src/stm32l0xx_hal_rtc_ex.c **** 
1405:Drivers/STM32L0xx_HAL_Driver/Src/stm32l0xx_hal_rtc_ex.c **** /** @addtogroup RTCEx_Exported_Functions_Group3
1406:Drivers/STM32L0xx_HAL_Driver/Src/stm32l0xx_hal_rtc_ex.c ****   * @brief    Extended Peripheral Control functions
1407:Drivers/STM32L0xx_HAL_Driver/Src/stm32l0xx_hal_rtc_ex.c ****   *
1408:Drivers/STM32L0xx_HAL_Driver/Src/stm32l0xx_hal_rtc_ex.c **** @verbatim   
1409:Drivers/STM32L0xx_HAL_Driver/Src/stm32l0xx_hal_rtc_ex.c ****  ===============================================================================
1410:Drivers/STM32L0xx_HAL_Driver/Src/stm32l0xx_hal_rtc_ex.c ****               ##### Extended Peripheral Control functions #####
1411:Drivers/STM32L0xx_HAL_Driver/Src/stm32l0xx_hal_rtc_ex.c ****  ===============================================================================  
1412:Drivers/STM32L0xx_HAL_Driver/Src/stm32l0xx_hal_rtc_ex.c ****     [..]
1413:Drivers/STM32L0xx_HAL_Driver/Src/stm32l0xx_hal_rtc_ex.c ****     This subsection provides functions allowing to
1414:Drivers/STM32L0xx_HAL_Driver/Src/stm32l0xx_hal_rtc_ex.c ****       (+) Write a data in a specified RTC Backup data register
1415:Drivers/STM32L0xx_HAL_Driver/Src/stm32l0xx_hal_rtc_ex.c ****       (+) Read a data in a specified RTC Backup data register
1416:Drivers/STM32L0xx_HAL_Driver/Src/stm32l0xx_hal_rtc_ex.c ****       (+) Set the Coarse calibration parameters.
1417:Drivers/STM32L0xx_HAL_Driver/Src/stm32l0xx_hal_rtc_ex.c ****       (+) Deactivate the Coarse calibration parameters
1418:Drivers/STM32L0xx_HAL_Driver/Src/stm32l0xx_hal_rtc_ex.c ****       (+) Set the Smooth calibration parameters.
1419:Drivers/STM32L0xx_HAL_Driver/Src/stm32l0xx_hal_rtc_ex.c ****       (+) Configure the Synchronization Shift Control Settings.
1420:Drivers/STM32L0xx_HAL_Driver/Src/stm32l0xx_hal_rtc_ex.c ****       (+) Configure the Calibration Pinout (RTC_CALIB) Selection (1Hz or 512Hz).
1421:Drivers/STM32L0xx_HAL_Driver/Src/stm32l0xx_hal_rtc_ex.c ****       (+) Deactivate the Calibration Pinout (RTC_CALIB) Selection (1Hz or 512Hz).
1422:Drivers/STM32L0xx_HAL_Driver/Src/stm32l0xx_hal_rtc_ex.c ****       (+) Enable the RTC reference clock detection.
1423:Drivers/STM32L0xx_HAL_Driver/Src/stm32l0xx_hal_rtc_ex.c ****       (+) Disable the RTC reference clock detection.
1424:Drivers/STM32L0xx_HAL_Driver/Src/stm32l0xx_hal_rtc_ex.c ****       (+) Enable the Bypass Shadow feature.
1425:Drivers/STM32L0xx_HAL_Driver/Src/stm32l0xx_hal_rtc_ex.c ****       (+) Disable the Bypass Shadow feature.
1426:Drivers/STM32L0xx_HAL_Driver/Src/stm32l0xx_hal_rtc_ex.c **** 
1427:Drivers/STM32L0xx_HAL_Driver/Src/stm32l0xx_hal_rtc_ex.c **** @endverbatim
1428:Drivers/STM32L0xx_HAL_Driver/Src/stm32l0xx_hal_rtc_ex.c ****   * @{
1429:Drivers/STM32L0xx_HAL_Driver/Src/stm32l0xx_hal_rtc_ex.c ****   */
1430:Drivers/STM32L0xx_HAL_Driver/Src/stm32l0xx_hal_rtc_ex.c **** 
1431:Drivers/STM32L0xx_HAL_Driver/Src/stm32l0xx_hal_rtc_ex.c **** /**
1432:Drivers/STM32L0xx_HAL_Driver/Src/stm32l0xx_hal_rtc_ex.c ****   * @brief  Write a data in a specified RTC Backup data register.
1433:Drivers/STM32L0xx_HAL_Driver/Src/stm32l0xx_hal_rtc_ex.c ****   * @param  hrtc: RTC handle 
1434:Drivers/STM32L0xx_HAL_Driver/Src/stm32l0xx_hal_rtc_ex.c ****   * @param  BackupRegister: RTC Backup data Register number.
1435:Drivers/STM32L0xx_HAL_Driver/Src/stm32l0xx_hal_rtc_ex.c ****   *          This parameter can be: RTC_BKP_DRx where x can be from 0 to 19 to 
1436:Drivers/STM32L0xx_HAL_Driver/Src/stm32l0xx_hal_rtc_ex.c ****   *                                 specify the register.
1437:Drivers/STM32L0xx_HAL_Driver/Src/stm32l0xx_hal_rtc_ex.c ****   * @param  Data: Data to be written in the specified RTC Backup data register.
1438:Drivers/STM32L0xx_HAL_Driver/Src/stm32l0xx_hal_rtc_ex.c ****   * @retval None
ARM GAS  /var/folders/2m/zqg86yyd4hbf56w83tkxjpvr0000gn/T//ccxnAkOG.s 			page 66


1439:Drivers/STM32L0xx_HAL_Driver/Src/stm32l0xx_hal_rtc_ex.c ****   */
1440:Drivers/STM32L0xx_HAL_Driver/Src/stm32l0xx_hal_rtc_ex.c **** void HAL_RTCEx_BKUPWrite(RTC_HandleTypeDef *hrtc, uint32_t BackupRegister, uint32_t Data)
1441:Drivers/STM32L0xx_HAL_Driver/Src/stm32l0xx_hal_rtc_ex.c **** {
 2266              		.loc 1 1441 0
 2267              		.cfi_startproc
 2268              		@ args = 0, pretend = 0, frame = 0
 2269              		@ frame_needed = 0, uses_anonymous_args = 0
 2270              		@ link register save eliminated.
 2271              	.LVL166:
1442:Drivers/STM32L0xx_HAL_Driver/Src/stm32l0xx_hal_rtc_ex.c ****   uint32_t tmp = 0U;
1443:Drivers/STM32L0xx_HAL_Driver/Src/stm32l0xx_hal_rtc_ex.c **** 
1444:Drivers/STM32L0xx_HAL_Driver/Src/stm32l0xx_hal_rtc_ex.c ****   /* Check the parameters */
1445:Drivers/STM32L0xx_HAL_Driver/Src/stm32l0xx_hal_rtc_ex.c ****   assert_param(IS_RTC_BKP(BackupRegister));
1446:Drivers/STM32L0xx_HAL_Driver/Src/stm32l0xx_hal_rtc_ex.c **** 
1447:Drivers/STM32L0xx_HAL_Driver/Src/stm32l0xx_hal_rtc_ex.c ****   tmp = (uint32_t)&(hrtc->Instance->BKP0R);
 2272              		.loc 1 1447 0
 2273 0000 0368     		ldr	r3, [r0]
 2274 0002 5033     		adds	r3, r3, #80
 2275              	.LVL167:
1448:Drivers/STM32L0xx_HAL_Driver/Src/stm32l0xx_hal_rtc_ex.c ****   tmp += (BackupRegister * 4U);
 2276              		.loc 1 1448 0
 2277 0004 8900     		lsls	r1, r1, #2
 2278              	.LVL168:
 2279 0006 C918     		adds	r1, r1, r3
 2280              	.LVL169:
1449:Drivers/STM32L0xx_HAL_Driver/Src/stm32l0xx_hal_rtc_ex.c **** 
1450:Drivers/STM32L0xx_HAL_Driver/Src/stm32l0xx_hal_rtc_ex.c ****   /* Write the specified register */
1451:Drivers/STM32L0xx_HAL_Driver/Src/stm32l0xx_hal_rtc_ex.c ****   *(__IO uint32_t *)tmp = (uint32_t)Data;
 2281              		.loc 1 1451 0
 2282 0008 0A60     		str	r2, [r1]
1452:Drivers/STM32L0xx_HAL_Driver/Src/stm32l0xx_hal_rtc_ex.c **** }
 2283              		.loc 1 1452 0
 2284              		@ sp needed
 2285 000a 7047     		bx	lr
 2286              		.cfi_endproc
 2287              	.LFE62:
 2289              		.section	.text.HAL_RTCEx_BKUPRead,"ax",%progbits
 2290              		.align	1
 2291              		.global	HAL_RTCEx_BKUPRead
 2292              		.syntax unified
 2293              		.code	16
 2294              		.thumb_func
 2295              		.fpu softvfp
 2297              	HAL_RTCEx_BKUPRead:
 2298              	.LFB63:
1453:Drivers/STM32L0xx_HAL_Driver/Src/stm32l0xx_hal_rtc_ex.c **** 
1454:Drivers/STM32L0xx_HAL_Driver/Src/stm32l0xx_hal_rtc_ex.c **** /**
1455:Drivers/STM32L0xx_HAL_Driver/Src/stm32l0xx_hal_rtc_ex.c ****   * @brief  Reads data from the specified RTC Backup data Register.
1456:Drivers/STM32L0xx_HAL_Driver/Src/stm32l0xx_hal_rtc_ex.c ****   * @param  hrtc: RTC handle 
1457:Drivers/STM32L0xx_HAL_Driver/Src/stm32l0xx_hal_rtc_ex.c ****   * @param  BackupRegister: RTC Backup data Register number.
1458:Drivers/STM32L0xx_HAL_Driver/Src/stm32l0xx_hal_rtc_ex.c ****   *          This parameter can be: RTC_BKP_DRx where x can be from 0 to 19 to 
1459:Drivers/STM32L0xx_HAL_Driver/Src/stm32l0xx_hal_rtc_ex.c ****   *                                 specify the register.
1460:Drivers/STM32L0xx_HAL_Driver/Src/stm32l0xx_hal_rtc_ex.c ****   * @retval Read value
1461:Drivers/STM32L0xx_HAL_Driver/Src/stm32l0xx_hal_rtc_ex.c ****   */
1462:Drivers/STM32L0xx_HAL_Driver/Src/stm32l0xx_hal_rtc_ex.c **** uint32_t HAL_RTCEx_BKUPRead(RTC_HandleTypeDef *hrtc, uint32_t BackupRegister)
1463:Drivers/STM32L0xx_HAL_Driver/Src/stm32l0xx_hal_rtc_ex.c **** {
 2299              		.loc 1 1463 0
ARM GAS  /var/folders/2m/zqg86yyd4hbf56w83tkxjpvr0000gn/T//ccxnAkOG.s 			page 67


 2300              		.cfi_startproc
 2301              		@ args = 0, pretend = 0, frame = 0
 2302              		@ frame_needed = 0, uses_anonymous_args = 0
 2303              		@ link register save eliminated.
 2304              	.LVL170:
1464:Drivers/STM32L0xx_HAL_Driver/Src/stm32l0xx_hal_rtc_ex.c ****   uint32_t tmp = 0U;
1465:Drivers/STM32L0xx_HAL_Driver/Src/stm32l0xx_hal_rtc_ex.c **** 
1466:Drivers/STM32L0xx_HAL_Driver/Src/stm32l0xx_hal_rtc_ex.c ****   /* Check the parameters */
1467:Drivers/STM32L0xx_HAL_Driver/Src/stm32l0xx_hal_rtc_ex.c ****   assert_param(IS_RTC_BKP(BackupRegister));
1468:Drivers/STM32L0xx_HAL_Driver/Src/stm32l0xx_hal_rtc_ex.c **** 
1469:Drivers/STM32L0xx_HAL_Driver/Src/stm32l0xx_hal_rtc_ex.c ****   tmp = (uint32_t)&(hrtc->Instance->BKP0R);
 2305              		.loc 1 1469 0
 2306 0000 0368     		ldr	r3, [r0]
 2307 0002 5033     		adds	r3, r3, #80
 2308              	.LVL171:
1470:Drivers/STM32L0xx_HAL_Driver/Src/stm32l0xx_hal_rtc_ex.c ****   tmp += (BackupRegister * 4U);
 2309              		.loc 1 1470 0
 2310 0004 8900     		lsls	r1, r1, #2
 2311              	.LVL172:
 2312 0006 C918     		adds	r1, r1, r3
 2313              	.LVL173:
1471:Drivers/STM32L0xx_HAL_Driver/Src/stm32l0xx_hal_rtc_ex.c ****   
1472:Drivers/STM32L0xx_HAL_Driver/Src/stm32l0xx_hal_rtc_ex.c ****   /* Read the specified register */
1473:Drivers/STM32L0xx_HAL_Driver/Src/stm32l0xx_hal_rtc_ex.c ****   return (*(__IO uint32_t *)tmp);
 2314              		.loc 1 1473 0
 2315 0008 0868     		ldr	r0, [r1]
 2316              	.LVL174:
1474:Drivers/STM32L0xx_HAL_Driver/Src/stm32l0xx_hal_rtc_ex.c **** }
 2317              		.loc 1 1474 0
 2318              		@ sp needed
 2319 000a 7047     		bx	lr
 2320              		.cfi_endproc
 2321              	.LFE63:
 2323              		.section	.text.HAL_RTCEx_SetSmoothCalib,"ax",%progbits
 2324              		.align	1
 2325              		.global	HAL_RTCEx_SetSmoothCalib
 2326              		.syntax unified
 2327              		.code	16
 2328              		.thumb_func
 2329              		.fpu softvfp
 2331              	HAL_RTCEx_SetSmoothCalib:
 2332              	.LFB64:
1475:Drivers/STM32L0xx_HAL_Driver/Src/stm32l0xx_hal_rtc_ex.c **** 
1476:Drivers/STM32L0xx_HAL_Driver/Src/stm32l0xx_hal_rtc_ex.c **** /**
1477:Drivers/STM32L0xx_HAL_Driver/Src/stm32l0xx_hal_rtc_ex.c ****   * @brief  Set the Smooth calibration parameters.
1478:Drivers/STM32L0xx_HAL_Driver/Src/stm32l0xx_hal_rtc_ex.c ****   * @param  hrtc: RTC handle  
1479:Drivers/STM32L0xx_HAL_Driver/Src/stm32l0xx_hal_rtc_ex.c ****   * @param  SmoothCalibPeriod: Select the Smooth Calibration Period.
1480:Drivers/STM32L0xx_HAL_Driver/Src/stm32l0xx_hal_rtc_ex.c ****   *          This parameter can be can be one of the following values :
1481:Drivers/STM32L0xx_HAL_Driver/Src/stm32l0xx_hal_rtc_ex.c ****   *             @arg RTC_SMOOTHCALIB_PERIOD_32SEC: The smooth calibration period is 32s.
1482:Drivers/STM32L0xx_HAL_Driver/Src/stm32l0xx_hal_rtc_ex.c ****   *             @arg RTC_SMOOTHCALIB_PERIOD_16SEC: The smooth calibration period is 16s.
1483:Drivers/STM32L0xx_HAL_Driver/Src/stm32l0xx_hal_rtc_ex.c ****   *             @arg RTC_SMOOTHCALIB_PERIOD_8SEC: The smooth calibration period is 8s.
1484:Drivers/STM32L0xx_HAL_Driver/Src/stm32l0xx_hal_rtc_ex.c ****   * @param  SmoothCalibPlusPulses: Select to Set or reset the CALP bit.
1485:Drivers/STM32L0xx_HAL_Driver/Src/stm32l0xx_hal_rtc_ex.c ****   *          This parameter can be one of the following values:
1486:Drivers/STM32L0xx_HAL_Driver/Src/stm32l0xx_hal_rtc_ex.c ****   *             @arg RTC_SMOOTHCALIB_PLUSPULSES_SET: Add one RTCCLK pulse every 2*11 pulses.
1487:Drivers/STM32L0xx_HAL_Driver/Src/stm32l0xx_hal_rtc_ex.c ****   *             @arg RTC_SMOOTHCALIB_PLUSPULSES_RESET: No RTCCLK pulses are added.
1488:Drivers/STM32L0xx_HAL_Driver/Src/stm32l0xx_hal_rtc_ex.c ****   * @param  SmoothCalibMinusPulsesValue: Select the value of CALM[8:0] bits.
1489:Drivers/STM32L0xx_HAL_Driver/Src/stm32l0xx_hal_rtc_ex.c ****   *          This parameter can be one any value from 0 to 0x000001FF.
ARM GAS  /var/folders/2m/zqg86yyd4hbf56w83tkxjpvr0000gn/T//ccxnAkOG.s 			page 68


1490:Drivers/STM32L0xx_HAL_Driver/Src/stm32l0xx_hal_rtc_ex.c ****   * @note   To deactivate the smooth calibration, the field SmoothCalibPlusPulses 
1491:Drivers/STM32L0xx_HAL_Driver/Src/stm32l0xx_hal_rtc_ex.c ****   *         must be equal to SMOOTHCALIB_PLUSPULSES_RESET and the field
1492:Drivers/STM32L0xx_HAL_Driver/Src/stm32l0xx_hal_rtc_ex.c ****   *         SmoothCalibMinusPulsesValue mut be equal to 0.
1493:Drivers/STM32L0xx_HAL_Driver/Src/stm32l0xx_hal_rtc_ex.c ****   * @retval HAL status
1494:Drivers/STM32L0xx_HAL_Driver/Src/stm32l0xx_hal_rtc_ex.c ****   */
1495:Drivers/STM32L0xx_HAL_Driver/Src/stm32l0xx_hal_rtc_ex.c **** HAL_StatusTypeDef HAL_RTCEx_SetSmoothCalib(RTC_HandleTypeDef* hrtc, uint32_t SmoothCalibPeriod, uin
1496:Drivers/STM32L0xx_HAL_Driver/Src/stm32l0xx_hal_rtc_ex.c **** {
 2333              		.loc 1 1496 0
 2334              		.cfi_startproc
 2335              		@ args = 0, pretend = 0, frame = 8
 2336              		@ frame_needed = 0, uses_anonymous_args = 0
 2337              	.LVL175:
 2338 0000 F0B5     		push	{r4, r5, r6, r7, lr}
 2339              	.LCFI18:
 2340              		.cfi_def_cfa_offset 20
 2341              		.cfi_offset 4, -20
 2342              		.cfi_offset 5, -16
 2343              		.cfi_offset 6, -12
 2344              		.cfi_offset 7, -8
 2345              		.cfi_offset 14, -4
 2346 0002 83B0     		sub	sp, sp, #12
 2347              	.LCFI19:
 2348              		.cfi_def_cfa_offset 32
 2349 0004 0400     		movs	r4, r0
 2350 0006 0D00     		movs	r5, r1
 2351 0008 0192     		str	r2, [sp, #4]
 2352 000a 1E00     		movs	r6, r3
 2353              	.LVL176:
1497:Drivers/STM32L0xx_HAL_Driver/Src/stm32l0xx_hal_rtc_ex.c ****   uint32_t tickstart = 0U;
1498:Drivers/STM32L0xx_HAL_Driver/Src/stm32l0xx_hal_rtc_ex.c **** 
1499:Drivers/STM32L0xx_HAL_Driver/Src/stm32l0xx_hal_rtc_ex.c ****   /* Check the parameters */
1500:Drivers/STM32L0xx_HAL_Driver/Src/stm32l0xx_hal_rtc_ex.c ****   assert_param(IS_RTC_SMOOTH_CALIB_PERIOD(SmoothCalibPeriod));
1501:Drivers/STM32L0xx_HAL_Driver/Src/stm32l0xx_hal_rtc_ex.c ****   assert_param(IS_RTC_SMOOTH_CALIB_PLUS(SmoothCalibPlusPulses));
1502:Drivers/STM32L0xx_HAL_Driver/Src/stm32l0xx_hal_rtc_ex.c ****   assert_param(IS_RTC_SMOOTH_CALIB_MINUS(SmoothCalibMinusPulsesValue));
1503:Drivers/STM32L0xx_HAL_Driver/Src/stm32l0xx_hal_rtc_ex.c **** 
1504:Drivers/STM32L0xx_HAL_Driver/Src/stm32l0xx_hal_rtc_ex.c ****   /* Process Locked */ 
1505:Drivers/STM32L0xx_HAL_Driver/Src/stm32l0xx_hal_rtc_ex.c ****   __HAL_LOCK(hrtc);
 2354              		.loc 1 1505 0
 2355 000c 2023     		movs	r3, #32
 2356              	.LVL177:
 2357 000e C35C     		ldrb	r3, [r0, r3]
 2358 0010 012B     		cmp	r3, #1
 2359 0012 39D0     		beq	.L159
 2360              		.loc 1 1505 0 is_stmt 0 discriminator 2
 2361 0014 2023     		movs	r3, #32
 2362 0016 0122     		movs	r2, #1
 2363              	.LVL178:
 2364 0018 C254     		strb	r2, [r0, r3]
1506:Drivers/STM32L0xx_HAL_Driver/Src/stm32l0xx_hal_rtc_ex.c **** 
1507:Drivers/STM32L0xx_HAL_Driver/Src/stm32l0xx_hal_rtc_ex.c ****   hrtc->State = HAL_RTC_STATE_BUSY;
 2365              		.loc 1 1507 0 is_stmt 1 discriminator 2
 2366 001a 0133     		adds	r3, r3, #1
 2367 001c 0132     		adds	r2, r2, #1
 2368 001e C254     		strb	r2, [r0, r3]
1508:Drivers/STM32L0xx_HAL_Driver/Src/stm32l0xx_hal_rtc_ex.c **** 
1509:Drivers/STM32L0xx_HAL_Driver/Src/stm32l0xx_hal_rtc_ex.c ****   /* Disable the write protection for RTC registers */
1510:Drivers/STM32L0xx_HAL_Driver/Src/stm32l0xx_hal_rtc_ex.c ****   __HAL_RTC_WRITEPROTECTION_DISABLE(hrtc);
ARM GAS  /var/folders/2m/zqg86yyd4hbf56w83tkxjpvr0000gn/T//ccxnAkOG.s 			page 69


 2369              		.loc 1 1510 0 discriminator 2
 2370 0020 0368     		ldr	r3, [r0]
 2371 0022 C832     		adds	r2, r2, #200
 2372 0024 5A62     		str	r2, [r3, #36]
 2373 0026 0368     		ldr	r3, [r0]
 2374 0028 773A     		subs	r2, r2, #119
 2375 002a 5A62     		str	r2, [r3, #36]
1511:Drivers/STM32L0xx_HAL_Driver/Src/stm32l0xx_hal_rtc_ex.c **** 
1512:Drivers/STM32L0xx_HAL_Driver/Src/stm32l0xx_hal_rtc_ex.c ****   /* check if a calibration is pending*/
1513:Drivers/STM32L0xx_HAL_Driver/Src/stm32l0xx_hal_rtc_ex.c ****   if((hrtc->Instance->ISR & RTC_ISR_RECALPF) != RESET)
 2376              		.loc 1 1513 0 discriminator 2
 2377 002c 0368     		ldr	r3, [r0]
 2378 002e DB68     		ldr	r3, [r3, #12]
 2379 0030 DB03     		lsls	r3, r3, #15
 2380 0032 10D4     		bmi	.L160
 2381              	.LVL179:
 2382              	.L156:
1514:Drivers/STM32L0xx_HAL_Driver/Src/stm32l0xx_hal_rtc_ex.c ****   {
1515:Drivers/STM32L0xx_HAL_Driver/Src/stm32l0xx_hal_rtc_ex.c ****     tickstart = HAL_GetTick();
1516:Drivers/STM32L0xx_HAL_Driver/Src/stm32l0xx_hal_rtc_ex.c **** 
1517:Drivers/STM32L0xx_HAL_Driver/Src/stm32l0xx_hal_rtc_ex.c ****     /* check if a calibration is pending*/
1518:Drivers/STM32L0xx_HAL_Driver/Src/stm32l0xx_hal_rtc_ex.c ****     while((hrtc->Instance->ISR & RTC_ISR_RECALPF) != RESET)
1519:Drivers/STM32L0xx_HAL_Driver/Src/stm32l0xx_hal_rtc_ex.c ****     {
1520:Drivers/STM32L0xx_HAL_Driver/Src/stm32l0xx_hal_rtc_ex.c ****       if((HAL_GetTick() - tickstart ) > RTC_TIMEOUT_VALUE)
1521:Drivers/STM32L0xx_HAL_Driver/Src/stm32l0xx_hal_rtc_ex.c ****       {
1522:Drivers/STM32L0xx_HAL_Driver/Src/stm32l0xx_hal_rtc_ex.c ****         /* Enable the write protection for RTC registers */
1523:Drivers/STM32L0xx_HAL_Driver/Src/stm32l0xx_hal_rtc_ex.c ****         __HAL_RTC_WRITEPROTECTION_ENABLE(hrtc);
1524:Drivers/STM32L0xx_HAL_Driver/Src/stm32l0xx_hal_rtc_ex.c **** 
1525:Drivers/STM32L0xx_HAL_Driver/Src/stm32l0xx_hal_rtc_ex.c ****         /* Change RTC state */
1526:Drivers/STM32L0xx_HAL_Driver/Src/stm32l0xx_hal_rtc_ex.c ****         hrtc->State = HAL_RTC_STATE_TIMEOUT; 
1527:Drivers/STM32L0xx_HAL_Driver/Src/stm32l0xx_hal_rtc_ex.c ****         
1528:Drivers/STM32L0xx_HAL_Driver/Src/stm32l0xx_hal_rtc_ex.c ****         /* Process Unlocked */
1529:Drivers/STM32L0xx_HAL_Driver/Src/stm32l0xx_hal_rtc_ex.c ****         __HAL_UNLOCK(hrtc);
1530:Drivers/STM32L0xx_HAL_Driver/Src/stm32l0xx_hal_rtc_ex.c **** 
1531:Drivers/STM32L0xx_HAL_Driver/Src/stm32l0xx_hal_rtc_ex.c ****         return HAL_TIMEOUT;
1532:Drivers/STM32L0xx_HAL_Driver/Src/stm32l0xx_hal_rtc_ex.c ****       }
