ARM GAS  /var/folders/2m/zqg86yyd4hbf56w83tkxjpvr0000gn/T//cclJg58U.s 			page 1


   1              		.cpu cortex-m0plus
   2              		.eabi_attribute 20, 1
   3              		.eabi_attribute 21, 1
   4              		.eabi_attribute 23, 3
   5              		.eabi_attribute 24, 1
   6              		.eabi_attribute 25, 1
   7              		.eabi_attribute 26, 1
   8              		.eabi_attribute 30, 1
   9              		.eabi_attribute 34, 0
  10              		.eabi_attribute 18, 4
  11              		.file	"stm32l0xx_hal_dma.c"
  12              		.text
  13              	.Ltext0:
  14              		.cfi_sections	.debug_frame
  15              		.section	.text.DMA_SetConfig,"ax",%progbits
  16              		.align	1
  17              		.syntax unified
  18              		.code	16
  19              		.thumb_func
  20              		.fpu softvfp
  22              	DMA_SetConfig:
  23              	.LFB49:
  24              		.file 1 "Drivers/STM32L0xx_HAL_Driver/Src/stm32l0xx_hal_dma.c"
   1:Drivers/STM32L0xx_HAL_Driver/Src/stm32l0xx_hal_dma.c **** /**
   2:Drivers/STM32L0xx_HAL_Driver/Src/stm32l0xx_hal_dma.c ****   ******************************************************************************
   3:Drivers/STM32L0xx_HAL_Driver/Src/stm32l0xx_hal_dma.c ****   * @file    stm32l0xx_hal_dma.c
   4:Drivers/STM32L0xx_HAL_Driver/Src/stm32l0xx_hal_dma.c ****   * @author  MCD Application Team
   5:Drivers/STM32L0xx_HAL_Driver/Src/stm32l0xx_hal_dma.c ****   * @version V1.8.1
   6:Drivers/STM32L0xx_HAL_Driver/Src/stm32l0xx_hal_dma.c ****   * @date    14-April-2017
   7:Drivers/STM32L0xx_HAL_Driver/Src/stm32l0xx_hal_dma.c ****   * @brief   DMA HAL module driver.
   8:Drivers/STM32L0xx_HAL_Driver/Src/stm32l0xx_hal_dma.c ****   *    
   9:Drivers/STM32L0xx_HAL_Driver/Src/stm32l0xx_hal_dma.c ****   *         This file provides firmware functions to manage the following 
  10:Drivers/STM32L0xx_HAL_Driver/Src/stm32l0xx_hal_dma.c ****   *         functionalities of the Direct Memory Access (DMA) peripheral:
  11:Drivers/STM32L0xx_HAL_Driver/Src/stm32l0xx_hal_dma.c ****   *           + Initialization/de-initialization functions
  12:Drivers/STM32L0xx_HAL_Driver/Src/stm32l0xx_hal_dma.c ****   *           + I/O operation functions
  13:Drivers/STM32L0xx_HAL_Driver/Src/stm32l0xx_hal_dma.c ****   *           + Peripheral State functions
  14:Drivers/STM32L0xx_HAL_Driver/Src/stm32l0xx_hal_dma.c ****   *  
  15:Drivers/STM32L0xx_HAL_Driver/Src/stm32l0xx_hal_dma.c ****   *           
  16:Drivers/STM32L0xx_HAL_Driver/Src/stm32l0xx_hal_dma.c ****   @verbatim     
  17:Drivers/STM32L0xx_HAL_Driver/Src/stm32l0xx_hal_dma.c ****   ==============================================================================      
  18:Drivers/STM32L0xx_HAL_Driver/Src/stm32l0xx_hal_dma.c ****                         ##### How to use this driver #####
  19:Drivers/STM32L0xx_HAL_Driver/Src/stm32l0xx_hal_dma.c ****   ============================================================================== 
  20:Drivers/STM32L0xx_HAL_Driver/Src/stm32l0xx_hal_dma.c ****   [..]
  21:Drivers/STM32L0xx_HAL_Driver/Src/stm32l0xx_hal_dma.c ****    (#) Enable and configure the peripheral to be connected to the DMA Channel
  22:Drivers/STM32L0xx_HAL_Driver/Src/stm32l0xx_hal_dma.c ****        (except for internal SRAM / FLASH memories: no initialization is 
  23:Drivers/STM32L0xx_HAL_Driver/Src/stm32l0xx_hal_dma.c ****        necessary). 
  24:Drivers/STM32L0xx_HAL_Driver/Src/stm32l0xx_hal_dma.c ****           
  25:Drivers/STM32L0xx_HAL_Driver/Src/stm32l0xx_hal_dma.c ****    (#) For a given Channel, program the required configuration through the following parameters:   
  26:Drivers/STM32L0xx_HAL_Driver/Src/stm32l0xx_hal_dma.c ****        Channel request, Transfer Direction, Source and Destination data formats, 
  27:Drivers/STM32L0xx_HAL_Driver/Src/stm32l0xx_hal_dma.c ****        Circular, Normal or peripheral flow control mode, Channel Priority level, 
  28:Drivers/STM32L0xx_HAL_Driver/Src/stm32l0xx_hal_dma.c ****        Source and Destination Increment mode using HAL_DMA_Init() function.
  29:Drivers/STM32L0xx_HAL_Driver/Src/stm32l0xx_hal_dma.c ****    
  30:Drivers/STM32L0xx_HAL_Driver/Src/stm32l0xx_hal_dma.c ****      *** Polling mode IO operation ***
  31:Drivers/STM32L0xx_HAL_Driver/Src/stm32l0xx_hal_dma.c ****      =================================   
  32:Drivers/STM32L0xx_HAL_Driver/Src/stm32l0xx_hal_dma.c ****     [..] 
  33:Drivers/STM32L0xx_HAL_Driver/Src/stm32l0xx_hal_dma.c ****           (+) Use HAL_DMA_Start() to start DMA transfer after the configuration of Source 
  34:Drivers/STM32L0xx_HAL_Driver/Src/stm32l0xx_hal_dma.c ****               address and destination address and the Length of data to be transferred
ARM GAS  /var/folders/2m/zqg86yyd4hbf56w83tkxjpvr0000gn/T//cclJg58U.s 			page 2


  35:Drivers/STM32L0xx_HAL_Driver/Src/stm32l0xx_hal_dma.c ****           (+) Use HAL_DMA_PollForTransfer() to poll for the end of current transfer, in this  
  36:Drivers/STM32L0xx_HAL_Driver/Src/stm32l0xx_hal_dma.c ****               case a fixed Timeout can be configured by User depending from his application.
  37:Drivers/STM32L0xx_HAL_Driver/Src/stm32l0xx_hal_dma.c ****                
  38:Drivers/STM32L0xx_HAL_Driver/Src/stm32l0xx_hal_dma.c ****      *** Interrupt mode IO operation ***    
  39:Drivers/STM32L0xx_HAL_Driver/Src/stm32l0xx_hal_dma.c ****      =================================== 
  40:Drivers/STM32L0xx_HAL_Driver/Src/stm32l0xx_hal_dma.c ****     [..]     
  41:Drivers/STM32L0xx_HAL_Driver/Src/stm32l0xx_hal_dma.c ****           (+) Configure the DMA interrupt priority using HAL_NVIC_SetPriority()
  42:Drivers/STM32L0xx_HAL_Driver/Src/stm32l0xx_hal_dma.c ****           (+) Enable the DMA IRQ handler using HAL_NVIC_EnableIRQ() 
  43:Drivers/STM32L0xx_HAL_Driver/Src/stm32l0xx_hal_dma.c ****           (+) Use HAL_DMA_Start_IT() to start DMA transfer after the configuration of  
  44:Drivers/STM32L0xx_HAL_Driver/Src/stm32l0xx_hal_dma.c ****               Source address and destination address and the Length of data to be transferred. In t
  45:Drivers/STM32L0xx_HAL_Driver/Src/stm32l0xx_hal_dma.c ****               case the DMA interrupt is configured 
  46:Drivers/STM32L0xx_HAL_Driver/Src/stm32l0xx_hal_dma.c ****           (+) Use HAL_DMA_IRQHandler() called under DMA_IRQHandler() Interrupt subroutine
  47:Drivers/STM32L0xx_HAL_Driver/Src/stm32l0xx_hal_dma.c ****           (+) At the end of data transfer HAL_DMA_IRQHandler() function is executed and user can 
  48:Drivers/STM32L0xx_HAL_Driver/Src/stm32l0xx_hal_dma.c ****               add his own function by customization of function pointer XferCpltCallback and 
  49:Drivers/STM32L0xx_HAL_Driver/Src/stm32l0xx_hal_dma.c ****               XferErrorCallback (i.e a member of DMA handle structure). 
  50:Drivers/STM32L0xx_HAL_Driver/Src/stm32l0xx_hal_dma.c ****                 
  51:Drivers/STM32L0xx_HAL_Driver/Src/stm32l0xx_hal_dma.c ****    (#) Use HAL_DMA_GetState() function to return the DMA state and HAL_DMA_GetError() in case of er
  52:Drivers/STM32L0xx_HAL_Driver/Src/stm32l0xx_hal_dma.c ****        detection.
  53:Drivers/STM32L0xx_HAL_Driver/Src/stm32l0xx_hal_dma.c ****          
  54:Drivers/STM32L0xx_HAL_Driver/Src/stm32l0xx_hal_dma.c ****    (#) Use HAL_DMA_Abort() function to abort the current transfer              
  55:Drivers/STM32L0xx_HAL_Driver/Src/stm32l0xx_hal_dma.c ****                    
  56:Drivers/STM32L0xx_HAL_Driver/Src/stm32l0xx_hal_dma.c ****    -@-   In Memory-to-Memory transfer mode, Circular mode is not allowed.          
  57:Drivers/STM32L0xx_HAL_Driver/Src/stm32l0xx_hal_dma.c ****   
  58:Drivers/STM32L0xx_HAL_Driver/Src/stm32l0xx_hal_dma.c ****   @endverbatim
  59:Drivers/STM32L0xx_HAL_Driver/Src/stm32l0xx_hal_dma.c ****   ******************************************************************************
  60:Drivers/STM32L0xx_HAL_Driver/Src/stm32l0xx_hal_dma.c ****   * @attention
  61:Drivers/STM32L0xx_HAL_Driver/Src/stm32l0xx_hal_dma.c ****   *
  62:Drivers/STM32L0xx_HAL_Driver/Src/stm32l0xx_hal_dma.c ****   * <h2><center>&copy; COPYRIGHT(c) 2016 STMicroelectronics</center></h2>
  63:Drivers/STM32L0xx_HAL_Driver/Src/stm32l0xx_hal_dma.c ****   *
  64:Drivers/STM32L0xx_HAL_Driver/Src/stm32l0xx_hal_dma.c ****   * Redistribution and use in source and binary forms, with or without modification,
  65:Drivers/STM32L0xx_HAL_Driver/Src/stm32l0xx_hal_dma.c ****   * are permitted provided that the following conditions are met:
  66:Drivers/STM32L0xx_HAL_Driver/Src/stm32l0xx_hal_dma.c ****   *   1. Redistributions of source code must retain the above copyright notice,
  67:Drivers/STM32L0xx_HAL_Driver/Src/stm32l0xx_hal_dma.c ****   *      this list of conditions and the following disclaimer.
  68:Drivers/STM32L0xx_HAL_Driver/Src/stm32l0xx_hal_dma.c ****   *   2. Redistributions in binary form must reproduce the above copyright notice,
  69:Drivers/STM32L0xx_HAL_Driver/Src/stm32l0xx_hal_dma.c ****   *      this list of conditions and the following disclaimer in the documentation
  70:Drivers/STM32L0xx_HAL_Driver/Src/stm32l0xx_hal_dma.c ****   *      and/or other materials provided with the distribution.
  71:Drivers/STM32L0xx_HAL_Driver/Src/stm32l0xx_hal_dma.c ****   *   3. Neither the name of STMicroelectronics nor the names of its contributors
  72:Drivers/STM32L0xx_HAL_Driver/Src/stm32l0xx_hal_dma.c ****   *      may be used to endorse or promote products derived from this software
  73:Drivers/STM32L0xx_HAL_Driver/Src/stm32l0xx_hal_dma.c ****   *      without specific prior written permission.
  74:Drivers/STM32L0xx_HAL_Driver/Src/stm32l0xx_hal_dma.c ****   *
  75:Drivers/STM32L0xx_HAL_Driver/Src/stm32l0xx_hal_dma.c ****   * THIS SOFTWARE IS PROVIDED BY THE COPYRIGHT HOLDERS AND CONTRIBUTORS "AS IS"
  76:Drivers/STM32L0xx_HAL_Driver/Src/stm32l0xx_hal_dma.c ****   * AND ANY EXPRESS OR IMPLIED WARRANTIES, INCLUDING, BUT NOT LIMITED TO, THE
  77:Drivers/STM32L0xx_HAL_Driver/Src/stm32l0xx_hal_dma.c ****   * IMPLIED WARRANTIES OF MERCHANTABILITY AND FITNESS FOR A PARTICULAR PURPOSE ARE
  78:Drivers/STM32L0xx_HAL_Driver/Src/stm32l0xx_hal_dma.c ****   * DISCLAIMED. IN NO EVENT SHALL THE COPYRIGHT HOLDER OR CONTRIBUTORS BE LIABLE
  79:Drivers/STM32L0xx_HAL_Driver/Src/stm32l0xx_hal_dma.c ****   * FOR ANY DIRECT, INDIRECT, INCIDENTAL, SPECIAL, EXEMPLARY, OR CONSEQUENTIAL
  80:Drivers/STM32L0xx_HAL_Driver/Src/stm32l0xx_hal_dma.c ****   * DAMAGES (INCLUDING, BUT NOT LIMITED TO, PROCUREMENT OF SUBSTITUTE GOODS OR
  81:Drivers/STM32L0xx_HAL_Driver/Src/stm32l0xx_hal_dma.c ****   * SERVICES; LOSS OF USE, DATA, OR PROFITS; OR BUSINESS INTERRUPTION) HOWEVER
  82:Drivers/STM32L0xx_HAL_Driver/Src/stm32l0xx_hal_dma.c ****   * CAUSED AND ON ANY THEORY OF LIABILITY, WHETHER IN CONTRACT, STRICT LIABILITY,
  83:Drivers/STM32L0xx_HAL_Driver/Src/stm32l0xx_hal_dma.c ****   * OR TORT (INCLUDING NEGLIGENCE OR OTHERWISE) ARISING IN ANY WAY OUT OF THE USE
  84:Drivers/STM32L0xx_HAL_Driver/Src/stm32l0xx_hal_dma.c ****   * OF THIS SOFTWARE, EVEN IF ADVISED OF THE POSSIBILITY OF SUCH DAMAGE.
  85:Drivers/STM32L0xx_HAL_Driver/Src/stm32l0xx_hal_dma.c ****   *
  86:Drivers/STM32L0xx_HAL_Driver/Src/stm32l0xx_hal_dma.c ****   ******************************************************************************
  87:Drivers/STM32L0xx_HAL_Driver/Src/stm32l0xx_hal_dma.c ****   */ 
  88:Drivers/STM32L0xx_HAL_Driver/Src/stm32l0xx_hal_dma.c **** 
  89:Drivers/STM32L0xx_HAL_Driver/Src/stm32l0xx_hal_dma.c **** /* Includes ------------------------------------------------------------------*/
  90:Drivers/STM32L0xx_HAL_Driver/Src/stm32l0xx_hal_dma.c **** #include "stm32l0xx_hal.h"
  91:Drivers/STM32L0xx_HAL_Driver/Src/stm32l0xx_hal_dma.c **** 
ARM GAS  /var/folders/2m/zqg86yyd4hbf56w83tkxjpvr0000gn/T//cclJg58U.s 			page 3


  92:Drivers/STM32L0xx_HAL_Driver/Src/stm32l0xx_hal_dma.c **** /** @addtogroup STM32L0xx_HAL_Driver
  93:Drivers/STM32L0xx_HAL_Driver/Src/stm32l0xx_hal_dma.c ****   * @{
  94:Drivers/STM32L0xx_HAL_Driver/Src/stm32l0xx_hal_dma.c ****   */
  95:Drivers/STM32L0xx_HAL_Driver/Src/stm32l0xx_hal_dma.c **** #ifdef HAL_DMA_MODULE_ENABLED
  96:Drivers/STM32L0xx_HAL_Driver/Src/stm32l0xx_hal_dma.c **** 
  97:Drivers/STM32L0xx_HAL_Driver/Src/stm32l0xx_hal_dma.c **** /** @addtogroup DMA DMA
  98:Drivers/STM32L0xx_HAL_Driver/Src/stm32l0xx_hal_dma.c ****   * @brief DMA HAL module driver
  99:Drivers/STM32L0xx_HAL_Driver/Src/stm32l0xx_hal_dma.c ****   * @{
 100:Drivers/STM32L0xx_HAL_Driver/Src/stm32l0xx_hal_dma.c ****   */
 101:Drivers/STM32L0xx_HAL_Driver/Src/stm32l0xx_hal_dma.c **** 
 102:Drivers/STM32L0xx_HAL_Driver/Src/stm32l0xx_hal_dma.c **** /* Private typedef -----------------------------------------------------------*/  
 103:Drivers/STM32L0xx_HAL_Driver/Src/stm32l0xx_hal_dma.c **** /** @addtogroup DMA_Private
 104:Drivers/STM32L0xx_HAL_Driver/Src/stm32l0xx_hal_dma.c ****   *
 105:Drivers/STM32L0xx_HAL_Driver/Src/stm32l0xx_hal_dma.c ****   * @{
 106:Drivers/STM32L0xx_HAL_Driver/Src/stm32l0xx_hal_dma.c ****   */
 107:Drivers/STM32L0xx_HAL_Driver/Src/stm32l0xx_hal_dma.c **** #define HAL_TIMEOUT_DMA_ABORT    ((uint32_t)1000U)  /* 1s  */
 108:Drivers/STM32L0xx_HAL_Driver/Src/stm32l0xx_hal_dma.c **** 
 109:Drivers/STM32L0xx_HAL_Driver/Src/stm32l0xx_hal_dma.c **** 
 110:Drivers/STM32L0xx_HAL_Driver/Src/stm32l0xx_hal_dma.c **** static void DMA_SetConfig(DMA_HandleTypeDef *hdma, uint32_t SrcAddress, uint32_t DstAddress, uint32
 111:Drivers/STM32L0xx_HAL_Driver/Src/stm32l0xx_hal_dma.c **** /**
 112:Drivers/STM32L0xx_HAL_Driver/Src/stm32l0xx_hal_dma.c ****   * @}
 113:Drivers/STM32L0xx_HAL_Driver/Src/stm32l0xx_hal_dma.c ****   */
 114:Drivers/STM32L0xx_HAL_Driver/Src/stm32l0xx_hal_dma.c **** 
 115:Drivers/STM32L0xx_HAL_Driver/Src/stm32l0xx_hal_dma.c **** /** @addtogroup DMA_Exported_Functions DMA Exported Functions
 116:Drivers/STM32L0xx_HAL_Driver/Src/stm32l0xx_hal_dma.c ****   * @{
 117:Drivers/STM32L0xx_HAL_Driver/Src/stm32l0xx_hal_dma.c ****   */
 118:Drivers/STM32L0xx_HAL_Driver/Src/stm32l0xx_hal_dma.c **** 
 119:Drivers/STM32L0xx_HAL_Driver/Src/stm32l0xx_hal_dma.c **** /** @addtogroup DMA_Exported_Functions_Group1 
 120:Drivers/STM32L0xx_HAL_Driver/Src/stm32l0xx_hal_dma.c ****  *  @brief   Initialization/de-initialization functions 
 121:Drivers/STM32L0xx_HAL_Driver/Src/stm32l0xx_hal_dma.c ****  *
 122:Drivers/STM32L0xx_HAL_Driver/Src/stm32l0xx_hal_dma.c **** @verbatim   
 123:Drivers/STM32L0xx_HAL_Driver/Src/stm32l0xx_hal_dma.c ****  ===============================================================================
 124:Drivers/STM32L0xx_HAL_Driver/Src/stm32l0xx_hal_dma.c ****              ##### Initialization and de-initialization functions  #####
 125:Drivers/STM32L0xx_HAL_Driver/Src/stm32l0xx_hal_dma.c ****  ===============================================================================  
 126:Drivers/STM32L0xx_HAL_Driver/Src/stm32l0xx_hal_dma.c ****     [..]  This section provides functions allowing to:
 127:Drivers/STM32L0xx_HAL_Driver/Src/stm32l0xx_hal_dma.c ****       (+) Initialize and configure the DMA
 128:Drivers/STM32L0xx_HAL_Driver/Src/stm32l0xx_hal_dma.c ****       (+) De-Initialize the DMA 
 129:Drivers/STM32L0xx_HAL_Driver/Src/stm32l0xx_hal_dma.c **** 
 130:Drivers/STM32L0xx_HAL_Driver/Src/stm32l0xx_hal_dma.c **** @endverbatim
 131:Drivers/STM32L0xx_HAL_Driver/Src/stm32l0xx_hal_dma.c ****   * @{
 132:Drivers/STM32L0xx_HAL_Driver/Src/stm32l0xx_hal_dma.c ****   */
 133:Drivers/STM32L0xx_HAL_Driver/Src/stm32l0xx_hal_dma.c ****   
 134:Drivers/STM32L0xx_HAL_Driver/Src/stm32l0xx_hal_dma.c **** /**
 135:Drivers/STM32L0xx_HAL_Driver/Src/stm32l0xx_hal_dma.c ****   * @brief  Initializes the DMA according to the specified
 136:Drivers/STM32L0xx_HAL_Driver/Src/stm32l0xx_hal_dma.c ****   *         parameters in the DMA_InitTypeDef and create the associated handle.
 137:Drivers/STM32L0xx_HAL_Driver/Src/stm32l0xx_hal_dma.c ****   * @param  hdma: Pointer to a DMA_HandleTypeDef structure that contains
 138:Drivers/STM32L0xx_HAL_Driver/Src/stm32l0xx_hal_dma.c ****   *               the configuration information for the specified DMA Channel.  
 139:Drivers/STM32L0xx_HAL_Driver/Src/stm32l0xx_hal_dma.c ****   * @retval HAL status
 140:Drivers/STM32L0xx_HAL_Driver/Src/stm32l0xx_hal_dma.c ****   */
 141:Drivers/STM32L0xx_HAL_Driver/Src/stm32l0xx_hal_dma.c **** HAL_StatusTypeDef HAL_DMA_Init(DMA_HandleTypeDef *hdma)
 142:Drivers/STM32L0xx_HAL_Driver/Src/stm32l0xx_hal_dma.c **** { 
 143:Drivers/STM32L0xx_HAL_Driver/Src/stm32l0xx_hal_dma.c ****   uint32_t tmp = 0U;
 144:Drivers/STM32L0xx_HAL_Driver/Src/stm32l0xx_hal_dma.c ****   
 145:Drivers/STM32L0xx_HAL_Driver/Src/stm32l0xx_hal_dma.c ****   /* Check the DMA peripheral state */
 146:Drivers/STM32L0xx_HAL_Driver/Src/stm32l0xx_hal_dma.c ****   if(hdma == NULL)
 147:Drivers/STM32L0xx_HAL_Driver/Src/stm32l0xx_hal_dma.c ****   {
 148:Drivers/STM32L0xx_HAL_Driver/Src/stm32l0xx_hal_dma.c ****     return HAL_ERROR;
ARM GAS  /var/folders/2m/zqg86yyd4hbf56w83tkxjpvr0000gn/T//cclJg58U.s 			page 4


 149:Drivers/STM32L0xx_HAL_Driver/Src/stm32l0xx_hal_dma.c ****   }
 150:Drivers/STM32L0xx_HAL_Driver/Src/stm32l0xx_hal_dma.c **** 
 151:Drivers/STM32L0xx_HAL_Driver/Src/stm32l0xx_hal_dma.c ****   /* Check the parameters */
 152:Drivers/STM32L0xx_HAL_Driver/Src/stm32l0xx_hal_dma.c ****   assert_param(IS_DMA_ALL_INSTANCE(hdma->Instance));
 153:Drivers/STM32L0xx_HAL_Driver/Src/stm32l0xx_hal_dma.c ****   assert_param(IS_DMA_ALL_REQUEST(hdma->Init.Request));
 154:Drivers/STM32L0xx_HAL_Driver/Src/stm32l0xx_hal_dma.c ****   assert_param(IS_DMA_DIRECTION(hdma->Init.Direction));
 155:Drivers/STM32L0xx_HAL_Driver/Src/stm32l0xx_hal_dma.c ****   assert_param(IS_DMA_PERIPHERAL_INC_STATE(hdma->Init.PeriphInc));
 156:Drivers/STM32L0xx_HAL_Driver/Src/stm32l0xx_hal_dma.c ****   assert_param(IS_DMA_MEMORY_INC_STATE(hdma->Init.MemInc));
 157:Drivers/STM32L0xx_HAL_Driver/Src/stm32l0xx_hal_dma.c ****   assert_param(IS_DMA_PERIPHERAL_DATA_SIZE(hdma->Init.PeriphDataAlignment));
 158:Drivers/STM32L0xx_HAL_Driver/Src/stm32l0xx_hal_dma.c ****   assert_param(IS_DMA_MEMORY_DATA_SIZE(hdma->Init.MemDataAlignment));
 159:Drivers/STM32L0xx_HAL_Driver/Src/stm32l0xx_hal_dma.c ****   assert_param(IS_DMA_MODE(hdma->Init.Mode));
 160:Drivers/STM32L0xx_HAL_Driver/Src/stm32l0xx_hal_dma.c ****   assert_param(IS_DMA_PRIORITY(hdma->Init.Priority));
 161:Drivers/STM32L0xx_HAL_Driver/Src/stm32l0xx_hal_dma.c ****   
 162:Drivers/STM32L0xx_HAL_Driver/Src/stm32l0xx_hal_dma.c ****   if(hdma->State == HAL_DMA_STATE_RESET)
 163:Drivers/STM32L0xx_HAL_Driver/Src/stm32l0xx_hal_dma.c ****   {
 164:Drivers/STM32L0xx_HAL_Driver/Src/stm32l0xx_hal_dma.c ****     /* Allocate lock resource and initialize it */
 165:Drivers/STM32L0xx_HAL_Driver/Src/stm32l0xx_hal_dma.c ****     hdma->Lock = HAL_UNLOCKED;
 166:Drivers/STM32L0xx_HAL_Driver/Src/stm32l0xx_hal_dma.c ****   }
 167:Drivers/STM32L0xx_HAL_Driver/Src/stm32l0xx_hal_dma.c **** 
 168:Drivers/STM32L0xx_HAL_Driver/Src/stm32l0xx_hal_dma.c ****   /* Change DMA peripheral state */
 169:Drivers/STM32L0xx_HAL_Driver/Src/stm32l0xx_hal_dma.c ****   hdma->State = HAL_DMA_STATE_BUSY;
 170:Drivers/STM32L0xx_HAL_Driver/Src/stm32l0xx_hal_dma.c **** 
 171:Drivers/STM32L0xx_HAL_Driver/Src/stm32l0xx_hal_dma.c ****   /* Get the CR register value */
 172:Drivers/STM32L0xx_HAL_Driver/Src/stm32l0xx_hal_dma.c ****   tmp = hdma->Instance->CCR;
 173:Drivers/STM32L0xx_HAL_Driver/Src/stm32l0xx_hal_dma.c ****   
 174:Drivers/STM32L0xx_HAL_Driver/Src/stm32l0xx_hal_dma.c ****   /* Clear PL, MSIZE, PSIZE, MINC, PINC, CIRC, DIR bits */
 175:Drivers/STM32L0xx_HAL_Driver/Src/stm32l0xx_hal_dma.c ****   tmp &= ((uint32_t)~(DMA_CCR_PL    | DMA_CCR_MSIZE  | DMA_CCR_PSIZE  | \
 176:Drivers/STM32L0xx_HAL_Driver/Src/stm32l0xx_hal_dma.c ****                       DMA_CCR_MINC  | DMA_CCR_PINC   | DMA_CCR_CIRC   | \
 177:Drivers/STM32L0xx_HAL_Driver/Src/stm32l0xx_hal_dma.c ****                       DMA_CCR_DIR));
 178:Drivers/STM32L0xx_HAL_Driver/Src/stm32l0xx_hal_dma.c ****   
 179:Drivers/STM32L0xx_HAL_Driver/Src/stm32l0xx_hal_dma.c ****   /* Prepare the DMA Channel configuration */
 180:Drivers/STM32L0xx_HAL_Driver/Src/stm32l0xx_hal_dma.c ****   tmp |=  hdma->Init.Direction        |
 181:Drivers/STM32L0xx_HAL_Driver/Src/stm32l0xx_hal_dma.c ****           hdma->Init.PeriphInc           | hdma->Init.MemInc           |
 182:Drivers/STM32L0xx_HAL_Driver/Src/stm32l0xx_hal_dma.c ****           hdma->Init.PeriphDataAlignment | hdma->Init.MemDataAlignment |
 183:Drivers/STM32L0xx_HAL_Driver/Src/stm32l0xx_hal_dma.c ****           hdma->Init.Mode                | hdma->Init.Priority;
 184:Drivers/STM32L0xx_HAL_Driver/Src/stm32l0xx_hal_dma.c **** 
 185:Drivers/STM32L0xx_HAL_Driver/Src/stm32l0xx_hal_dma.c ****   /* Write to DMA Channel CR register */
 186:Drivers/STM32L0xx_HAL_Driver/Src/stm32l0xx_hal_dma.c ****   hdma->Instance->CCR = tmp;  
 187:Drivers/STM32L0xx_HAL_Driver/Src/stm32l0xx_hal_dma.c ****   
 188:Drivers/STM32L0xx_HAL_Driver/Src/stm32l0xx_hal_dma.c ****   /* Write to DMA channel selection register */
 189:Drivers/STM32L0xx_HAL_Driver/Src/stm32l0xx_hal_dma.c ****   if (hdma->Instance == DMA1_Channel1)
 190:Drivers/STM32L0xx_HAL_Driver/Src/stm32l0xx_hal_dma.c ****   {
 191:Drivers/STM32L0xx_HAL_Driver/Src/stm32l0xx_hal_dma.c ****     /*Reset request selection for DMA1 Channel1*/
 192:Drivers/STM32L0xx_HAL_Driver/Src/stm32l0xx_hal_dma.c ****     DMA1_CSELR->CSELR &= ~DMA_CSELR_C1S;
 193:Drivers/STM32L0xx_HAL_Driver/Src/stm32l0xx_hal_dma.c ****     
 194:Drivers/STM32L0xx_HAL_Driver/Src/stm32l0xx_hal_dma.c ****     /* Configure request selection for DMA1 Channel1 */
 195:Drivers/STM32L0xx_HAL_Driver/Src/stm32l0xx_hal_dma.c ****     DMA1_CSELR->CSELR |= hdma->Init.Request;
 196:Drivers/STM32L0xx_HAL_Driver/Src/stm32l0xx_hal_dma.c ****   }
 197:Drivers/STM32L0xx_HAL_Driver/Src/stm32l0xx_hal_dma.c ****   else if (hdma->Instance == DMA1_Channel2)
 198:Drivers/STM32L0xx_HAL_Driver/Src/stm32l0xx_hal_dma.c ****   {
 199:Drivers/STM32L0xx_HAL_Driver/Src/stm32l0xx_hal_dma.c ****     /*Reset request selection for DMA1 Channel2*/
 200:Drivers/STM32L0xx_HAL_Driver/Src/stm32l0xx_hal_dma.c ****     DMA1_CSELR->CSELR &= ~DMA_CSELR_C2S;
 201:Drivers/STM32L0xx_HAL_Driver/Src/stm32l0xx_hal_dma.c ****     
 202:Drivers/STM32L0xx_HAL_Driver/Src/stm32l0xx_hal_dma.c ****     /* Configure request selection for DMA1 Channel2 */
 203:Drivers/STM32L0xx_HAL_Driver/Src/stm32l0xx_hal_dma.c ****     DMA1_CSELR->CSELR |= (uint32_t)(hdma->Init.Request << 4U);
 204:Drivers/STM32L0xx_HAL_Driver/Src/stm32l0xx_hal_dma.c ****   }
 205:Drivers/STM32L0xx_HAL_Driver/Src/stm32l0xx_hal_dma.c ****   else if (hdma->Instance == DMA1_Channel3)
ARM GAS  /var/folders/2m/zqg86yyd4hbf56w83tkxjpvr0000gn/T//cclJg58U.s 			page 5


 206:Drivers/STM32L0xx_HAL_Driver/Src/stm32l0xx_hal_dma.c ****   {
 207:Drivers/STM32L0xx_HAL_Driver/Src/stm32l0xx_hal_dma.c ****     /*Reset request selection for DMA1 Channel3*/
 208:Drivers/STM32L0xx_HAL_Driver/Src/stm32l0xx_hal_dma.c ****     DMA1_CSELR->CSELR &= ~DMA_CSELR_C3S;
 209:Drivers/STM32L0xx_HAL_Driver/Src/stm32l0xx_hal_dma.c ****     
 210:Drivers/STM32L0xx_HAL_Driver/Src/stm32l0xx_hal_dma.c ****     /* Configure request selection for DMA1 Channel3 */
 211:Drivers/STM32L0xx_HAL_Driver/Src/stm32l0xx_hal_dma.c ****     DMA1_CSELR->CSELR |= (uint32_t) (hdma->Init.Request << 8U);
 212:Drivers/STM32L0xx_HAL_Driver/Src/stm32l0xx_hal_dma.c ****   }
 213:Drivers/STM32L0xx_HAL_Driver/Src/stm32l0xx_hal_dma.c ****   else if (hdma->Instance == DMA1_Channel4)
 214:Drivers/STM32L0xx_HAL_Driver/Src/stm32l0xx_hal_dma.c ****   {
 215:Drivers/STM32L0xx_HAL_Driver/Src/stm32l0xx_hal_dma.c ****     /*Reset request selection for DMA1 Channel4*/
 216:Drivers/STM32L0xx_HAL_Driver/Src/stm32l0xx_hal_dma.c ****     DMA1_CSELR->CSELR &= ~DMA_CSELR_C4S;
 217:Drivers/STM32L0xx_HAL_Driver/Src/stm32l0xx_hal_dma.c ****     
 218:Drivers/STM32L0xx_HAL_Driver/Src/stm32l0xx_hal_dma.c ****     /* Configure request selection for DMA1 Channel4 */
 219:Drivers/STM32L0xx_HAL_Driver/Src/stm32l0xx_hal_dma.c ****     DMA1_CSELR->CSELR |= (uint32_t) (hdma->Init.Request << 12U);
 220:Drivers/STM32L0xx_HAL_Driver/Src/stm32l0xx_hal_dma.c ****   }
 221:Drivers/STM32L0xx_HAL_Driver/Src/stm32l0xx_hal_dma.c ****   else if (hdma->Instance == DMA1_Channel5)
 222:Drivers/STM32L0xx_HAL_Driver/Src/stm32l0xx_hal_dma.c ****   {
 223:Drivers/STM32L0xx_HAL_Driver/Src/stm32l0xx_hal_dma.c ****     /*Reset request selection for DMA1 Channel5*/
 224:Drivers/STM32L0xx_HAL_Driver/Src/stm32l0xx_hal_dma.c ****     DMA1_CSELR->CSELR &= ~DMA_CSELR_C5S;
 225:Drivers/STM32L0xx_HAL_Driver/Src/stm32l0xx_hal_dma.c ****     
 226:Drivers/STM32L0xx_HAL_Driver/Src/stm32l0xx_hal_dma.c ****     /* Configure request selection for DMA1 Channel5 */
 227:Drivers/STM32L0xx_HAL_Driver/Src/stm32l0xx_hal_dma.c ****     DMA1_CSELR->CSELR |= (uint32_t) (hdma->Init.Request << 16U);
 228:Drivers/STM32L0xx_HAL_Driver/Src/stm32l0xx_hal_dma.c ****   }
 229:Drivers/STM32L0xx_HAL_Driver/Src/stm32l0xx_hal_dma.c **** #if !defined (STM32L011xx) && !defined (STM32L021xx)
 230:Drivers/STM32L0xx_HAL_Driver/Src/stm32l0xx_hal_dma.c ****   else if (hdma->Instance == DMA1_Channel6)
 231:Drivers/STM32L0xx_HAL_Driver/Src/stm32l0xx_hal_dma.c ****   {
 232:Drivers/STM32L0xx_HAL_Driver/Src/stm32l0xx_hal_dma.c ****     /*Reset request selection for DMA1 Channel6*/
 233:Drivers/STM32L0xx_HAL_Driver/Src/stm32l0xx_hal_dma.c ****     DMA1_CSELR->CSELR &= ~DMA_CSELR_C6S;
 234:Drivers/STM32L0xx_HAL_Driver/Src/stm32l0xx_hal_dma.c ****     
 235:Drivers/STM32L0xx_HAL_Driver/Src/stm32l0xx_hal_dma.c ****     /* Configure request selection for DMA1 Channel6 */
 236:Drivers/STM32L0xx_HAL_Driver/Src/stm32l0xx_hal_dma.c ****     DMA1_CSELR->CSELR |= (uint32_t) (hdma->Init.Request << 20U);
 237:Drivers/STM32L0xx_HAL_Driver/Src/stm32l0xx_hal_dma.c ****   }
 238:Drivers/STM32L0xx_HAL_Driver/Src/stm32l0xx_hal_dma.c ****   else if (hdma->Instance == DMA1_Channel7)
 239:Drivers/STM32L0xx_HAL_Driver/Src/stm32l0xx_hal_dma.c ****   {
 240:Drivers/STM32L0xx_HAL_Driver/Src/stm32l0xx_hal_dma.c ****     /*Reset request selection for DMA1 Channel7*/
 241:Drivers/STM32L0xx_HAL_Driver/Src/stm32l0xx_hal_dma.c ****     DMA1_CSELR->CSELR &= ~DMA_CSELR_C7S;
 242:Drivers/STM32L0xx_HAL_Driver/Src/stm32l0xx_hal_dma.c ****     
 243:Drivers/STM32L0xx_HAL_Driver/Src/stm32l0xx_hal_dma.c ****     /* Configure request selection for DMA1 Channel7 */
 244:Drivers/STM32L0xx_HAL_Driver/Src/stm32l0xx_hal_dma.c ****     DMA1_CSELR->CSELR |= (uint32_t) (hdma->Init.Request << 24U);
 245:Drivers/STM32L0xx_HAL_Driver/Src/stm32l0xx_hal_dma.c ****   }
 246:Drivers/STM32L0xx_HAL_Driver/Src/stm32l0xx_hal_dma.c **** #endif   
 247:Drivers/STM32L0xx_HAL_Driver/Src/stm32l0xx_hal_dma.c ****   /* Initialize the DMA state*/
 248:Drivers/STM32L0xx_HAL_Driver/Src/stm32l0xx_hal_dma.c ****   hdma->State  = HAL_DMA_STATE_READY;
 249:Drivers/STM32L0xx_HAL_Driver/Src/stm32l0xx_hal_dma.c ****   
 250:Drivers/STM32L0xx_HAL_Driver/Src/stm32l0xx_hal_dma.c ****   return HAL_OK;
 251:Drivers/STM32L0xx_HAL_Driver/Src/stm32l0xx_hal_dma.c **** }  
 252:Drivers/STM32L0xx_HAL_Driver/Src/stm32l0xx_hal_dma.c ****   
 253:Drivers/STM32L0xx_HAL_Driver/Src/stm32l0xx_hal_dma.c **** /**
 254:Drivers/STM32L0xx_HAL_Driver/Src/stm32l0xx_hal_dma.c ****   * @brief  DeInitializes the DMA peripheral 
 255:Drivers/STM32L0xx_HAL_Driver/Src/stm32l0xx_hal_dma.c ****   * @param  hdma: pointer to a DMA_HandleTypeDef structure that contains
 256:Drivers/STM32L0xx_HAL_Driver/Src/stm32l0xx_hal_dma.c ****   *               the configuration information for the specified DMA Channel.  
 257:Drivers/STM32L0xx_HAL_Driver/Src/stm32l0xx_hal_dma.c ****   * @retval HAL status
 258:Drivers/STM32L0xx_HAL_Driver/Src/stm32l0xx_hal_dma.c ****   */
 259:Drivers/STM32L0xx_HAL_Driver/Src/stm32l0xx_hal_dma.c **** HAL_StatusTypeDef HAL_DMA_DeInit(DMA_HandleTypeDef *hdma)
 260:Drivers/STM32L0xx_HAL_Driver/Src/stm32l0xx_hal_dma.c **** {
 261:Drivers/STM32L0xx_HAL_Driver/Src/stm32l0xx_hal_dma.c ****   /* Check the DMA peripheral state */
 262:Drivers/STM32L0xx_HAL_Driver/Src/stm32l0xx_hal_dma.c ****   if(hdma == NULL)
ARM GAS  /var/folders/2m/zqg86yyd4hbf56w83tkxjpvr0000gn/T//cclJg58U.s 			page 6


 263:Drivers/STM32L0xx_HAL_Driver/Src/stm32l0xx_hal_dma.c ****   {
 264:Drivers/STM32L0xx_HAL_Driver/Src/stm32l0xx_hal_dma.c ****     return HAL_ERROR;
 265:Drivers/STM32L0xx_HAL_Driver/Src/stm32l0xx_hal_dma.c ****   }
 266:Drivers/STM32L0xx_HAL_Driver/Src/stm32l0xx_hal_dma.c ****   
 267:Drivers/STM32L0xx_HAL_Driver/Src/stm32l0xx_hal_dma.c ****   /* Check the DMA peripheral state */
 268:Drivers/STM32L0xx_HAL_Driver/Src/stm32l0xx_hal_dma.c ****   if(hdma->State == HAL_DMA_STATE_BUSY)
 269:Drivers/STM32L0xx_HAL_Driver/Src/stm32l0xx_hal_dma.c ****   {
 270:Drivers/STM32L0xx_HAL_Driver/Src/stm32l0xx_hal_dma.c ****     return HAL_ERROR;
 271:Drivers/STM32L0xx_HAL_Driver/Src/stm32l0xx_hal_dma.c ****   }
 272:Drivers/STM32L0xx_HAL_Driver/Src/stm32l0xx_hal_dma.c **** 
 273:Drivers/STM32L0xx_HAL_Driver/Src/stm32l0xx_hal_dma.c ****   /* Disable the selected DMA Channelx */
 274:Drivers/STM32L0xx_HAL_Driver/Src/stm32l0xx_hal_dma.c ****   __HAL_DMA_DISABLE(hdma);
 275:Drivers/STM32L0xx_HAL_Driver/Src/stm32l0xx_hal_dma.c ****   
 276:Drivers/STM32L0xx_HAL_Driver/Src/stm32l0xx_hal_dma.c ****   /* Reset DMA Channel control register */
 277:Drivers/STM32L0xx_HAL_Driver/Src/stm32l0xx_hal_dma.c ****   hdma->Instance->CCR  = 0U;
 278:Drivers/STM32L0xx_HAL_Driver/Src/stm32l0xx_hal_dma.c ****   
 279:Drivers/STM32L0xx_HAL_Driver/Src/stm32l0xx_hal_dma.c ****   /* Reset DMA Channel Number of Data to Transfer register */
 280:Drivers/STM32L0xx_HAL_Driver/Src/stm32l0xx_hal_dma.c ****   hdma->Instance->CNDTR = 0U;
 281:Drivers/STM32L0xx_HAL_Driver/Src/stm32l0xx_hal_dma.c ****   
 282:Drivers/STM32L0xx_HAL_Driver/Src/stm32l0xx_hal_dma.c ****   /* Reset DMA Channel peripheral address register */
 283:Drivers/STM32L0xx_HAL_Driver/Src/stm32l0xx_hal_dma.c ****   hdma->Instance->CPAR  = 0U;
 284:Drivers/STM32L0xx_HAL_Driver/Src/stm32l0xx_hal_dma.c ****   
 285:Drivers/STM32L0xx_HAL_Driver/Src/stm32l0xx_hal_dma.c ****   /* Reset DMA Channel memory address register */
 286:Drivers/STM32L0xx_HAL_Driver/Src/stm32l0xx_hal_dma.c ****   hdma->Instance->CMAR = 0U;
 287:Drivers/STM32L0xx_HAL_Driver/Src/stm32l0xx_hal_dma.c **** 
 288:Drivers/STM32L0xx_HAL_Driver/Src/stm32l0xx_hal_dma.c ****   /* Clear all flags */
 289:Drivers/STM32L0xx_HAL_Driver/Src/stm32l0xx_hal_dma.c ****   __HAL_DMA_CLEAR_FLAG(hdma, __HAL_DMA_GET_GI_FLAG_INDEX(hdma));
 290:Drivers/STM32L0xx_HAL_Driver/Src/stm32l0xx_hal_dma.c ****   __HAL_DMA_CLEAR_FLAG(hdma, __HAL_DMA_GET_TC_FLAG_INDEX(hdma));
 291:Drivers/STM32L0xx_HAL_Driver/Src/stm32l0xx_hal_dma.c ****   __HAL_DMA_CLEAR_FLAG(hdma, __HAL_DMA_GET_TE_FLAG_INDEX(hdma));
 292:Drivers/STM32L0xx_HAL_Driver/Src/stm32l0xx_hal_dma.c ****   __HAL_DMA_CLEAR_FLAG(hdma, __HAL_DMA_GET_HT_FLAG_INDEX(hdma));
 293:Drivers/STM32L0xx_HAL_Driver/Src/stm32l0xx_hal_dma.c ****   
 294:Drivers/STM32L0xx_HAL_Driver/Src/stm32l0xx_hal_dma.c ****   /* Reset DMA channel selection register */
 295:Drivers/STM32L0xx_HAL_Driver/Src/stm32l0xx_hal_dma.c ****   if (hdma->Instance == DMA1_Channel1)
 296:Drivers/STM32L0xx_HAL_Driver/Src/stm32l0xx_hal_dma.c ****   {
 297:Drivers/STM32L0xx_HAL_Driver/Src/stm32l0xx_hal_dma.c ****     /*Reset DMA request*/
 298:Drivers/STM32L0xx_HAL_Driver/Src/stm32l0xx_hal_dma.c ****     DMA1_CSELR->CSELR &= ~DMA_CSELR_C1S;
 299:Drivers/STM32L0xx_HAL_Driver/Src/stm32l0xx_hal_dma.c ****   }
 300:Drivers/STM32L0xx_HAL_Driver/Src/stm32l0xx_hal_dma.c ****   else if (hdma->Instance == DMA1_Channel2)
 301:Drivers/STM32L0xx_HAL_Driver/Src/stm32l0xx_hal_dma.c ****   {
 302:Drivers/STM32L0xx_HAL_Driver/Src/stm32l0xx_hal_dma.c ****     /*Reset DMA request*/
 303:Drivers/STM32L0xx_HAL_Driver/Src/stm32l0xx_hal_dma.c ****     DMA1_CSELR->CSELR &= ~DMA_CSELR_C2S;
 304:Drivers/STM32L0xx_HAL_Driver/Src/stm32l0xx_hal_dma.c ****   }
 305:Drivers/STM32L0xx_HAL_Driver/Src/stm32l0xx_hal_dma.c ****   else if (hdma->Instance == DMA1_Channel3)
 306:Drivers/STM32L0xx_HAL_Driver/Src/stm32l0xx_hal_dma.c ****   {
 307:Drivers/STM32L0xx_HAL_Driver/Src/stm32l0xx_hal_dma.c ****     /*Reset DMA request*/
 308:Drivers/STM32L0xx_HAL_Driver/Src/stm32l0xx_hal_dma.c ****     DMA1_CSELR->CSELR &= ~DMA_CSELR_C3S;
 309:Drivers/STM32L0xx_HAL_Driver/Src/stm32l0xx_hal_dma.c ****   }
 310:Drivers/STM32L0xx_HAL_Driver/Src/stm32l0xx_hal_dma.c ****   else if (hdma->Instance == DMA1_Channel4)
 311:Drivers/STM32L0xx_HAL_Driver/Src/stm32l0xx_hal_dma.c ****   {
 312:Drivers/STM32L0xx_HAL_Driver/Src/stm32l0xx_hal_dma.c ****     /*Reset DMA request*/
 313:Drivers/STM32L0xx_HAL_Driver/Src/stm32l0xx_hal_dma.c ****     DMA1_CSELR->CSELR &= ~DMA_CSELR_C4S;
 314:Drivers/STM32L0xx_HAL_Driver/Src/stm32l0xx_hal_dma.c ****   }
 315:Drivers/STM32L0xx_HAL_Driver/Src/stm32l0xx_hal_dma.c ****   else if (hdma->Instance == DMA1_Channel5)
 316:Drivers/STM32L0xx_HAL_Driver/Src/stm32l0xx_hal_dma.c ****   {
 317:Drivers/STM32L0xx_HAL_Driver/Src/stm32l0xx_hal_dma.c ****     /*Reset DMA request*/
 318:Drivers/STM32L0xx_HAL_Driver/Src/stm32l0xx_hal_dma.c ****     DMA1_CSELR->CSELR &= ~DMA_CSELR_C5S;
 319:Drivers/STM32L0xx_HAL_Driver/Src/stm32l0xx_hal_dma.c ****   }
ARM GAS  /var/folders/2m/zqg86yyd4hbf56w83tkxjpvr0000gn/T//cclJg58U.s 			page 7


 320:Drivers/STM32L0xx_HAL_Driver/Src/stm32l0xx_hal_dma.c **** #if !defined (STM32L011xx) && !defined (STM32L021xx)
 321:Drivers/STM32L0xx_HAL_Driver/Src/stm32l0xx_hal_dma.c ****   else if (hdma->Instance == DMA1_Channel6)
 322:Drivers/STM32L0xx_HAL_Driver/Src/stm32l0xx_hal_dma.c ****   {
 323:Drivers/STM32L0xx_HAL_Driver/Src/stm32l0xx_hal_dma.c ****     /*Reset DMA request*/
 324:Drivers/STM32L0xx_HAL_Driver/Src/stm32l0xx_hal_dma.c ****     DMA1_CSELR->CSELR &= ~DMA_CSELR_C6S;
 325:Drivers/STM32L0xx_HAL_Driver/Src/stm32l0xx_hal_dma.c ****   }
 326:Drivers/STM32L0xx_HAL_Driver/Src/stm32l0xx_hal_dma.c ****   else if (hdma->Instance == DMA1_Channel7)
 327:Drivers/STM32L0xx_HAL_Driver/Src/stm32l0xx_hal_dma.c ****   {
 328:Drivers/STM32L0xx_HAL_Driver/Src/stm32l0xx_hal_dma.c ****     /*Reset DMA request*/
 329:Drivers/STM32L0xx_HAL_Driver/Src/stm32l0xx_hal_dma.c ****     DMA1_CSELR->CSELR &= ~DMA_CSELR_C7S;
 330:Drivers/STM32L0xx_HAL_Driver/Src/stm32l0xx_hal_dma.c ****   }
 331:Drivers/STM32L0xx_HAL_Driver/Src/stm32l0xx_hal_dma.c **** #endif  
 332:Drivers/STM32L0xx_HAL_Driver/Src/stm32l0xx_hal_dma.c ****   /* Initialise the error code */
 333:Drivers/STM32L0xx_HAL_Driver/Src/stm32l0xx_hal_dma.c ****   hdma->ErrorCode = HAL_DMA_ERROR_NONE;
 334:Drivers/STM32L0xx_HAL_Driver/Src/stm32l0xx_hal_dma.c **** 
 335:Drivers/STM32L0xx_HAL_Driver/Src/stm32l0xx_hal_dma.c ****   /* Initialize the DMA state */
 336:Drivers/STM32L0xx_HAL_Driver/Src/stm32l0xx_hal_dma.c ****   hdma->State = HAL_DMA_STATE_RESET;
 337:Drivers/STM32L0xx_HAL_Driver/Src/stm32l0xx_hal_dma.c ****   
 338:Drivers/STM32L0xx_HAL_Driver/Src/stm32l0xx_hal_dma.c ****   /* Release Lock */
 339:Drivers/STM32L0xx_HAL_Driver/Src/stm32l0xx_hal_dma.c ****   __HAL_UNLOCK(hdma);
 340:Drivers/STM32L0xx_HAL_Driver/Src/stm32l0xx_hal_dma.c **** 
 341:Drivers/STM32L0xx_HAL_Driver/Src/stm32l0xx_hal_dma.c ****   return HAL_OK;
 342:Drivers/STM32L0xx_HAL_Driver/Src/stm32l0xx_hal_dma.c **** }
 343:Drivers/STM32L0xx_HAL_Driver/Src/stm32l0xx_hal_dma.c **** 
 344:Drivers/STM32L0xx_HAL_Driver/Src/stm32l0xx_hal_dma.c **** /**
 345:Drivers/STM32L0xx_HAL_Driver/Src/stm32l0xx_hal_dma.c ****   * @}
 346:Drivers/STM32L0xx_HAL_Driver/Src/stm32l0xx_hal_dma.c ****   */
 347:Drivers/STM32L0xx_HAL_Driver/Src/stm32l0xx_hal_dma.c **** 
 348:Drivers/STM32L0xx_HAL_Driver/Src/stm32l0xx_hal_dma.c **** /** @addtogroup DMA_Exported_Functions_Group2  
 349:Drivers/STM32L0xx_HAL_Driver/Src/stm32l0xx_hal_dma.c ****  *  @brief   I/O operation functions  
 350:Drivers/STM32L0xx_HAL_Driver/Src/stm32l0xx_hal_dma.c ****  *
 351:Drivers/STM32L0xx_HAL_Driver/Src/stm32l0xx_hal_dma.c **** @verbatim   
 352:Drivers/STM32L0xx_HAL_Driver/Src/stm32l0xx_hal_dma.c ****  ===============================================================================
 353:Drivers/STM32L0xx_HAL_Driver/Src/stm32l0xx_hal_dma.c ****                       #####  IO operation functions  #####
 354:Drivers/STM32L0xx_HAL_Driver/Src/stm32l0xx_hal_dma.c ****  ===============================================================================  
 355:Drivers/STM32L0xx_HAL_Driver/Src/stm32l0xx_hal_dma.c ****     [..]  This section provides functions allowing to:
 356:Drivers/STM32L0xx_HAL_Driver/Src/stm32l0xx_hal_dma.c ****       (+) Configure the source, destination address and data length and Start DMA transfer
 357:Drivers/STM32L0xx_HAL_Driver/Src/stm32l0xx_hal_dma.c ****       (+) Configure the source, destination address and data length and 
 358:Drivers/STM32L0xx_HAL_Driver/Src/stm32l0xx_hal_dma.c ****           Start DMA transfer with interrupt
 359:Drivers/STM32L0xx_HAL_Driver/Src/stm32l0xx_hal_dma.c ****       (+) Abort DMA transfer
 360:Drivers/STM32L0xx_HAL_Driver/Src/stm32l0xx_hal_dma.c ****       (+) Poll for transfer complete
 361:Drivers/STM32L0xx_HAL_Driver/Src/stm32l0xx_hal_dma.c ****       (+) Handle DMA interrupt request  
 362:Drivers/STM32L0xx_HAL_Driver/Src/stm32l0xx_hal_dma.c **** 
 363:Drivers/STM32L0xx_HAL_Driver/Src/stm32l0xx_hal_dma.c **** @endverbatim
 364:Drivers/STM32L0xx_HAL_Driver/Src/stm32l0xx_hal_dma.c ****   * @{
 365:Drivers/STM32L0xx_HAL_Driver/Src/stm32l0xx_hal_dma.c ****   */
 366:Drivers/STM32L0xx_HAL_Driver/Src/stm32l0xx_hal_dma.c **** 
 367:Drivers/STM32L0xx_HAL_Driver/Src/stm32l0xx_hal_dma.c **** /**
 368:Drivers/STM32L0xx_HAL_Driver/Src/stm32l0xx_hal_dma.c ****   * @brief  Starts the DMA Transfer.
 369:Drivers/STM32L0xx_HAL_Driver/Src/stm32l0xx_hal_dma.c ****   * @param  hdma      : pointer to a DMA_HandleTypeDef structure that contains
 370:Drivers/STM32L0xx_HAL_Driver/Src/stm32l0xx_hal_dma.c ****   *                     the configuration information for the specified DMA Channel.  
 371:Drivers/STM32L0xx_HAL_Driver/Src/stm32l0xx_hal_dma.c ****   * @param  SrcAddress: The source memory Buffer address
 372:Drivers/STM32L0xx_HAL_Driver/Src/stm32l0xx_hal_dma.c ****   * @param  DstAddress: The destination memory Buffer address
 373:Drivers/STM32L0xx_HAL_Driver/Src/stm32l0xx_hal_dma.c ****   * @param  DataLength: The length of data to be transferred from source to destination
 374:Drivers/STM32L0xx_HAL_Driver/Src/stm32l0xx_hal_dma.c ****   * @retval HAL status
 375:Drivers/STM32L0xx_HAL_Driver/Src/stm32l0xx_hal_dma.c ****   */
 376:Drivers/STM32L0xx_HAL_Driver/Src/stm32l0xx_hal_dma.c **** HAL_StatusTypeDef HAL_DMA_Start(DMA_HandleTypeDef *hdma, uint32_t SrcAddress, uint32_t DstAddress, 
ARM GAS  /var/folders/2m/zqg86yyd4hbf56w83tkxjpvr0000gn/T//cclJg58U.s 			page 8


 377:Drivers/STM32L0xx_HAL_Driver/Src/stm32l0xx_hal_dma.c **** { 
 378:Drivers/STM32L0xx_HAL_Driver/Src/stm32l0xx_hal_dma.c ****   /* Process locked */
 379:Drivers/STM32L0xx_HAL_Driver/Src/stm32l0xx_hal_dma.c ****   __HAL_LOCK(hdma);  
 380:Drivers/STM32L0xx_HAL_Driver/Src/stm32l0xx_hal_dma.c **** 
 381:Drivers/STM32L0xx_HAL_Driver/Src/stm32l0xx_hal_dma.c ****   /* Change DMA peripheral state */  
 382:Drivers/STM32L0xx_HAL_Driver/Src/stm32l0xx_hal_dma.c ****   hdma->State = HAL_DMA_STATE_BUSY;  
 383:Drivers/STM32L0xx_HAL_Driver/Src/stm32l0xx_hal_dma.c **** 
 384:Drivers/STM32L0xx_HAL_Driver/Src/stm32l0xx_hal_dma.c ****    /* Check the parameters */
 385:Drivers/STM32L0xx_HAL_Driver/Src/stm32l0xx_hal_dma.c ****   assert_param(IS_DMA_BUFFER_SIZE(DataLength));
 386:Drivers/STM32L0xx_HAL_Driver/Src/stm32l0xx_hal_dma.c ****   
 387:Drivers/STM32L0xx_HAL_Driver/Src/stm32l0xx_hal_dma.c ****   /* Disable the peripheral */
 388:Drivers/STM32L0xx_HAL_Driver/Src/stm32l0xx_hal_dma.c ****   __HAL_DMA_DISABLE(hdma);  
 389:Drivers/STM32L0xx_HAL_Driver/Src/stm32l0xx_hal_dma.c ****   
 390:Drivers/STM32L0xx_HAL_Driver/Src/stm32l0xx_hal_dma.c ****   /* Configure the source, destination address and the data length */
 391:Drivers/STM32L0xx_HAL_Driver/Src/stm32l0xx_hal_dma.c ****   DMA_SetConfig(hdma, SrcAddress, DstAddress, DataLength);
 392:Drivers/STM32L0xx_HAL_Driver/Src/stm32l0xx_hal_dma.c **** 
 393:Drivers/STM32L0xx_HAL_Driver/Src/stm32l0xx_hal_dma.c ****   /* Enable the Peripheral */
 394:Drivers/STM32L0xx_HAL_Driver/Src/stm32l0xx_hal_dma.c ****   __HAL_DMA_ENABLE(hdma);  
 395:Drivers/STM32L0xx_HAL_Driver/Src/stm32l0xx_hal_dma.c **** 
 396:Drivers/STM32L0xx_HAL_Driver/Src/stm32l0xx_hal_dma.c ****   return HAL_OK; 
 397:Drivers/STM32L0xx_HAL_Driver/Src/stm32l0xx_hal_dma.c **** } 
 398:Drivers/STM32L0xx_HAL_Driver/Src/stm32l0xx_hal_dma.c **** 
 399:Drivers/STM32L0xx_HAL_Driver/Src/stm32l0xx_hal_dma.c **** /**
 400:Drivers/STM32L0xx_HAL_Driver/Src/stm32l0xx_hal_dma.c ****   * @brief  Start the DMA Transfer with interrupt enabled.
 401:Drivers/STM32L0xx_HAL_Driver/Src/stm32l0xx_hal_dma.c ****   * @param  hdma:       pointer to a DMA_HandleTypeDef structure that contains
 402:Drivers/STM32L0xx_HAL_Driver/Src/stm32l0xx_hal_dma.c ****   *                     the configuration information for the specified DMA Channel.  
 403:Drivers/STM32L0xx_HAL_Driver/Src/stm32l0xx_hal_dma.c ****   * @param  SrcAddress: The source memory Buffer address
 404:Drivers/STM32L0xx_HAL_Driver/Src/stm32l0xx_hal_dma.c ****   * @param  DstAddress: The destination memory Buffer address
 405:Drivers/STM32L0xx_HAL_Driver/Src/stm32l0xx_hal_dma.c ****   * @param  DataLength: The length of data to be transferred from source to destination
 406:Drivers/STM32L0xx_HAL_Driver/Src/stm32l0xx_hal_dma.c ****   * @retval HAL status
 407:Drivers/STM32L0xx_HAL_Driver/Src/stm32l0xx_hal_dma.c ****   */
 408:Drivers/STM32L0xx_HAL_Driver/Src/stm32l0xx_hal_dma.c **** HAL_StatusTypeDef HAL_DMA_Start_IT(DMA_HandleTypeDef *hdma, uint32_t SrcAddress, uint32_t DstAddres
 409:Drivers/STM32L0xx_HAL_Driver/Src/stm32l0xx_hal_dma.c **** {
 410:Drivers/STM32L0xx_HAL_Driver/Src/stm32l0xx_hal_dma.c ****   /* Process locked */
 411:Drivers/STM32L0xx_HAL_Driver/Src/stm32l0xx_hal_dma.c ****   __HAL_LOCK(hdma);
 412:Drivers/STM32L0xx_HAL_Driver/Src/stm32l0xx_hal_dma.c **** 
 413:Drivers/STM32L0xx_HAL_Driver/Src/stm32l0xx_hal_dma.c ****   /* Change DMA peripheral state */  
 414:Drivers/STM32L0xx_HAL_Driver/Src/stm32l0xx_hal_dma.c ****   hdma->State = HAL_DMA_STATE_BUSY;  
 415:Drivers/STM32L0xx_HAL_Driver/Src/stm32l0xx_hal_dma.c **** 
 416:Drivers/STM32L0xx_HAL_Driver/Src/stm32l0xx_hal_dma.c ****    /* Check the parameters */
 417:Drivers/STM32L0xx_HAL_Driver/Src/stm32l0xx_hal_dma.c ****   assert_param(IS_DMA_BUFFER_SIZE(DataLength));
 418:Drivers/STM32L0xx_HAL_Driver/Src/stm32l0xx_hal_dma.c ****   
 419:Drivers/STM32L0xx_HAL_Driver/Src/stm32l0xx_hal_dma.c ****   /* Disable the peripheral */
 420:Drivers/STM32L0xx_HAL_Driver/Src/stm32l0xx_hal_dma.c ****   __HAL_DMA_DISABLE(hdma);
 421:Drivers/STM32L0xx_HAL_Driver/Src/stm32l0xx_hal_dma.c ****   
 422:Drivers/STM32L0xx_HAL_Driver/Src/stm32l0xx_hal_dma.c ****   /* Configure the source, destination address and the data length */  
 423:Drivers/STM32L0xx_HAL_Driver/Src/stm32l0xx_hal_dma.c ****   DMA_SetConfig(hdma, SrcAddress, DstAddress, DataLength);
 424:Drivers/STM32L0xx_HAL_Driver/Src/stm32l0xx_hal_dma.c ****   
 425:Drivers/STM32L0xx_HAL_Driver/Src/stm32l0xx_hal_dma.c ****   /* Enable the transfer complete interrupt */
 426:Drivers/STM32L0xx_HAL_Driver/Src/stm32l0xx_hal_dma.c ****   __HAL_DMA_ENABLE_IT(hdma, DMA_IT_TC);
 427:Drivers/STM32L0xx_HAL_Driver/Src/stm32l0xx_hal_dma.c **** 
 428:Drivers/STM32L0xx_HAL_Driver/Src/stm32l0xx_hal_dma.c ****   /* Enable the Half transfer complete interrupt */
 429:Drivers/STM32L0xx_HAL_Driver/Src/stm32l0xx_hal_dma.c ****   __HAL_DMA_ENABLE_IT(hdma, DMA_IT_HT);  
 430:Drivers/STM32L0xx_HAL_Driver/Src/stm32l0xx_hal_dma.c **** 
 431:Drivers/STM32L0xx_HAL_Driver/Src/stm32l0xx_hal_dma.c ****   /* Enable the transfer Error interrupt */
 432:Drivers/STM32L0xx_HAL_Driver/Src/stm32l0xx_hal_dma.c ****   __HAL_DMA_ENABLE_IT(hdma, DMA_IT_TE);
 433:Drivers/STM32L0xx_HAL_Driver/Src/stm32l0xx_hal_dma.c ****   
ARM GAS  /var/folders/2m/zqg86yyd4hbf56w83tkxjpvr0000gn/T//cclJg58U.s 			page 9


 434:Drivers/STM32L0xx_HAL_Driver/Src/stm32l0xx_hal_dma.c ****    /* Enable the Peripheral */
 435:Drivers/STM32L0xx_HAL_Driver/Src/stm32l0xx_hal_dma.c ****   __HAL_DMA_ENABLE(hdma);   
 436:Drivers/STM32L0xx_HAL_Driver/Src/stm32l0xx_hal_dma.c ****   
 437:Drivers/STM32L0xx_HAL_Driver/Src/stm32l0xx_hal_dma.c ****   return HAL_OK;    
 438:Drivers/STM32L0xx_HAL_Driver/Src/stm32l0xx_hal_dma.c **** } 
 439:Drivers/STM32L0xx_HAL_Driver/Src/stm32l0xx_hal_dma.c **** 
 440:Drivers/STM32L0xx_HAL_Driver/Src/stm32l0xx_hal_dma.c **** /**
 441:Drivers/STM32L0xx_HAL_Driver/Src/stm32l0xx_hal_dma.c ****   * @brief  Aborts the DMA Transfer.
 442:Drivers/STM32L0xx_HAL_Driver/Src/stm32l0xx_hal_dma.c ****   * @param  hdma  : pointer to a DMA_HandleTypeDef structure that contains
 443:Drivers/STM32L0xx_HAL_Driver/Src/stm32l0xx_hal_dma.c ****   *                 the configuration information for the specified DMA Channel.
 444:Drivers/STM32L0xx_HAL_Driver/Src/stm32l0xx_hal_dma.c ****   * @retval HAL status
 445:Drivers/STM32L0xx_HAL_Driver/Src/stm32l0xx_hal_dma.c ****   */
 446:Drivers/STM32L0xx_HAL_Driver/Src/stm32l0xx_hal_dma.c **** HAL_StatusTypeDef HAL_DMA_Abort(DMA_HandleTypeDef *hdma)
 447:Drivers/STM32L0xx_HAL_Driver/Src/stm32l0xx_hal_dma.c **** {
 448:Drivers/STM32L0xx_HAL_Driver/Src/stm32l0xx_hal_dma.c ****   uint32_t tickstart = 0U;
 449:Drivers/STM32L0xx_HAL_Driver/Src/stm32l0xx_hal_dma.c ****   
 450:Drivers/STM32L0xx_HAL_Driver/Src/stm32l0xx_hal_dma.c ****   /* Disable the channel */
 451:Drivers/STM32L0xx_HAL_Driver/Src/stm32l0xx_hal_dma.c ****   __HAL_DMA_DISABLE(hdma);
 452:Drivers/STM32L0xx_HAL_Driver/Src/stm32l0xx_hal_dma.c ****   
 453:Drivers/STM32L0xx_HAL_Driver/Src/stm32l0xx_hal_dma.c ****   /* Get timeout */
 454:Drivers/STM32L0xx_HAL_Driver/Src/stm32l0xx_hal_dma.c ****   tickstart = HAL_GetTick();
 455:Drivers/STM32L0xx_HAL_Driver/Src/stm32l0xx_hal_dma.c ****   
 456:Drivers/STM32L0xx_HAL_Driver/Src/stm32l0xx_hal_dma.c ****   /* Check if the DMA Channel is effectively disabled */
 457:Drivers/STM32L0xx_HAL_Driver/Src/stm32l0xx_hal_dma.c ****   while((hdma->Instance->CCR & DMA_CCR_EN) != 0U) 
 458:Drivers/STM32L0xx_HAL_Driver/Src/stm32l0xx_hal_dma.c ****   {
 459:Drivers/STM32L0xx_HAL_Driver/Src/stm32l0xx_hal_dma.c ****     /* Check for the Timeout */
 460:Drivers/STM32L0xx_HAL_Driver/Src/stm32l0xx_hal_dma.c ****     if( (HAL_GetTick()  - tickstart ) > HAL_TIMEOUT_DMA_ABORT)
 461:Drivers/STM32L0xx_HAL_Driver/Src/stm32l0xx_hal_dma.c ****     {
 462:Drivers/STM32L0xx_HAL_Driver/Src/stm32l0xx_hal_dma.c ****       /* Update error code */
 463:Drivers/STM32L0xx_HAL_Driver/Src/stm32l0xx_hal_dma.c ****       hdma->ErrorCode |= HAL_DMA_ERROR_TIMEOUT;
 464:Drivers/STM32L0xx_HAL_Driver/Src/stm32l0xx_hal_dma.c ****       
 465:Drivers/STM32L0xx_HAL_Driver/Src/stm32l0xx_hal_dma.c ****       /* Process Unlocked */
 466:Drivers/STM32L0xx_HAL_Driver/Src/stm32l0xx_hal_dma.c ****       __HAL_UNLOCK(hdma);
 467:Drivers/STM32L0xx_HAL_Driver/Src/stm32l0xx_hal_dma.c ****       
 468:Drivers/STM32L0xx_HAL_Driver/Src/stm32l0xx_hal_dma.c ****       /* Change the DMA state */
 469:Drivers/STM32L0xx_HAL_Driver/Src/stm32l0xx_hal_dma.c ****       hdma->State = HAL_DMA_STATE_TIMEOUT;
 470:Drivers/STM32L0xx_HAL_Driver/Src/stm32l0xx_hal_dma.c ****       
 471:Drivers/STM32L0xx_HAL_Driver/Src/stm32l0xx_hal_dma.c ****       return HAL_TIMEOUT;
 472:Drivers/STM32L0xx_HAL_Driver/Src/stm32l0xx_hal_dma.c ****     }
 473:Drivers/STM32L0xx_HAL_Driver/Src/stm32l0xx_hal_dma.c ****   }
 474:Drivers/STM32L0xx_HAL_Driver/Src/stm32l0xx_hal_dma.c ****   /* Process Unlocked */
 475:Drivers/STM32L0xx_HAL_Driver/Src/stm32l0xx_hal_dma.c ****   __HAL_UNLOCK(hdma);
 476:Drivers/STM32L0xx_HAL_Driver/Src/stm32l0xx_hal_dma.c ****   
 477:Drivers/STM32L0xx_HAL_Driver/Src/stm32l0xx_hal_dma.c ****   /* Change the DMA state*/
 478:Drivers/STM32L0xx_HAL_Driver/Src/stm32l0xx_hal_dma.c ****   hdma->State = HAL_DMA_STATE_READY; 
 479:Drivers/STM32L0xx_HAL_Driver/Src/stm32l0xx_hal_dma.c ****   
 480:Drivers/STM32L0xx_HAL_Driver/Src/stm32l0xx_hal_dma.c ****   return HAL_OK; 
 481:Drivers/STM32L0xx_HAL_Driver/Src/stm32l0xx_hal_dma.c **** }
 482:Drivers/STM32L0xx_HAL_Driver/Src/stm32l0xx_hal_dma.c **** 
 483:Drivers/STM32L0xx_HAL_Driver/Src/stm32l0xx_hal_dma.c **** /**
 484:Drivers/STM32L0xx_HAL_Driver/Src/stm32l0xx_hal_dma.c ****   * @brief  Aborts the DMA Transfer in Interrupt mode.
 485:Drivers/STM32L0xx_HAL_Driver/Src/stm32l0xx_hal_dma.c ****   * @param  hdma  : pointer to a DMA_HandleTypeDef structure that contains
 486:Drivers/STM32L0xx_HAL_Driver/Src/stm32l0xx_hal_dma.c ****   *                 the configuration information for the specified DMA Stream.
 487:Drivers/STM32L0xx_HAL_Driver/Src/stm32l0xx_hal_dma.c ****   * @retval HAL status
 488:Drivers/STM32L0xx_HAL_Driver/Src/stm32l0xx_hal_dma.c ****   */
 489:Drivers/STM32L0xx_HAL_Driver/Src/stm32l0xx_hal_dma.c **** HAL_StatusTypeDef HAL_DMA_Abort_IT(DMA_HandleTypeDef *hdma)
 490:Drivers/STM32L0xx_HAL_Driver/Src/stm32l0xx_hal_dma.c **** {  
ARM GAS  /var/folders/2m/zqg86yyd4hbf56w83tkxjpvr0000gn/T//cclJg58U.s 			page 10


 491:Drivers/STM32L0xx_HAL_Driver/Src/stm32l0xx_hal_dma.c ****   HAL_StatusTypeDef status = HAL_OK;
 492:Drivers/STM32L0xx_HAL_Driver/Src/stm32l0xx_hal_dma.c ****   
 493:Drivers/STM32L0xx_HAL_Driver/Src/stm32l0xx_hal_dma.c ****   if(HAL_DMA_STATE_BUSY != hdma->State)
 494:Drivers/STM32L0xx_HAL_Driver/Src/stm32l0xx_hal_dma.c ****   {
 495:Drivers/STM32L0xx_HAL_Driver/Src/stm32l0xx_hal_dma.c ****     /* no transfer ongoing */
 496:Drivers/STM32L0xx_HAL_Driver/Src/stm32l0xx_hal_dma.c ****     hdma->ErrorCode = HAL_DMA_ERROR_NO_XFER;
 497:Drivers/STM32L0xx_HAL_Driver/Src/stm32l0xx_hal_dma.c ****         
 498:Drivers/STM32L0xx_HAL_Driver/Src/stm32l0xx_hal_dma.c ****     status = HAL_ERROR;
 499:Drivers/STM32L0xx_HAL_Driver/Src/stm32l0xx_hal_dma.c ****   }
 500:Drivers/STM32L0xx_HAL_Driver/Src/stm32l0xx_hal_dma.c ****   else
 501:Drivers/STM32L0xx_HAL_Driver/Src/stm32l0xx_hal_dma.c ****   { 
 502:Drivers/STM32L0xx_HAL_Driver/Src/stm32l0xx_hal_dma.c ****     /* Disable DMA IT */
 503:Drivers/STM32L0xx_HAL_Driver/Src/stm32l0xx_hal_dma.c ****     __HAL_DMA_DISABLE_IT(hdma, (DMA_IT_TC | DMA_IT_HT | DMA_IT_TE));
 504:Drivers/STM32L0xx_HAL_Driver/Src/stm32l0xx_hal_dma.c ****     
 505:Drivers/STM32L0xx_HAL_Driver/Src/stm32l0xx_hal_dma.c ****     /* Disable the channel */
 506:Drivers/STM32L0xx_HAL_Driver/Src/stm32l0xx_hal_dma.c ****     __HAL_DMA_DISABLE(hdma);
 507:Drivers/STM32L0xx_HAL_Driver/Src/stm32l0xx_hal_dma.c ****     
 508:Drivers/STM32L0xx_HAL_Driver/Src/stm32l0xx_hal_dma.c ****     /* Clear all flags */
 509:Drivers/STM32L0xx_HAL_Driver/Src/stm32l0xx_hal_dma.c ****     __HAL_DMA_CLEAR_FLAG(hdma, __HAL_DMA_GET_GI_FLAG_INDEX(hdma));
 510:Drivers/STM32L0xx_HAL_Driver/Src/stm32l0xx_hal_dma.c ****     
 511:Drivers/STM32L0xx_HAL_Driver/Src/stm32l0xx_hal_dma.c ****     /* Change the DMA state */
 512:Drivers/STM32L0xx_HAL_Driver/Src/stm32l0xx_hal_dma.c ****     hdma->State = HAL_DMA_STATE_READY;
 513:Drivers/STM32L0xx_HAL_Driver/Src/stm32l0xx_hal_dma.c ****     
 514:Drivers/STM32L0xx_HAL_Driver/Src/stm32l0xx_hal_dma.c ****     /* Process Unlocked */
 515:Drivers/STM32L0xx_HAL_Driver/Src/stm32l0xx_hal_dma.c ****     __HAL_UNLOCK(hdma);
 516:Drivers/STM32L0xx_HAL_Driver/Src/stm32l0xx_hal_dma.c ****     
 517:Drivers/STM32L0xx_HAL_Driver/Src/stm32l0xx_hal_dma.c ****     /* Call User Abort callback */ 
 518:Drivers/STM32L0xx_HAL_Driver/Src/stm32l0xx_hal_dma.c ****     if(hdma->XferAbortCallback != NULL)
 519:Drivers/STM32L0xx_HAL_Driver/Src/stm32l0xx_hal_dma.c ****     {
 520:Drivers/STM32L0xx_HAL_Driver/Src/stm32l0xx_hal_dma.c ****       hdma->XferAbortCallback(hdma);
 521:Drivers/STM32L0xx_HAL_Driver/Src/stm32l0xx_hal_dma.c ****     } 
 522:Drivers/STM32L0xx_HAL_Driver/Src/stm32l0xx_hal_dma.c ****   }
 523:Drivers/STM32L0xx_HAL_Driver/Src/stm32l0xx_hal_dma.c ****   return status;
 524:Drivers/STM32L0xx_HAL_Driver/Src/stm32l0xx_hal_dma.c **** }
 525:Drivers/STM32L0xx_HAL_Driver/Src/stm32l0xx_hal_dma.c **** 
 526:Drivers/STM32L0xx_HAL_Driver/Src/stm32l0xx_hal_dma.c **** /**
 527:Drivers/STM32L0xx_HAL_Driver/Src/stm32l0xx_hal_dma.c ****   * @brief  Polling for transfer complete.
 528:Drivers/STM32L0xx_HAL_Driver/Src/stm32l0xx_hal_dma.c ****   * @param  hdma:    pointer to a DMA_HandleTypeDef structure that contains
 529:Drivers/STM32L0xx_HAL_Driver/Src/stm32l0xx_hal_dma.c ****   *                  the configuration information for the specified DMA Channel.
 530:Drivers/STM32L0xx_HAL_Driver/Src/stm32l0xx_hal_dma.c ****   * @param  CompleteLevel: Specifies the DMA level complete.  
 531:Drivers/STM32L0xx_HAL_Driver/Src/stm32l0xx_hal_dma.c ****   * @param  Timeout:       Timeout duration.
 532:Drivers/STM32L0xx_HAL_Driver/Src/stm32l0xx_hal_dma.c ****   * @retval HAL status
 533:Drivers/STM32L0xx_HAL_Driver/Src/stm32l0xx_hal_dma.c ****   */
 534:Drivers/STM32L0xx_HAL_Driver/Src/stm32l0xx_hal_dma.c **** HAL_StatusTypeDef HAL_DMA_PollForTransfer(DMA_HandleTypeDef *hdma, uint32_t CompleteLevel, uint32_t
 535:Drivers/STM32L0xx_HAL_Driver/Src/stm32l0xx_hal_dma.c **** {
 536:Drivers/STM32L0xx_HAL_Driver/Src/stm32l0xx_hal_dma.c ****   uint32_t temp;
 537:Drivers/STM32L0xx_HAL_Driver/Src/stm32l0xx_hal_dma.c ****   uint32_t tickstart = 0U;
 538:Drivers/STM32L0xx_HAL_Driver/Src/stm32l0xx_hal_dma.c ****   
 539:Drivers/STM32L0xx_HAL_Driver/Src/stm32l0xx_hal_dma.c ****   /* Get the level transfer complete flag */
 540:Drivers/STM32L0xx_HAL_Driver/Src/stm32l0xx_hal_dma.c ****   if(CompleteLevel == HAL_DMA_FULL_TRANSFER)
 541:Drivers/STM32L0xx_HAL_Driver/Src/stm32l0xx_hal_dma.c ****   {
 542:Drivers/STM32L0xx_HAL_Driver/Src/stm32l0xx_hal_dma.c ****     /* Transfer Complete flag */
 543:Drivers/STM32L0xx_HAL_Driver/Src/stm32l0xx_hal_dma.c ****     temp = __HAL_DMA_GET_TC_FLAG_INDEX(hdma);
 544:Drivers/STM32L0xx_HAL_Driver/Src/stm32l0xx_hal_dma.c ****   }
 545:Drivers/STM32L0xx_HAL_Driver/Src/stm32l0xx_hal_dma.c ****   else
 546:Drivers/STM32L0xx_HAL_Driver/Src/stm32l0xx_hal_dma.c ****   {
 547:Drivers/STM32L0xx_HAL_Driver/Src/stm32l0xx_hal_dma.c ****     /* Half Transfer Complete flag */
ARM GAS  /var/folders/2m/zqg86yyd4hbf56w83tkxjpvr0000gn/T//cclJg58U.s 			page 11


 548:Drivers/STM32L0xx_HAL_Driver/Src/stm32l0xx_hal_dma.c ****     temp = __HAL_DMA_GET_HT_FLAG_INDEX(hdma);
 549:Drivers/STM32L0xx_HAL_Driver/Src/stm32l0xx_hal_dma.c ****   }
 550:Drivers/STM32L0xx_HAL_Driver/Src/stm32l0xx_hal_dma.c **** 
 551:Drivers/STM32L0xx_HAL_Driver/Src/stm32l0xx_hal_dma.c ****   /* Get timeout */
 552:Drivers/STM32L0xx_HAL_Driver/Src/stm32l0xx_hal_dma.c ****   tickstart = HAL_GetTick();
 553:Drivers/STM32L0xx_HAL_Driver/Src/stm32l0xx_hal_dma.c **** 
 554:Drivers/STM32L0xx_HAL_Driver/Src/stm32l0xx_hal_dma.c ****   while(__HAL_DMA_GET_FLAG(hdma, temp) == RESET)
 555:Drivers/STM32L0xx_HAL_Driver/Src/stm32l0xx_hal_dma.c ****   {
 556:Drivers/STM32L0xx_HAL_Driver/Src/stm32l0xx_hal_dma.c ****     if((__HAL_DMA_GET_FLAG(hdma, __HAL_DMA_GET_TE_FLAG_INDEX(hdma)) != RESET))
 557:Drivers/STM32L0xx_HAL_Driver/Src/stm32l0xx_hal_dma.c ****     {      
 558:Drivers/STM32L0xx_HAL_Driver/Src/stm32l0xx_hal_dma.c ****       /* Clear the transfer error flags */
 559:Drivers/STM32L0xx_HAL_Driver/Src/stm32l0xx_hal_dma.c ****       __HAL_DMA_CLEAR_FLAG(hdma, __HAL_DMA_GET_TE_FLAG_INDEX(hdma));
 560:Drivers/STM32L0xx_HAL_Driver/Src/stm32l0xx_hal_dma.c ****       
 561:Drivers/STM32L0xx_HAL_Driver/Src/stm32l0xx_hal_dma.c ****       /* Update error code */
 562:Drivers/STM32L0xx_HAL_Driver/Src/stm32l0xx_hal_dma.c ****       SET_BIT(hdma->ErrorCode, HAL_DMA_ERROR_TE);
 563:Drivers/STM32L0xx_HAL_Driver/Src/stm32l0xx_hal_dma.c ****       
 564:Drivers/STM32L0xx_HAL_Driver/Src/stm32l0xx_hal_dma.c ****       /* Change the DMA state */
 565:Drivers/STM32L0xx_HAL_Driver/Src/stm32l0xx_hal_dma.c ****       hdma->State= HAL_DMA_STATE_ERROR;       
 566:Drivers/STM32L0xx_HAL_Driver/Src/stm32l0xx_hal_dma.c ****       
 567:Drivers/STM32L0xx_HAL_Driver/Src/stm32l0xx_hal_dma.c ****       /* Process Unlocked */
 568:Drivers/STM32L0xx_HAL_Driver/Src/stm32l0xx_hal_dma.c ****       __HAL_UNLOCK(hdma);
 569:Drivers/STM32L0xx_HAL_Driver/Src/stm32l0xx_hal_dma.c ****       
 570:Drivers/STM32L0xx_HAL_Driver/Src/stm32l0xx_hal_dma.c ****       return HAL_ERROR;      
 571:Drivers/STM32L0xx_HAL_Driver/Src/stm32l0xx_hal_dma.c ****     }      
 572:Drivers/STM32L0xx_HAL_Driver/Src/stm32l0xx_hal_dma.c ****     /* Check for the Timeout */
 573:Drivers/STM32L0xx_HAL_Driver/Src/stm32l0xx_hal_dma.c ****     if(Timeout != HAL_MAX_DELAY)
 574:Drivers/STM32L0xx_HAL_Driver/Src/stm32l0xx_hal_dma.c ****     {
 575:Drivers/STM32L0xx_HAL_Driver/Src/stm32l0xx_hal_dma.c ****       if((Timeout == 0U)||((HAL_GetTick() - tickstart ) > Timeout))
 576:Drivers/STM32L0xx_HAL_Driver/Src/stm32l0xx_hal_dma.c ****       {
 577:Drivers/STM32L0xx_HAL_Driver/Src/stm32l0xx_hal_dma.c ****         /* Update error code */
 578:Drivers/STM32L0xx_HAL_Driver/Src/stm32l0xx_hal_dma.c ****         SET_BIT(hdma->ErrorCode, HAL_DMA_ERROR_TIMEOUT);
 579:Drivers/STM32L0xx_HAL_Driver/Src/stm32l0xx_hal_dma.c ****         
 580:Drivers/STM32L0xx_HAL_Driver/Src/stm32l0xx_hal_dma.c ****         /* Change the DMA state */
 581:Drivers/STM32L0xx_HAL_Driver/Src/stm32l0xx_hal_dma.c ****         hdma->State= HAL_DMA_STATE_TIMEOUT;
 582:Drivers/STM32L0xx_HAL_Driver/Src/stm32l0xx_hal_dma.c ****         
 583:Drivers/STM32L0xx_HAL_Driver/Src/stm32l0xx_hal_dma.c ****         /* Process Unlocked */
 584:Drivers/STM32L0xx_HAL_Driver/Src/stm32l0xx_hal_dma.c ****         __HAL_UNLOCK(hdma);
 585:Drivers/STM32L0xx_HAL_Driver/Src/stm32l0xx_hal_dma.c ****       
 586:Drivers/STM32L0xx_HAL_Driver/Src/stm32l0xx_hal_dma.c ****         return HAL_TIMEOUT;
 587:Drivers/STM32L0xx_HAL_Driver/Src/stm32l0xx_hal_dma.c ****       }
 588:Drivers/STM32L0xx_HAL_Driver/Src/stm32l0xx_hal_dma.c ****     }
 589:Drivers/STM32L0xx_HAL_Driver/Src/stm32l0xx_hal_dma.c ****   }
 590:Drivers/STM32L0xx_HAL_Driver/Src/stm32l0xx_hal_dma.c **** 
 591:Drivers/STM32L0xx_HAL_Driver/Src/stm32l0xx_hal_dma.c ****   if(CompleteLevel == HAL_DMA_FULL_TRANSFER)
 592:Drivers/STM32L0xx_HAL_Driver/Src/stm32l0xx_hal_dma.c ****   {
 593:Drivers/STM32L0xx_HAL_Driver/Src/stm32l0xx_hal_dma.c ****     /* Clear the transfer complete flag */
 594:Drivers/STM32L0xx_HAL_Driver/Src/stm32l0xx_hal_dma.c ****     __HAL_DMA_CLEAR_FLAG(hdma, __HAL_DMA_GET_TC_FLAG_INDEX(hdma));
 595:Drivers/STM32L0xx_HAL_Driver/Src/stm32l0xx_hal_dma.c **** 
 596:Drivers/STM32L0xx_HAL_Driver/Src/stm32l0xx_hal_dma.c ****     /* The selected Channelx EN bit is cleared (DMA is disabled and 
 597:Drivers/STM32L0xx_HAL_Driver/Src/stm32l0xx_hal_dma.c ****     all transfers are complete) */
 598:Drivers/STM32L0xx_HAL_Driver/Src/stm32l0xx_hal_dma.c ****     hdma->State = HAL_DMA_STATE_READY;
 599:Drivers/STM32L0xx_HAL_Driver/Src/stm32l0xx_hal_dma.c **** 
 600:Drivers/STM32L0xx_HAL_Driver/Src/stm32l0xx_hal_dma.c ****     /* Process unlocked */
 601:Drivers/STM32L0xx_HAL_Driver/Src/stm32l0xx_hal_dma.c ****     __HAL_UNLOCK(hdma);  
 602:Drivers/STM32L0xx_HAL_Driver/Src/stm32l0xx_hal_dma.c ****   }
 603:Drivers/STM32L0xx_HAL_Driver/Src/stm32l0xx_hal_dma.c ****   else
 604:Drivers/STM32L0xx_HAL_Driver/Src/stm32l0xx_hal_dma.c ****   { 
ARM GAS  /var/folders/2m/zqg86yyd4hbf56w83tkxjpvr0000gn/T//cclJg58U.s 			page 12


 605:Drivers/STM32L0xx_HAL_Driver/Src/stm32l0xx_hal_dma.c ****     /* Clear the half transfer complete flag */
 606:Drivers/STM32L0xx_HAL_Driver/Src/stm32l0xx_hal_dma.c ****     __HAL_DMA_CLEAR_FLAG(hdma, __HAL_DMA_GET_HT_FLAG_INDEX(hdma));
 607:Drivers/STM32L0xx_HAL_Driver/Src/stm32l0xx_hal_dma.c **** 
 608:Drivers/STM32L0xx_HAL_Driver/Src/stm32l0xx_hal_dma.c ****     /* The selected Channelx EN bit is cleared (DMA is disabled and 
 609:Drivers/STM32L0xx_HAL_Driver/Src/stm32l0xx_hal_dma.c ****     all transfers are complete) */
 610:Drivers/STM32L0xx_HAL_Driver/Src/stm32l0xx_hal_dma.c ****     hdma->State = HAL_DMA_STATE_READY_HALF;
 611:Drivers/STM32L0xx_HAL_Driver/Src/stm32l0xx_hal_dma.c ****     
 612:Drivers/STM32L0xx_HAL_Driver/Src/stm32l0xx_hal_dma.c ****     /* Process unlocked */
 613:Drivers/STM32L0xx_HAL_Driver/Src/stm32l0xx_hal_dma.c ****     __HAL_UNLOCK(hdma); 
 614:Drivers/STM32L0xx_HAL_Driver/Src/stm32l0xx_hal_dma.c ****   }
 615:Drivers/STM32L0xx_HAL_Driver/Src/stm32l0xx_hal_dma.c ****   
 616:Drivers/STM32L0xx_HAL_Driver/Src/stm32l0xx_hal_dma.c ****   return HAL_OK;
 617:Drivers/STM32L0xx_HAL_Driver/Src/stm32l0xx_hal_dma.c **** }
 618:Drivers/STM32L0xx_HAL_Driver/Src/stm32l0xx_hal_dma.c **** /**
 619:Drivers/STM32L0xx_HAL_Driver/Src/stm32l0xx_hal_dma.c ****   * @brief  Handles DMA interrupt request.
 620:Drivers/STM32L0xx_HAL_Driver/Src/stm32l0xx_hal_dma.c ****   * @param  hdma: pointer to a DMA_HandleTypeDef structure that contains
 621:Drivers/STM32L0xx_HAL_Driver/Src/stm32l0xx_hal_dma.c ****   *               the configuration information for the specified DMA Channel.  
 622:Drivers/STM32L0xx_HAL_Driver/Src/stm32l0xx_hal_dma.c ****   * @retval None
 623:Drivers/STM32L0xx_HAL_Driver/Src/stm32l0xx_hal_dma.c ****   */
 624:Drivers/STM32L0xx_HAL_Driver/Src/stm32l0xx_hal_dma.c **** void HAL_DMA_IRQHandler(DMA_HandleTypeDef *hdma)
 625:Drivers/STM32L0xx_HAL_Driver/Src/stm32l0xx_hal_dma.c **** {        
 626:Drivers/STM32L0xx_HAL_Driver/Src/stm32l0xx_hal_dma.c ****   /* Transfer Error Interrupt management ***************************************/
 627:Drivers/STM32L0xx_HAL_Driver/Src/stm32l0xx_hal_dma.c ****   if(__HAL_DMA_GET_FLAG(hdma, __HAL_DMA_GET_TE_FLAG_INDEX(hdma)) != RESET)
 628:Drivers/STM32L0xx_HAL_Driver/Src/stm32l0xx_hal_dma.c ****   {
 629:Drivers/STM32L0xx_HAL_Driver/Src/stm32l0xx_hal_dma.c ****     if(__HAL_DMA_GET_IT_SOURCE(hdma, DMA_IT_TE) != RESET)
 630:Drivers/STM32L0xx_HAL_Driver/Src/stm32l0xx_hal_dma.c ****     {
 631:Drivers/STM32L0xx_HAL_Driver/Src/stm32l0xx_hal_dma.c ****       /* Disable the transfer error interrupt */
 632:Drivers/STM32L0xx_HAL_Driver/Src/stm32l0xx_hal_dma.c ****       __HAL_DMA_DISABLE_IT(hdma, DMA_IT_TE);
 633:Drivers/STM32L0xx_HAL_Driver/Src/stm32l0xx_hal_dma.c ****     
 634:Drivers/STM32L0xx_HAL_Driver/Src/stm32l0xx_hal_dma.c ****       /* Clear the transfer error flag */
 635:Drivers/STM32L0xx_HAL_Driver/Src/stm32l0xx_hal_dma.c ****       __HAL_DMA_CLEAR_FLAG(hdma, __HAL_DMA_GET_TE_FLAG_INDEX(hdma));
 636:Drivers/STM32L0xx_HAL_Driver/Src/stm32l0xx_hal_dma.c ****     
 637:Drivers/STM32L0xx_HAL_Driver/Src/stm32l0xx_hal_dma.c ****       /* Update error code */
 638:Drivers/STM32L0xx_HAL_Driver/Src/stm32l0xx_hal_dma.c ****       hdma->ErrorCode |= HAL_DMA_ERROR_TE;
 639:Drivers/STM32L0xx_HAL_Driver/Src/stm32l0xx_hal_dma.c **** 
 640:Drivers/STM32L0xx_HAL_Driver/Src/stm32l0xx_hal_dma.c ****       /* Change the DMA state */
 641:Drivers/STM32L0xx_HAL_Driver/Src/stm32l0xx_hal_dma.c ****       hdma->State = HAL_DMA_STATE_ERROR;    
 642:Drivers/STM32L0xx_HAL_Driver/Src/stm32l0xx_hal_dma.c ****     
 643:Drivers/STM32L0xx_HAL_Driver/Src/stm32l0xx_hal_dma.c ****       /* Process Unlocked */
 644:Drivers/STM32L0xx_HAL_Driver/Src/stm32l0xx_hal_dma.c ****       __HAL_UNLOCK(hdma); 
 645:Drivers/STM32L0xx_HAL_Driver/Src/stm32l0xx_hal_dma.c ****     
 646:Drivers/STM32L0xx_HAL_Driver/Src/stm32l0xx_hal_dma.c ****       if (hdma->XferErrorCallback != NULL)
 647:Drivers/STM32L0xx_HAL_Driver/Src/stm32l0xx_hal_dma.c ****       {
 648:Drivers/STM32L0xx_HAL_Driver/Src/stm32l0xx_hal_dma.c ****         /* Transfer error callback */
 649:Drivers/STM32L0xx_HAL_Driver/Src/stm32l0xx_hal_dma.c ****         hdma->XferErrorCallback(hdma);
 650:Drivers/STM32L0xx_HAL_Driver/Src/stm32l0xx_hal_dma.c ****       }
 651:Drivers/STM32L0xx_HAL_Driver/Src/stm32l0xx_hal_dma.c ****     }
 652:Drivers/STM32L0xx_HAL_Driver/Src/stm32l0xx_hal_dma.c ****   }
 653:Drivers/STM32L0xx_HAL_Driver/Src/stm32l0xx_hal_dma.c **** 
 654:Drivers/STM32L0xx_HAL_Driver/Src/stm32l0xx_hal_dma.c ****   /* Half Transfer Complete Interrupt management ******************************/
 655:Drivers/STM32L0xx_HAL_Driver/Src/stm32l0xx_hal_dma.c ****   if(__HAL_DMA_GET_FLAG(hdma, __HAL_DMA_GET_HT_FLAG_INDEX(hdma)) != RESET)
 656:Drivers/STM32L0xx_HAL_Driver/Src/stm32l0xx_hal_dma.c ****   {
 657:Drivers/STM32L0xx_HAL_Driver/Src/stm32l0xx_hal_dma.c ****     if(__HAL_DMA_GET_IT_SOURCE(hdma, DMA_IT_HT) != RESET)
 658:Drivers/STM32L0xx_HAL_Driver/Src/stm32l0xx_hal_dma.c ****     { 
 659:Drivers/STM32L0xx_HAL_Driver/Src/stm32l0xx_hal_dma.c ****       /* Disable the half transfer interrupt if the DMA mode is not CIRCULAR */
 660:Drivers/STM32L0xx_HAL_Driver/Src/stm32l0xx_hal_dma.c ****       if((hdma->Instance->CCR & DMA_CCR_CIRC) == 0U)
 661:Drivers/STM32L0xx_HAL_Driver/Src/stm32l0xx_hal_dma.c ****       {
ARM GAS  /var/folders/2m/zqg86yyd4hbf56w83tkxjpvr0000gn/T//cclJg58U.s 			page 13


 662:Drivers/STM32L0xx_HAL_Driver/Src/stm32l0xx_hal_dma.c ****         /* Disable the half transfer interrupt */
 663:Drivers/STM32L0xx_HAL_Driver/Src/stm32l0xx_hal_dma.c ****         __HAL_DMA_DISABLE_IT(hdma, DMA_IT_HT);
 664:Drivers/STM32L0xx_HAL_Driver/Src/stm32l0xx_hal_dma.c ****       }
 665:Drivers/STM32L0xx_HAL_Driver/Src/stm32l0xx_hal_dma.c ****       /* Clear the half transfer complete flag */
 666:Drivers/STM32L0xx_HAL_Driver/Src/stm32l0xx_hal_dma.c ****       __HAL_DMA_CLEAR_FLAG(hdma, __HAL_DMA_GET_HT_FLAG_INDEX(hdma));
 667:Drivers/STM32L0xx_HAL_Driver/Src/stm32l0xx_hal_dma.c **** 
 668:Drivers/STM32L0xx_HAL_Driver/Src/stm32l0xx_hal_dma.c ****       /* Change DMA peripheral state */
 669:Drivers/STM32L0xx_HAL_Driver/Src/stm32l0xx_hal_dma.c ****       hdma->State = HAL_DMA_STATE_READY_HALF;
 670:Drivers/STM32L0xx_HAL_Driver/Src/stm32l0xx_hal_dma.c **** 
 671:Drivers/STM32L0xx_HAL_Driver/Src/stm32l0xx_hal_dma.c ****       if(hdma->XferHalfCpltCallback != NULL)
 672:Drivers/STM32L0xx_HAL_Driver/Src/stm32l0xx_hal_dma.c ****       {
 673:Drivers/STM32L0xx_HAL_Driver/Src/stm32l0xx_hal_dma.c ****         /* Half transfer callback */
 674:Drivers/STM32L0xx_HAL_Driver/Src/stm32l0xx_hal_dma.c ****         hdma->XferHalfCpltCallback(hdma);
 675:Drivers/STM32L0xx_HAL_Driver/Src/stm32l0xx_hal_dma.c ****       }
 676:Drivers/STM32L0xx_HAL_Driver/Src/stm32l0xx_hal_dma.c ****     }
 677:Drivers/STM32L0xx_HAL_Driver/Src/stm32l0xx_hal_dma.c ****   }
 678:Drivers/STM32L0xx_HAL_Driver/Src/stm32l0xx_hal_dma.c ****   
 679:Drivers/STM32L0xx_HAL_Driver/Src/stm32l0xx_hal_dma.c ****   /* Transfer Complete Interrupt management ***********************************/
 680:Drivers/STM32L0xx_HAL_Driver/Src/stm32l0xx_hal_dma.c ****   if(__HAL_DMA_GET_FLAG(hdma, __HAL_DMA_GET_TC_FLAG_INDEX(hdma)) != RESET)
 681:Drivers/STM32L0xx_HAL_Driver/Src/stm32l0xx_hal_dma.c ****   {
 682:Drivers/STM32L0xx_HAL_Driver/Src/stm32l0xx_hal_dma.c ****     if(__HAL_DMA_GET_IT_SOURCE(hdma, DMA_IT_TC) != RESET)
 683:Drivers/STM32L0xx_HAL_Driver/Src/stm32l0xx_hal_dma.c ****     {
 684:Drivers/STM32L0xx_HAL_Driver/Src/stm32l0xx_hal_dma.c ****       if((hdma->Instance->CCR & DMA_CCR_CIRC) == 0U)
 685:Drivers/STM32L0xx_HAL_Driver/Src/stm32l0xx_hal_dma.c ****       {
 686:Drivers/STM32L0xx_HAL_Driver/Src/stm32l0xx_hal_dma.c ****         /* Disable the transfer complete interrupt */
 687:Drivers/STM32L0xx_HAL_Driver/Src/stm32l0xx_hal_dma.c ****         __HAL_DMA_DISABLE_IT(hdma, DMA_IT_TC);
 688:Drivers/STM32L0xx_HAL_Driver/Src/stm32l0xx_hal_dma.c ****       }
 689:Drivers/STM32L0xx_HAL_Driver/Src/stm32l0xx_hal_dma.c ****       /* Clear the transfer complete flag */
 690:Drivers/STM32L0xx_HAL_Driver/Src/stm32l0xx_hal_dma.c ****       __HAL_DMA_CLEAR_FLAG(hdma, __HAL_DMA_GET_TC_FLAG_INDEX(hdma));
 691:Drivers/STM32L0xx_HAL_Driver/Src/stm32l0xx_hal_dma.c ****     
 692:Drivers/STM32L0xx_HAL_Driver/Src/stm32l0xx_hal_dma.c ****       /* Update error code */
 693:Drivers/STM32L0xx_HAL_Driver/Src/stm32l0xx_hal_dma.c ****       hdma->ErrorCode |= HAL_DMA_ERROR_NONE;
 694:Drivers/STM32L0xx_HAL_Driver/Src/stm32l0xx_hal_dma.c **** 
 695:Drivers/STM32L0xx_HAL_Driver/Src/stm32l0xx_hal_dma.c ****       /* Change the DMA state */
 696:Drivers/STM32L0xx_HAL_Driver/Src/stm32l0xx_hal_dma.c ****       hdma->State = HAL_DMA_STATE_READY;    
 697:Drivers/STM32L0xx_HAL_Driver/Src/stm32l0xx_hal_dma.c ****     
 698:Drivers/STM32L0xx_HAL_Driver/Src/stm32l0xx_hal_dma.c ****       /* Process Unlocked */
 699:Drivers/STM32L0xx_HAL_Driver/Src/stm32l0xx_hal_dma.c ****       __HAL_UNLOCK(hdma);
 700:Drivers/STM32L0xx_HAL_Driver/Src/stm32l0xx_hal_dma.c ****     
 701:Drivers/STM32L0xx_HAL_Driver/Src/stm32l0xx_hal_dma.c ****       if(hdma->XferCpltCallback != NULL)
 702:Drivers/STM32L0xx_HAL_Driver/Src/stm32l0xx_hal_dma.c ****       {       
 703:Drivers/STM32L0xx_HAL_Driver/Src/stm32l0xx_hal_dma.c ****         /* Transfer complete callback */
 704:Drivers/STM32L0xx_HAL_Driver/Src/stm32l0xx_hal_dma.c ****         hdma->XferCpltCallback(hdma);
 705:Drivers/STM32L0xx_HAL_Driver/Src/stm32l0xx_hal_dma.c ****       }
 706:Drivers/STM32L0xx_HAL_Driver/Src/stm32l0xx_hal_dma.c ****     }
 707:Drivers/STM32L0xx_HAL_Driver/Src/stm32l0xx_hal_dma.c ****   }
 708:Drivers/STM32L0xx_HAL_Driver/Src/stm32l0xx_hal_dma.c **** }  
 709:Drivers/STM32L0xx_HAL_Driver/Src/stm32l0xx_hal_dma.c **** 
 710:Drivers/STM32L0xx_HAL_Driver/Src/stm32l0xx_hal_dma.c **** /**
 711:Drivers/STM32L0xx_HAL_Driver/Src/stm32l0xx_hal_dma.c ****   * @}
 712:Drivers/STM32L0xx_HAL_Driver/Src/stm32l0xx_hal_dma.c ****   */
 713:Drivers/STM32L0xx_HAL_Driver/Src/stm32l0xx_hal_dma.c **** 
 714:Drivers/STM32L0xx_HAL_Driver/Src/stm32l0xx_hal_dma.c **** /** @addtogroup DMA_Exported_Functions_Group3 
 715:Drivers/STM32L0xx_HAL_Driver/Src/stm32l0xx_hal_dma.c ****  *  @brief    Peripheral State functions 
 716:Drivers/STM32L0xx_HAL_Driver/Src/stm32l0xx_hal_dma.c ****  *
 717:Drivers/STM32L0xx_HAL_Driver/Src/stm32l0xx_hal_dma.c **** @verbatim   
 718:Drivers/STM32L0xx_HAL_Driver/Src/stm32l0xx_hal_dma.c ****  ===============================================================================
ARM GAS  /var/folders/2m/zqg86yyd4hbf56w83tkxjpvr0000gn/T//cclJg58U.s 			page 14


 719:Drivers/STM32L0xx_HAL_Driver/Src/stm32l0xx_hal_dma.c ****                         ##### Peripheral State functions #####
 720:Drivers/STM32L0xx_HAL_Driver/Src/stm32l0xx_hal_dma.c ****  ===============================================================================  
 721:Drivers/STM32L0xx_HAL_Driver/Src/stm32l0xx_hal_dma.c ****     [..]
 722:Drivers/STM32L0xx_HAL_Driver/Src/stm32l0xx_hal_dma.c ****     This subsection provides functions allowing to
 723:Drivers/STM32L0xx_HAL_Driver/Src/stm32l0xx_hal_dma.c ****       (+) Check the DMA state
 724:Drivers/STM32L0xx_HAL_Driver/Src/stm32l0xx_hal_dma.c ****       (+) Get error code
 725:Drivers/STM32L0xx_HAL_Driver/Src/stm32l0xx_hal_dma.c **** 
 726:Drivers/STM32L0xx_HAL_Driver/Src/stm32l0xx_hal_dma.c **** @endverbatim
 727:Drivers/STM32L0xx_HAL_Driver/Src/stm32l0xx_hal_dma.c ****   * @{
 728:Drivers/STM32L0xx_HAL_Driver/Src/stm32l0xx_hal_dma.c ****   */  
 729:Drivers/STM32L0xx_HAL_Driver/Src/stm32l0xx_hal_dma.c **** 
 730:Drivers/STM32L0xx_HAL_Driver/Src/stm32l0xx_hal_dma.c **** /**
 731:Drivers/STM32L0xx_HAL_Driver/Src/stm32l0xx_hal_dma.c ****   * @brief  Returns the DMA state.
 732:Drivers/STM32L0xx_HAL_Driver/Src/stm32l0xx_hal_dma.c ****   * @param  hdma: pointer to a DMA_HandleTypeDef structure that contains
 733:Drivers/STM32L0xx_HAL_Driver/Src/stm32l0xx_hal_dma.c ****   *               the configuration information for the specified DMA Channel.  
 734:Drivers/STM32L0xx_HAL_Driver/Src/stm32l0xx_hal_dma.c ****   * @retval HAL state
 735:Drivers/STM32L0xx_HAL_Driver/Src/stm32l0xx_hal_dma.c ****   */
 736:Drivers/STM32L0xx_HAL_Driver/Src/stm32l0xx_hal_dma.c **** HAL_DMA_StateTypeDef HAL_DMA_GetState(DMA_HandleTypeDef *hdma)
 737:Drivers/STM32L0xx_HAL_Driver/Src/stm32l0xx_hal_dma.c **** {
 738:Drivers/STM32L0xx_HAL_Driver/Src/stm32l0xx_hal_dma.c ****   return hdma->State;
 739:Drivers/STM32L0xx_HAL_Driver/Src/stm32l0xx_hal_dma.c **** }
 740:Drivers/STM32L0xx_HAL_Driver/Src/stm32l0xx_hal_dma.c **** 
 741:Drivers/STM32L0xx_HAL_Driver/Src/stm32l0xx_hal_dma.c **** /**
 742:Drivers/STM32L0xx_HAL_Driver/Src/stm32l0xx_hal_dma.c ****   * @brief  Return the DMA error code
 743:Drivers/STM32L0xx_HAL_Driver/Src/stm32l0xx_hal_dma.c ****   * @param  hdma : pointer to a DMA_HandleTypeDef structure that contains
 744:Drivers/STM32L0xx_HAL_Driver/Src/stm32l0xx_hal_dma.c ****   *              the configuration information for the specified DMA Channel.
 745:Drivers/STM32L0xx_HAL_Driver/Src/stm32l0xx_hal_dma.c ****   * @retval DMA Error Code
 746:Drivers/STM32L0xx_HAL_Driver/Src/stm32l0xx_hal_dma.c ****   */
 747:Drivers/STM32L0xx_HAL_Driver/Src/stm32l0xx_hal_dma.c **** uint32_t HAL_DMA_GetError(DMA_HandleTypeDef *hdma)
 748:Drivers/STM32L0xx_HAL_Driver/Src/stm32l0xx_hal_dma.c **** {
 749:Drivers/STM32L0xx_HAL_Driver/Src/stm32l0xx_hal_dma.c ****   return hdma->ErrorCode;
 750:Drivers/STM32L0xx_HAL_Driver/Src/stm32l0xx_hal_dma.c **** }
 751:Drivers/STM32L0xx_HAL_Driver/Src/stm32l0xx_hal_dma.c **** 
 752:Drivers/STM32L0xx_HAL_Driver/Src/stm32l0xx_hal_dma.c **** /**
 753:Drivers/STM32L0xx_HAL_Driver/Src/stm32l0xx_hal_dma.c ****   * @}
 754:Drivers/STM32L0xx_HAL_Driver/Src/stm32l0xx_hal_dma.c ****   */
 755:Drivers/STM32L0xx_HAL_Driver/Src/stm32l0xx_hal_dma.c **** 
 756:Drivers/STM32L0xx_HAL_Driver/Src/stm32l0xx_hal_dma.c **** /**
 757:Drivers/STM32L0xx_HAL_Driver/Src/stm32l0xx_hal_dma.c ****   * @}
 758:Drivers/STM32L0xx_HAL_Driver/Src/stm32l0xx_hal_dma.c ****   */
 759:Drivers/STM32L0xx_HAL_Driver/Src/stm32l0xx_hal_dma.c **** /* Private macro -------------------------------------------------------------*/
 760:Drivers/STM32L0xx_HAL_Driver/Src/stm32l0xx_hal_dma.c **** /* Private variables ---------------------------------------------------------*/
 761:Drivers/STM32L0xx_HAL_Driver/Src/stm32l0xx_hal_dma.c **** 
 762:Drivers/STM32L0xx_HAL_Driver/Src/stm32l0xx_hal_dma.c **** 
 763:Drivers/STM32L0xx_HAL_Driver/Src/stm32l0xx_hal_dma.c **** /* Private function prototypes -----------------------------------------------*/  
 764:Drivers/STM32L0xx_HAL_Driver/Src/stm32l0xx_hal_dma.c **** /** @addtogroup DMA_Private
 765:Drivers/STM32L0xx_HAL_Driver/Src/stm32l0xx_hal_dma.c ****   * @{
 766:Drivers/STM32L0xx_HAL_Driver/Src/stm32l0xx_hal_dma.c ****   */
 767:Drivers/STM32L0xx_HAL_Driver/Src/stm32l0xx_hal_dma.c ****   
 768:Drivers/STM32L0xx_HAL_Driver/Src/stm32l0xx_hal_dma.c ****   /*
 769:Drivers/STM32L0xx_HAL_Driver/Src/stm32l0xx_hal_dma.c ****   * @brief  Sets the DMA Transfer parameter.
 770:Drivers/STM32L0xx_HAL_Driver/Src/stm32l0xx_hal_dma.c ****   * @param  hdma:       pointer to a DMA_HandleTypeDef structure that contains
 771:Drivers/STM32L0xx_HAL_Driver/Src/stm32l0xx_hal_dma.c ****   *                     the configuration information for the specified DMA Channel.  
 772:Drivers/STM32L0xx_HAL_Driver/Src/stm32l0xx_hal_dma.c ****   * @param  SrcAddress: The source memory Buffer address
 773:Drivers/STM32L0xx_HAL_Driver/Src/stm32l0xx_hal_dma.c ****   * @param  DstAddress: The destination memory Buffer address
 774:Drivers/STM32L0xx_HAL_Driver/Src/stm32l0xx_hal_dma.c ****   * @param  DataLength: The length of data to be transferred from source to destination
 775:Drivers/STM32L0xx_HAL_Driver/Src/stm32l0xx_hal_dma.c ****   * @retval HAL status
ARM GAS  /var/folders/2m/zqg86yyd4hbf56w83tkxjpvr0000gn/T//cclJg58U.s 			page 15


 776:Drivers/STM32L0xx_HAL_Driver/Src/stm32l0xx_hal_dma.c ****   */
 777:Drivers/STM32L0xx_HAL_Driver/Src/stm32l0xx_hal_dma.c **** static void DMA_SetConfig(DMA_HandleTypeDef *hdma, uint32_t SrcAddress, uint32_t DstAddress, uint32
 778:Drivers/STM32L0xx_HAL_Driver/Src/stm32l0xx_hal_dma.c **** {  
  25              		.loc 1 778 0
  26              		.cfi_startproc
  27              		@ args = 0, pretend = 0, frame = 0
  28              		@ frame_needed = 0, uses_anonymous_args = 0
  29              	.LVL0:
  30 0000 10B5     		push	{r4, lr}
  31              	.LCFI0:
  32              		.cfi_def_cfa_offset 8
  33              		.cfi_offset 4, -8
  34              		.cfi_offset 14, -4
 779:Drivers/STM32L0xx_HAL_Driver/Src/stm32l0xx_hal_dma.c ****   /* Configure DMA Channel data length */
 780:Drivers/STM32L0xx_HAL_Driver/Src/stm32l0xx_hal_dma.c ****   hdma->Instance->CNDTR = DataLength;
  35              		.loc 1 780 0
  36 0002 0468     		ldr	r4, [r0]
  37 0004 6360     		str	r3, [r4, #4]
 781:Drivers/STM32L0xx_HAL_Driver/Src/stm32l0xx_hal_dma.c ****   
 782:Drivers/STM32L0xx_HAL_Driver/Src/stm32l0xx_hal_dma.c ****   /* Peripheral to Memory */
 783:Drivers/STM32L0xx_HAL_Driver/Src/stm32l0xx_hal_dma.c ****   if((hdma->Init.Direction) == DMA_MEMORY_TO_PERIPH)
  38              		.loc 1 783 0
  39 0006 8368     		ldr	r3, [r0, #8]
  40              	.LVL1:
  41 0008 102B     		cmp	r3, #16
  42 000a 04D0     		beq	.L4
 784:Drivers/STM32L0xx_HAL_Driver/Src/stm32l0xx_hal_dma.c ****   {   
 785:Drivers/STM32L0xx_HAL_Driver/Src/stm32l0xx_hal_dma.c ****     /* Configure DMA Channel destination address */
 786:Drivers/STM32L0xx_HAL_Driver/Src/stm32l0xx_hal_dma.c ****     hdma->Instance->CPAR = DstAddress;
 787:Drivers/STM32L0xx_HAL_Driver/Src/stm32l0xx_hal_dma.c ****     
 788:Drivers/STM32L0xx_HAL_Driver/Src/stm32l0xx_hal_dma.c ****     /* Configure DMA Channel source address */
 789:Drivers/STM32L0xx_HAL_Driver/Src/stm32l0xx_hal_dma.c ****     hdma->Instance->CMAR = SrcAddress;
 790:Drivers/STM32L0xx_HAL_Driver/Src/stm32l0xx_hal_dma.c ****   }
 791:Drivers/STM32L0xx_HAL_Driver/Src/stm32l0xx_hal_dma.c ****   /* Memory to Peripheral */
 792:Drivers/STM32L0xx_HAL_Driver/Src/stm32l0xx_hal_dma.c ****   else
 793:Drivers/STM32L0xx_HAL_Driver/Src/stm32l0xx_hal_dma.c ****   {
 794:Drivers/STM32L0xx_HAL_Driver/Src/stm32l0xx_hal_dma.c ****     /* Configure DMA Channel source address */
 795:Drivers/STM32L0xx_HAL_Driver/Src/stm32l0xx_hal_dma.c ****     hdma->Instance->CPAR = SrcAddress;
  43              		.loc 1 795 0
  44 000c 0368     		ldr	r3, [r0]
  45 000e 9960     		str	r1, [r3, #8]
  46              	.LVL2:
 796:Drivers/STM32L0xx_HAL_Driver/Src/stm32l0xx_hal_dma.c ****     
 797:Drivers/STM32L0xx_HAL_Driver/Src/stm32l0xx_hal_dma.c ****     /* Configure DMA Channel destination address */
 798:Drivers/STM32L0xx_HAL_Driver/Src/stm32l0xx_hal_dma.c ****     hdma->Instance->CMAR = DstAddress;
  47              		.loc 1 798 0
  48 0010 0368     		ldr	r3, [r0]
  49 0012 DA60     		str	r2, [r3, #12]
  50              	.L1:
 799:Drivers/STM32L0xx_HAL_Driver/Src/stm32l0xx_hal_dma.c ****   }
 800:Drivers/STM32L0xx_HAL_Driver/Src/stm32l0xx_hal_dma.c **** }
  51              		.loc 1 800 0
  52              		@ sp needed
  53 0014 10BD     		pop	{r4, pc}
  54              	.LVL3:
  55              	.L4:
 786:Drivers/STM32L0xx_HAL_Driver/Src/stm32l0xx_hal_dma.c ****     
ARM GAS  /var/folders/2m/zqg86yyd4hbf56w83tkxjpvr0000gn/T//cclJg58U.s 			page 16


  56              		.loc 1 786 0
  57 0016 0368     		ldr	r3, [r0]
  58 0018 9A60     		str	r2, [r3, #8]
  59              	.LVL4:
 789:Drivers/STM32L0xx_HAL_Driver/Src/stm32l0xx_hal_dma.c ****   }
  60              		.loc 1 789 0
  61 001a 0368     		ldr	r3, [r0]
  62 001c D960     		str	r1, [r3, #12]
  63 001e F9E7     		b	.L1
  64              		.cfi_endproc
  65              	.LFE49:
  67              		.section	.text.HAL_DMA_Init,"ax",%progbits
  68              		.align	1
  69              		.global	HAL_DMA_Init
  70              		.syntax unified
  71              		.code	16
  72              		.thumb_func
  73              		.fpu softvfp
  75              	HAL_DMA_Init:
  76              	.LFB39:
 142:Drivers/STM32L0xx_HAL_Driver/Src/stm32l0xx_hal_dma.c ****   uint32_t tmp = 0U;
  77              		.loc 1 142 0
  78              		.cfi_startproc
  79              		@ args = 0, pretend = 0, frame = 0
  80              		@ frame_needed = 0, uses_anonymous_args = 0
  81              	.LVL5:
  82 0000 10B5     		push	{r4, lr}
  83              	.LCFI1:
  84              		.cfi_def_cfa_offset 8
  85              		.cfi_offset 4, -8
  86              		.cfi_offset 14, -4
  87              	.LVL6:
 146:Drivers/STM32L0xx_HAL_Driver/Src/stm32l0xx_hal_dma.c ****   {
  88              		.loc 1 146 0
  89 0002 0028     		cmp	r0, #0
  90 0004 00D1     		bne	.LCB57
  91 0006 82E0     		b	.L15	@long jump
  92              	.LCB57:
 162:Drivers/STM32L0xx_HAL_Driver/Src/stm32l0xx_hal_dma.c ****   {
  93              		.loc 1 162 0
  94 0008 2523     		movs	r3, #37
  95 000a C35C     		ldrb	r3, [r0, r3]
  96 000c 002B     		cmp	r3, #0
  97 000e 02D1     		bne	.L7
 165:Drivers/STM32L0xx_HAL_Driver/Src/stm32l0xx_hal_dma.c ****   }
  98              		.loc 1 165 0
  99 0010 2433     		adds	r3, r3, #36
 100 0012 0022     		movs	r2, #0
 101 0014 C254     		strb	r2, [r0, r3]
 102              	.L7:
 169:Drivers/STM32L0xx_HAL_Driver/Src/stm32l0xx_hal_dma.c **** 
 103              		.loc 1 169 0
 104 0016 2523     		movs	r3, #37
 105 0018 0222     		movs	r2, #2
 106 001a C254     		strb	r2, [r0, r3]
 172:Drivers/STM32L0xx_HAL_Driver/Src/stm32l0xx_hal_dma.c ****   
 107              		.loc 1 172 0
ARM GAS  /var/folders/2m/zqg86yyd4hbf56w83tkxjpvr0000gn/T//cclJg58U.s 			page 17


 108 001c 0168     		ldr	r1, [r0]
 109 001e 0B68     		ldr	r3, [r1]
 110              	.LVL7:
 175:Drivers/STM32L0xx_HAL_Driver/Src/stm32l0xx_hal_dma.c ****                       DMA_CCR_MINC  | DMA_CCR_PINC   | DMA_CCR_CIRC   | \
 111              		.loc 1 175 0
 112 0020 3C4A     		ldr	r2, .L22
 113 0022 1A40     		ands	r2, r3
 114              	.LVL8:
 180:Drivers/STM32L0xx_HAL_Driver/Src/stm32l0xx_hal_dma.c ****           hdma->Init.PeriphInc           | hdma->Init.MemInc           |
 115              		.loc 1 180 0
 116 0024 8368     		ldr	r3, [r0, #8]
 117 0026 C468     		ldr	r4, [r0, #12]
 118 0028 2343     		orrs	r3, r4
 181:Drivers/STM32L0xx_HAL_Driver/Src/stm32l0xx_hal_dma.c ****           hdma->Init.PeriphDataAlignment | hdma->Init.MemDataAlignment |
 119              		.loc 1 181 0
 120 002a 0469     		ldr	r4, [r0, #16]
 121 002c 2343     		orrs	r3, r4
 122 002e 4469     		ldr	r4, [r0, #20]
 123 0030 2343     		orrs	r3, r4
 182:Drivers/STM32L0xx_HAL_Driver/Src/stm32l0xx_hal_dma.c ****           hdma->Init.Mode                | hdma->Init.Priority;
 124              		.loc 1 182 0
 125 0032 8469     		ldr	r4, [r0, #24]
 126 0034 2343     		orrs	r3, r4
 127 0036 C469     		ldr	r4, [r0, #28]
 128 0038 2343     		orrs	r3, r4
 183:Drivers/STM32L0xx_HAL_Driver/Src/stm32l0xx_hal_dma.c **** 
 129              		.loc 1 183 0
 130 003a 046A     		ldr	r4, [r0, #32]
 131 003c 2343     		orrs	r3, r4
 180:Drivers/STM32L0xx_HAL_Driver/Src/stm32l0xx_hal_dma.c ****           hdma->Init.PeriphInc           | hdma->Init.MemInc           |
 132              		.loc 1 180 0
 133 003e 1343     		orrs	r3, r2
 134              	.LVL9:
 186:Drivers/STM32L0xx_HAL_Driver/Src/stm32l0xx_hal_dma.c ****   
 135              		.loc 1 186 0
 136 0040 0B60     		str	r3, [r1]
 189:Drivers/STM32L0xx_HAL_Driver/Src/stm32l0xx_hal_dma.c ****   {
 137              		.loc 1 189 0
 138 0042 0368     		ldr	r3, [r0]
 139              	.LVL10:
 140 0044 344A     		ldr	r2, .L22+4
 141 0046 9342     		cmp	r3, r2
 142 0048 1CD0     		beq	.L16
 197:Drivers/STM32L0xx_HAL_Driver/Src/stm32l0xx_hal_dma.c ****   {
 143              		.loc 1 197 0
 144 004a 344A     		ldr	r2, .L22+8
 145 004c 9342     		cmp	r3, r2
 146 004e 27D0     		beq	.L17
 205:Drivers/STM32L0xx_HAL_Driver/Src/stm32l0xx_hal_dma.c ****   {
 147              		.loc 1 205 0
 148 0050 334A     		ldr	r2, .L22+12
 149 0052 9342     		cmp	r3, r2
 150 0054 2FD0     		beq	.L18
 213:Drivers/STM32L0xx_HAL_Driver/Src/stm32l0xx_hal_dma.c ****   {
 151              		.loc 1 213 0
 152 0056 334A     		ldr	r2, .L22+16
 153 0058 9342     		cmp	r3, r2
ARM GAS  /var/folders/2m/zqg86yyd4hbf56w83tkxjpvr0000gn/T//cclJg58U.s 			page 18


 154 005a 37D0     		beq	.L19
 221:Drivers/STM32L0xx_HAL_Driver/Src/stm32l0xx_hal_dma.c ****   {
 155              		.loc 1 221 0
 156 005c 324A     		ldr	r2, .L22+20
 157 005e 9342     		cmp	r3, r2
 158 0060 3FD0     		beq	.L20
 230:Drivers/STM32L0xx_HAL_Driver/Src/stm32l0xx_hal_dma.c ****   {
 159              		.loc 1 230 0
 160 0062 324A     		ldr	r2, .L22+24
 161 0064 9342     		cmp	r3, r2
 162 0066 47D0     		beq	.L21
 238:Drivers/STM32L0xx_HAL_Driver/Src/stm32l0xx_hal_dma.c ****   {
 163              		.loc 1 238 0
 164 0068 314A     		ldr	r2, .L22+28
 165 006a 9342     		cmp	r3, r2
 166 006c 13D1     		bne	.L9
 241:Drivers/STM32L0xx_HAL_Driver/Src/stm32l0xx_hal_dma.c ****     
 167              		.loc 1 241 0
 168 006e 314B     		ldr	r3, .L22+32
 169 0070 1A68     		ldr	r2, [r3]
 170 0072 3149     		ldr	r1, .L22+36
 171              	.LVL11:
 172 0074 0A40     		ands	r2, r1
 173 0076 1A60     		str	r2, [r3]
 244:Drivers/STM32L0xx_HAL_Driver/Src/stm32l0xx_hal_dma.c ****   }
 174              		.loc 1 244 0
 175 0078 1A68     		ldr	r2, [r3]
 176 007a 4168     		ldr	r1, [r0, #4]
 177 007c 0906     		lsls	r1, r1, #24
 178 007e 0A43     		orrs	r2, r1
 179 0080 1A60     		str	r2, [r3]
 180 0082 08E0     		b	.L9
 181              	.LVL12:
 182              	.L16:
 192:Drivers/STM32L0xx_HAL_Driver/Src/stm32l0xx_hal_dma.c ****     
 183              		.loc 1 192 0
 184 0084 2B4B     		ldr	r3, .L22+32
 185 0086 1A68     		ldr	r2, [r3]
 186 0088 0F21     		movs	r1, #15
 187              	.LVL13:
 188 008a 8A43     		bics	r2, r1
 189 008c 1A60     		str	r2, [r3]
 195:Drivers/STM32L0xx_HAL_Driver/Src/stm32l0xx_hal_dma.c ****   }
 190              		.loc 1 195 0
 191 008e 1A68     		ldr	r2, [r3]
 192 0090 4168     		ldr	r1, [r0, #4]
 193 0092 0A43     		orrs	r2, r1
 194 0094 1A60     		str	r2, [r3]
 195              	.L9:
 248:Drivers/STM32L0xx_HAL_Driver/Src/stm32l0xx_hal_dma.c ****   
 196              		.loc 1 248 0
 197 0096 2523     		movs	r3, #37
 198 0098 0122     		movs	r2, #1
 199 009a C254     		strb	r2, [r0, r3]
 250:Drivers/STM32L0xx_HAL_Driver/Src/stm32l0xx_hal_dma.c **** }  
 200              		.loc 1 250 0
 201 009c 0020     		movs	r0, #0
ARM GAS  /var/folders/2m/zqg86yyd4hbf56w83tkxjpvr0000gn/T//cclJg58U.s 			page 19


 202              	.LVL14:
 203              	.L6:
 251:Drivers/STM32L0xx_HAL_Driver/Src/stm32l0xx_hal_dma.c ****   
 204              		.loc 1 251 0
 205              		@ sp needed
 206 009e 10BD     		pop	{r4, pc}
 207              	.LVL15:
 208              	.L17:
 200:Drivers/STM32L0xx_HAL_Driver/Src/stm32l0xx_hal_dma.c ****     
 209              		.loc 1 200 0
 210 00a0 244B     		ldr	r3, .L22+32
 211 00a2 1A68     		ldr	r2, [r3]
 212 00a4 F021     		movs	r1, #240
 213              	.LVL16:
 214 00a6 8A43     		bics	r2, r1
 215 00a8 1A60     		str	r2, [r3]
 203:Drivers/STM32L0xx_HAL_Driver/Src/stm32l0xx_hal_dma.c ****   }
 216              		.loc 1 203 0
 217 00aa 1A68     		ldr	r2, [r3]
 218 00ac 4168     		ldr	r1, [r0, #4]
 219 00ae 0901     		lsls	r1, r1, #4
 220 00b0 0A43     		orrs	r2, r1
 221 00b2 1A60     		str	r2, [r3]
 222 00b4 EFE7     		b	.L9
 223              	.LVL17:
 224              	.L18:
 208:Drivers/STM32L0xx_HAL_Driver/Src/stm32l0xx_hal_dma.c ****     
 225              		.loc 1 208 0
 226 00b6 1F4B     		ldr	r3, .L22+32
 227 00b8 1A68     		ldr	r2, [r3]
 228 00ba 2049     		ldr	r1, .L22+40
 229              	.LVL18:
 230 00bc 0A40     		ands	r2, r1
 231 00be 1A60     		str	r2, [r3]
 211:Drivers/STM32L0xx_HAL_Driver/Src/stm32l0xx_hal_dma.c ****   }
 232              		.loc 1 211 0
 233 00c0 1A68     		ldr	r2, [r3]
 234 00c2 4168     		ldr	r1, [r0, #4]
 235 00c4 0902     		lsls	r1, r1, #8
 236 00c6 0A43     		orrs	r2, r1
 237 00c8 1A60     		str	r2, [r3]
 238 00ca E4E7     		b	.L9
 239              	.LVL19:
 240              	.L19:
 216:Drivers/STM32L0xx_HAL_Driver/Src/stm32l0xx_hal_dma.c ****     
 241              		.loc 1 216 0
 242 00cc 194B     		ldr	r3, .L22+32
 243 00ce 1A68     		ldr	r2, [r3]
 244 00d0 1B49     		ldr	r1, .L22+44
 245              	.LVL20:
 246 00d2 0A40     		ands	r2, r1
 247 00d4 1A60     		str	r2, [r3]
 219:Drivers/STM32L0xx_HAL_Driver/Src/stm32l0xx_hal_dma.c ****   }
 248              		.loc 1 219 0
 249 00d6 1A68     		ldr	r2, [r3]
 250 00d8 4168     		ldr	r1, [r0, #4]
 251 00da 0903     		lsls	r1, r1, #12
ARM GAS  /var/folders/2m/zqg86yyd4hbf56w83tkxjpvr0000gn/T//cclJg58U.s 			page 20


 252 00dc 0A43     		orrs	r2, r1
 253 00de 1A60     		str	r2, [r3]
 254 00e0 D9E7     		b	.L9
 255              	.LVL21:
 256              	.L20:
 224:Drivers/STM32L0xx_HAL_Driver/Src/stm32l0xx_hal_dma.c ****     
 257              		.loc 1 224 0
 258 00e2 144B     		ldr	r3, .L22+32
 259 00e4 1A68     		ldr	r2, [r3]
 260 00e6 1749     		ldr	r1, .L22+48
 261              	.LVL22:
 262 00e8 0A40     		ands	r2, r1
 263 00ea 1A60     		str	r2, [r3]
 227:Drivers/STM32L0xx_HAL_Driver/Src/stm32l0xx_hal_dma.c ****   }
 264              		.loc 1 227 0
 265 00ec 1A68     		ldr	r2, [r3]
 266 00ee 4168     		ldr	r1, [r0, #4]
 267 00f0 0904     		lsls	r1, r1, #16
 268 00f2 0A43     		orrs	r2, r1
 269 00f4 1A60     		str	r2, [r3]
 270 00f6 CEE7     		b	.L9
 271              	.LVL23:
 272              	.L21:
 233:Drivers/STM32L0xx_HAL_Driver/Src/stm32l0xx_hal_dma.c ****     
 273              		.loc 1 233 0
 274 00f8 0E4B     		ldr	r3, .L22+32
 275 00fa 1A68     		ldr	r2, [r3]
 276 00fc 1249     		ldr	r1, .L22+52
 277              	.LVL24:
 278 00fe 0A40     		ands	r2, r1
 279 0100 1A60     		str	r2, [r3]
 236:Drivers/STM32L0xx_HAL_Driver/Src/stm32l0xx_hal_dma.c ****   }
 280              		.loc 1 236 0
 281 0102 1A68     		ldr	r2, [r3]
 282 0104 4168     		ldr	r1, [r0, #4]
 283 0106 0905     		lsls	r1, r1, #20
 284 0108 0A43     		orrs	r2, r1
 285 010a 1A60     		str	r2, [r3]
 286 010c C3E7     		b	.L9
 287              	.LVL25:
 288              	.L15:
 148:Drivers/STM32L0xx_HAL_Driver/Src/stm32l0xx_hal_dma.c ****   }
 289              		.loc 1 148 0
 290 010e 0120     		movs	r0, #1
 291              	.LVL26:
 292 0110 C5E7     		b	.L6
 293              	.L23:
 294 0112 C046     		.align	2
 295              	.L22:
 296 0114 0FC0FFFF 		.word	-16369
 297 0118 08000240 		.word	1073872904
 298 011c 1C000240 		.word	1073872924
 299 0120 30000240 		.word	1073872944
 300 0124 44000240 		.word	1073872964
 301 0128 58000240 		.word	1073872984
 302 012c 6C000240 		.word	1073873004
 303 0130 80000240 		.word	1073873024
ARM GAS  /var/folders/2m/zqg86yyd4hbf56w83tkxjpvr0000gn/T//cclJg58U.s 			page 21


 304 0134 A8000240 		.word	1073873064
 305 0138 FFFFFFF0 		.word	-251658241
 306 013c FFF0FFFF 		.word	-3841
 307 0140 FF0FFFFF 		.word	-61441
 308 0144 FFFFF0FF 		.word	-983041
 309 0148 FFFF0FFF 		.word	-15728641
 310              		.cfi_endproc
 311              	.LFE39:
 313              		.section	.text.HAL_DMA_DeInit,"ax",%progbits
 314              		.align	1
 315              		.global	HAL_DMA_DeInit
 316              		.syntax unified
 317              		.code	16
 318              		.thumb_func
 319              		.fpu softvfp
 321              	HAL_DMA_DeInit:
 322              	.LFB40:
 260:Drivers/STM32L0xx_HAL_Driver/Src/stm32l0xx_hal_dma.c ****   /* Check the DMA peripheral state */
 323              		.loc 1 260 0
 324              		.cfi_startproc
 325              		@ args = 0, pretend = 0, frame = 0
 326              		@ frame_needed = 0, uses_anonymous_args = 0
 327              	.LVL27:
 328 0000 00B5     		push	{lr}
 329              	.LCFI2:
 330              		.cfi_def_cfa_offset 4
 331              		.cfi_offset 14, -4
 262:Drivers/STM32L0xx_HAL_Driver/Src/stm32l0xx_hal_dma.c ****   {
 332              		.loc 1 262 0
 333 0002 0028     		cmp	r0, #0
 334 0004 00D1     		bne	.LCB306
 335 0006 F5E0     		b	.L37	@long jump
 336              	.LCB306:
 268:Drivers/STM32L0xx_HAL_Driver/Src/stm32l0xx_hal_dma.c ****   {
 337              		.loc 1 268 0
 338 0008 2523     		movs	r3, #37
 339 000a C35C     		ldrb	r3, [r0, r3]
 340 000c 022B     		cmp	r3, #2
 341 000e 00D1     		bne	.LCB311
 342 0010 F2E0     		b	.L38	@long jump
 343              	.LCB311:
 274:Drivers/STM32L0xx_HAL_Driver/Src/stm32l0xx_hal_dma.c ****   
 344              		.loc 1 274 0
 345 0012 0268     		ldr	r2, [r0]
 346 0014 1368     		ldr	r3, [r2]
 347 0016 0121     		movs	r1, #1
 348 0018 8B43     		bics	r3, r1
 349 001a 1360     		str	r3, [r2]
 277:Drivers/STM32L0xx_HAL_Driver/Src/stm32l0xx_hal_dma.c ****   
 350              		.loc 1 277 0
 351 001c 0268     		ldr	r2, [r0]
 352 001e 0023     		movs	r3, #0
 353 0020 1360     		str	r3, [r2]
 280:Drivers/STM32L0xx_HAL_Driver/Src/stm32l0xx_hal_dma.c ****   
 354              		.loc 1 280 0
 355 0022 0268     		ldr	r2, [r0]
 356 0024 5360     		str	r3, [r2, #4]
ARM GAS  /var/folders/2m/zqg86yyd4hbf56w83tkxjpvr0000gn/T//cclJg58U.s 			page 22


 283:Drivers/STM32L0xx_HAL_Driver/Src/stm32l0xx_hal_dma.c ****   
 357              		.loc 1 283 0
 358 0026 0268     		ldr	r2, [r0]
 359 0028 9360     		str	r3, [r2, #8]
 286:Drivers/STM32L0xx_HAL_Driver/Src/stm32l0xx_hal_dma.c **** 
 360              		.loc 1 286 0
 361 002a 0268     		ldr	r2, [r0]
 362 002c D360     		str	r3, [r2, #12]
 289:Drivers/STM32L0xx_HAL_Driver/Src/stm32l0xx_hal_dma.c ****   __HAL_DMA_CLEAR_FLAG(hdma, __HAL_DMA_GET_TC_FLAG_INDEX(hdma));
 363              		.loc 1 289 0
 364 002e 0368     		ldr	r3, [r0]
 365 0030 724A     		ldr	r2, .L73
 366 0032 9342     		cmp	r3, r2
 367 0034 14D0     		beq	.L39
 289:Drivers/STM32L0xx_HAL_Driver/Src/stm32l0xx_hal_dma.c ****   __HAL_DMA_CLEAR_FLAG(hdma, __HAL_DMA_GET_TC_FLAG_INDEX(hdma));
 368              		.loc 1 289 0 is_stmt 0 discriminator 1
 369 0036 724A     		ldr	r2, .L73+4
 370 0038 9342     		cmp	r3, r2
 371 003a 2AD0     		beq	.L40
 289:Drivers/STM32L0xx_HAL_Driver/Src/stm32l0xx_hal_dma.c ****   __HAL_DMA_CLEAR_FLAG(hdma, __HAL_DMA_GET_TC_FLAG_INDEX(hdma));
 372              		.loc 1 289 0 discriminator 3
 373 003c 714A     		ldr	r2, .L73+8
 374 003e 9342     		cmp	r3, r2
 375 0040 29D0     		beq	.L41
 289:Drivers/STM32L0xx_HAL_Driver/Src/stm32l0xx_hal_dma.c ****   __HAL_DMA_CLEAR_FLAG(hdma, __HAL_DMA_GET_TC_FLAG_INDEX(hdma));
 376              		.loc 1 289 0 discriminator 5
 377 0042 714A     		ldr	r2, .L73+12
 378 0044 9342     		cmp	r3, r2
 379 0046 29D0     		beq	.L42
 289:Drivers/STM32L0xx_HAL_Driver/Src/stm32l0xx_hal_dma.c ****   __HAL_DMA_CLEAR_FLAG(hdma, __HAL_DMA_GET_TC_FLAG_INDEX(hdma));
 380              		.loc 1 289 0 discriminator 7
 381 0048 704A     		ldr	r2, .L73+16
 382 004a 9342     		cmp	r3, r2
 383 004c 29D0     		beq	.L43
 289:Drivers/STM32L0xx_HAL_Driver/Src/stm32l0xx_hal_dma.c ****   __HAL_DMA_CLEAR_FLAG(hdma, __HAL_DMA_GET_TC_FLAG_INDEX(hdma));
 384              		.loc 1 289 0 discriminator 9
 385 004e 704A     		ldr	r2, .L73+20
 386 0050 9342     		cmp	r3, r2
 387 0052 02D0     		beq	.L63
 289:Drivers/STM32L0xx_HAL_Driver/Src/stm32l0xx_hal_dma.c ****   __HAL_DMA_CLEAR_FLAG(hdma, __HAL_DMA_GET_TC_FLAG_INDEX(hdma));
 388              		.loc 1 289 0
 389 0054 8022     		movs	r2, #128
 390 0056 5204     		lsls	r2, r2, #17
 391 0058 03E0     		b	.L26
 392              	.L63:
 393 005a 8022     		movs	r2, #128
 394 005c 5203     		lsls	r2, r2, #13
 395 005e 00E0     		b	.L26
 396              	.L39:
 397 0060 0122     		movs	r2, #1
 398              	.L26:
 289:Drivers/STM32L0xx_HAL_Driver/Src/stm32l0xx_hal_dma.c ****   __HAL_DMA_CLEAR_FLAG(hdma, __HAL_DMA_GET_TC_FLAG_INDEX(hdma));
 399              		.loc 1 289 0 discriminator 24
 400 0062 6C4B     		ldr	r3, .L73+24
 401 0064 5A60     		str	r2, [r3, #4]
 290:Drivers/STM32L0xx_HAL_Driver/Src/stm32l0xx_hal_dma.c ****   __HAL_DMA_CLEAR_FLAG(hdma, __HAL_DMA_GET_TE_FLAG_INDEX(hdma));
 402              		.loc 1 290 0 is_stmt 1 discriminator 24
ARM GAS  /var/folders/2m/zqg86yyd4hbf56w83tkxjpvr0000gn/T//cclJg58U.s 			page 23


 403 0066 0368     		ldr	r3, [r0]
 404 0068 644A     		ldr	r2, .L73
 405 006a 9342     		cmp	r3, r2
 406 006c 1FD0     		beq	.L45
 290:Drivers/STM32L0xx_HAL_Driver/Src/stm32l0xx_hal_dma.c ****   __HAL_DMA_CLEAR_FLAG(hdma, __HAL_DMA_GET_TE_FLAG_INDEX(hdma));
 407              		.loc 1 290 0 is_stmt 0 discriminator 1
 408 006e 644A     		ldr	r2, .L73+4
 409 0070 9342     		cmp	r3, r2
 410 0072 35D0     		beq	.L46
 290:Drivers/STM32L0xx_HAL_Driver/Src/stm32l0xx_hal_dma.c ****   __HAL_DMA_CLEAR_FLAG(hdma, __HAL_DMA_GET_TE_FLAG_INDEX(hdma));
 411              		.loc 1 290 0 discriminator 3
 412 0074 634A     		ldr	r2, .L73+8
 413 0076 9342     		cmp	r3, r2
 414 0078 34D0     		beq	.L47
 290:Drivers/STM32L0xx_HAL_Driver/Src/stm32l0xx_hal_dma.c ****   __HAL_DMA_CLEAR_FLAG(hdma, __HAL_DMA_GET_TE_FLAG_INDEX(hdma));
 415              		.loc 1 290 0 discriminator 5
 416 007a 634A     		ldr	r2, .L73+12
 417 007c 9342     		cmp	r3, r2
 418 007e 34D0     		beq	.L48
 290:Drivers/STM32L0xx_HAL_Driver/Src/stm32l0xx_hal_dma.c ****   __HAL_DMA_CLEAR_FLAG(hdma, __HAL_DMA_GET_TE_FLAG_INDEX(hdma));
 419              		.loc 1 290 0 discriminator 7
 420 0080 624A     		ldr	r2, .L73+16
 421 0082 9342     		cmp	r3, r2
 422 0084 34D0     		beq	.L49
 290:Drivers/STM32L0xx_HAL_Driver/Src/stm32l0xx_hal_dma.c ****   __HAL_DMA_CLEAR_FLAG(hdma, __HAL_DMA_GET_TE_FLAG_INDEX(hdma));
 423              		.loc 1 290 0 discriminator 9
 424 0086 624A     		ldr	r2, .L73+20
 425 0088 9342     		cmp	r3, r2
 426 008a 0DD0     		beq	.L64
 290:Drivers/STM32L0xx_HAL_Driver/Src/stm32l0xx_hal_dma.c ****   __HAL_DMA_CLEAR_FLAG(hdma, __HAL_DMA_GET_TE_FLAG_INDEX(hdma));
 427              		.loc 1 290 0
 428 008c 8022     		movs	r2, #128
 429 008e 9204     		lsls	r2, r2, #18
 430 0090 0EE0     		b	.L27
 431              	.L40:
 289:Drivers/STM32L0xx_HAL_Driver/Src/stm32l0xx_hal_dma.c ****   __HAL_DMA_CLEAR_FLAG(hdma, __HAL_DMA_GET_TC_FLAG_INDEX(hdma));
 432              		.loc 1 289 0 is_stmt 1
 433 0092 1022     		movs	r2, #16
 434 0094 E5E7     		b	.L26
 435              	.L41:
 436 0096 8022     		movs	r2, #128
 437 0098 5200     		lsls	r2, r2, #1
 438 009a E2E7     		b	.L26
 439              	.L42:
 440 009c 8022     		movs	r2, #128
 441 009e 5201     		lsls	r2, r2, #5
 442 00a0 DFE7     		b	.L26
 443              	.L43:
 444 00a2 8022     		movs	r2, #128
 445 00a4 5202     		lsls	r2, r2, #9
 446 00a6 DCE7     		b	.L26
 447              	.L64:
 290:Drivers/STM32L0xx_HAL_Driver/Src/stm32l0xx_hal_dma.c ****   __HAL_DMA_CLEAR_FLAG(hdma, __HAL_DMA_GET_TE_FLAG_INDEX(hdma));
 448              		.loc 1 290 0
 449 00a8 8022     		movs	r2, #128
 450 00aa 9203     		lsls	r2, r2, #14
 451 00ac 00E0     		b	.L27
ARM GAS  /var/folders/2m/zqg86yyd4hbf56w83tkxjpvr0000gn/T//cclJg58U.s 			page 24


 452              	.L45:
 453 00ae 0222     		movs	r2, #2
 454              	.L27:
 290:Drivers/STM32L0xx_HAL_Driver/Src/stm32l0xx_hal_dma.c ****   __HAL_DMA_CLEAR_FLAG(hdma, __HAL_DMA_GET_TE_FLAG_INDEX(hdma));
 455              		.loc 1 290 0 is_stmt 0 discriminator 24
 456 00b0 584B     		ldr	r3, .L73+24
 457 00b2 5A60     		str	r2, [r3, #4]
 291:Drivers/STM32L0xx_HAL_Driver/Src/stm32l0xx_hal_dma.c ****   __HAL_DMA_CLEAR_FLAG(hdma, __HAL_DMA_GET_HT_FLAG_INDEX(hdma));
 458              		.loc 1 291 0 is_stmt 1 discriminator 24
 459 00b4 0368     		ldr	r3, [r0]
 460 00b6 514A     		ldr	r2, .L73
 461 00b8 9342     		cmp	r3, r2
 462 00ba 1FD0     		beq	.L51
 291:Drivers/STM32L0xx_HAL_Driver/Src/stm32l0xx_hal_dma.c ****   __HAL_DMA_CLEAR_FLAG(hdma, __HAL_DMA_GET_HT_FLAG_INDEX(hdma));
 463              		.loc 1 291 0 is_stmt 0 discriminator 1
 464 00bc 504A     		ldr	r2, .L73+4
 465 00be 9342     		cmp	r3, r2
 466 00c0 35D0     		beq	.L52
 291:Drivers/STM32L0xx_HAL_Driver/Src/stm32l0xx_hal_dma.c ****   __HAL_DMA_CLEAR_FLAG(hdma, __HAL_DMA_GET_HT_FLAG_INDEX(hdma));
 467              		.loc 1 291 0 discriminator 3
 468 00c2 504A     		ldr	r2, .L73+8
 469 00c4 9342     		cmp	r3, r2
 470 00c6 34D0     		beq	.L53
 291:Drivers/STM32L0xx_HAL_Driver/Src/stm32l0xx_hal_dma.c ****   __HAL_DMA_CLEAR_FLAG(hdma, __HAL_DMA_GET_HT_FLAG_INDEX(hdma));
 471              		.loc 1 291 0 discriminator 5
 472 00c8 4F4A     		ldr	r2, .L73+12
 473 00ca 9342     		cmp	r3, r2
 474 00cc 34D0     		beq	.L54
 291:Drivers/STM32L0xx_HAL_Driver/Src/stm32l0xx_hal_dma.c ****   __HAL_DMA_CLEAR_FLAG(hdma, __HAL_DMA_GET_HT_FLAG_INDEX(hdma));
 475              		.loc 1 291 0 discriminator 7
 476 00ce 4F4A     		ldr	r2, .L73+16
 477 00d0 9342     		cmp	r3, r2
 478 00d2 34D0     		beq	.L55
 291:Drivers/STM32L0xx_HAL_Driver/Src/stm32l0xx_hal_dma.c ****   __HAL_DMA_CLEAR_FLAG(hdma, __HAL_DMA_GET_HT_FLAG_INDEX(hdma));
 479              		.loc 1 291 0 discriminator 9
 480 00d4 4E4A     		ldr	r2, .L73+20
 481 00d6 9342     		cmp	r3, r2
 482 00d8 0DD0     		beq	.L65
 291:Drivers/STM32L0xx_HAL_Driver/Src/stm32l0xx_hal_dma.c ****   __HAL_DMA_CLEAR_FLAG(hdma, __HAL_DMA_GET_HT_FLAG_INDEX(hdma));
 483              		.loc 1 291 0
 484 00da 8022     		movs	r2, #128
 485 00dc 1205     		lsls	r2, r2, #20
 486 00de 0EE0     		b	.L28
 487              	.L46:
 290:Drivers/STM32L0xx_HAL_Driver/Src/stm32l0xx_hal_dma.c ****   __HAL_DMA_CLEAR_FLAG(hdma, __HAL_DMA_GET_TE_FLAG_INDEX(hdma));
 488              		.loc 1 290 0 is_stmt 1
 489 00e0 2022     		movs	r2, #32
 490 00e2 E5E7     		b	.L27
 491              	.L47:
 492 00e4 8022     		movs	r2, #128
 493 00e6 9200     		lsls	r2, r2, #2
 494 00e8 E2E7     		b	.L27
 495              	.L48:
 496 00ea 8022     		movs	r2, #128
 497 00ec 9201     		lsls	r2, r2, #6
 498 00ee DFE7     		b	.L27
 499              	.L49:
ARM GAS  /var/folders/2m/zqg86yyd4hbf56w83tkxjpvr0000gn/T//cclJg58U.s 			page 25


 500 00f0 8022     		movs	r2, #128
 501 00f2 9202     		lsls	r2, r2, #10
 502 00f4 DCE7     		b	.L27
 503              	.L65:
 291:Drivers/STM32L0xx_HAL_Driver/Src/stm32l0xx_hal_dma.c ****   __HAL_DMA_CLEAR_FLAG(hdma, __HAL_DMA_GET_HT_FLAG_INDEX(hdma));
 504              		.loc 1 291 0
 505 00f6 8022     		movs	r2, #128
 506 00f8 1204     		lsls	r2, r2, #16
 507 00fa 00E0     		b	.L28
 508              	.L51:
 509 00fc 0822     		movs	r2, #8
 510              	.L28:
 291:Drivers/STM32L0xx_HAL_Driver/Src/stm32l0xx_hal_dma.c ****   __HAL_DMA_CLEAR_FLAG(hdma, __HAL_DMA_GET_HT_FLAG_INDEX(hdma));
 511              		.loc 1 291 0 is_stmt 0 discriminator 24
 512 00fe 454B     		ldr	r3, .L73+24
 513 0100 5A60     		str	r2, [r3, #4]
 292:Drivers/STM32L0xx_HAL_Driver/Src/stm32l0xx_hal_dma.c ****   
 514              		.loc 1 292 0 is_stmt 1 discriminator 24
 515 0102 0368     		ldr	r3, [r0]
 516 0104 3D4A     		ldr	r2, .L73
 517 0106 9342     		cmp	r3, r2
 518 0108 1FD0     		beq	.L57
 292:Drivers/STM32L0xx_HAL_Driver/Src/stm32l0xx_hal_dma.c ****   
 519              		.loc 1 292 0 is_stmt 0 discriminator 1
 520 010a 3D4A     		ldr	r2, .L73+4
 521 010c 9342     		cmp	r3, r2
 522 010e 3BD0     		beq	.L58
 292:Drivers/STM32L0xx_HAL_Driver/Src/stm32l0xx_hal_dma.c ****   
 523              		.loc 1 292 0 discriminator 3
 524 0110 3C4A     		ldr	r2, .L73+8
 525 0112 9342     		cmp	r3, r2
 526 0114 3AD0     		beq	.L59
 292:Drivers/STM32L0xx_HAL_Driver/Src/stm32l0xx_hal_dma.c ****   
 527              		.loc 1 292 0 discriminator 5
 528 0116 3C4A     		ldr	r2, .L73+12
 529 0118 9342     		cmp	r3, r2
 530 011a 3AD0     		beq	.L60
 292:Drivers/STM32L0xx_HAL_Driver/Src/stm32l0xx_hal_dma.c ****   
 531              		.loc 1 292 0 discriminator 7
 532 011c 3B4A     		ldr	r2, .L73+16
 533 011e 9342     		cmp	r3, r2
 534 0120 3AD0     		beq	.L61
 292:Drivers/STM32L0xx_HAL_Driver/Src/stm32l0xx_hal_dma.c ****   
 535              		.loc 1 292 0 discriminator 9
 536 0122 3B4A     		ldr	r2, .L73+20
 537 0124 9342     		cmp	r3, r2
 538 0126 0DD0     		beq	.L66
 292:Drivers/STM32L0xx_HAL_Driver/Src/stm32l0xx_hal_dma.c ****   
 539              		.loc 1 292 0
 540 0128 8022     		movs	r2, #128
 541 012a D204     		lsls	r2, r2, #19
 542 012c 0EE0     		b	.L29
 543              	.L52:
 291:Drivers/STM32L0xx_HAL_Driver/Src/stm32l0xx_hal_dma.c ****   __HAL_DMA_CLEAR_FLAG(hdma, __HAL_DMA_GET_HT_FLAG_INDEX(hdma));
 544              		.loc 1 291 0 is_stmt 1
 545 012e 8022     		movs	r2, #128
 546 0130 E5E7     		b	.L28
ARM GAS  /var/folders/2m/zqg86yyd4hbf56w83tkxjpvr0000gn/T//cclJg58U.s 			page 26


 547              	.L53:
 548 0132 8022     		movs	r2, #128
 549 0134 1201     		lsls	r2, r2, #4
 550 0136 E2E7     		b	.L28
 551              	.L54:
 552 0138 8022     		movs	r2, #128
 553 013a 1202     		lsls	r2, r2, #8
 554 013c DFE7     		b	.L28
 555              	.L55:
 556 013e 8022     		movs	r2, #128
 557 0140 1203     		lsls	r2, r2, #12
 558 0142 DCE7     		b	.L28
 559              	.L66:
 292:Drivers/STM32L0xx_HAL_Driver/Src/stm32l0xx_hal_dma.c ****   
 560              		.loc 1 292 0
 561 0144 8022     		movs	r2, #128
 562 0146 D203     		lsls	r2, r2, #15
 563 0148 00E0     		b	.L29
 564              	.L57:
 565 014a 0422     		movs	r2, #4
 566              	.L29:
 292:Drivers/STM32L0xx_HAL_Driver/Src/stm32l0xx_hal_dma.c ****   
 567              		.loc 1 292 0 is_stmt 0 discriminator 24
 568 014c 314B     		ldr	r3, .L73+24
 569 014e 5A60     		str	r2, [r3, #4]
 295:Drivers/STM32L0xx_HAL_Driver/Src/stm32l0xx_hal_dma.c ****   {
 570              		.loc 1 295 0 is_stmt 1 discriminator 24
 571 0150 0368     		ldr	r3, [r0]
 572 0152 2A4A     		ldr	r2, .L73
 573 0154 9342     		cmp	r3, r2
 574 0156 22D0     		beq	.L67
 300:Drivers/STM32L0xx_HAL_Driver/Src/stm32l0xx_hal_dma.c ****   {
 575              		.loc 1 300 0
 576 0158 294A     		ldr	r2, .L73+4
 577 015a 9342     		cmp	r3, r2
 578 015c 2CD0     		beq	.L68
 305:Drivers/STM32L0xx_HAL_Driver/Src/stm32l0xx_hal_dma.c ****   {
 579              		.loc 1 305 0
 580 015e 294A     		ldr	r2, .L73+8
 581 0160 9342     		cmp	r3, r2
 582 0162 2FD0     		beq	.L69
 310:Drivers/STM32L0xx_HAL_Driver/Src/stm32l0xx_hal_dma.c ****   {
 583              		.loc 1 310 0
 584 0164 284A     		ldr	r2, .L73+12
 585 0166 9342     		cmp	r3, r2
 586 0168 32D0     		beq	.L70
 315:Drivers/STM32L0xx_HAL_Driver/Src/stm32l0xx_hal_dma.c ****   {
 587              		.loc 1 315 0
 588 016a 284A     		ldr	r2, .L73+16
 589 016c 9342     		cmp	r3, r2
 590 016e 35D0     		beq	.L71
 321:Drivers/STM32L0xx_HAL_Driver/Src/stm32l0xx_hal_dma.c ****   {
 591              		.loc 1 321 0
 592 0170 274A     		ldr	r2, .L73+20
 593 0172 9342     		cmp	r3, r2
 594 0174 38D0     		beq	.L72
 326:Drivers/STM32L0xx_HAL_Driver/Src/stm32l0xx_hal_dma.c ****   {
ARM GAS  /var/folders/2m/zqg86yyd4hbf56w83tkxjpvr0000gn/T//cclJg58U.s 			page 27


 595              		.loc 1 326 0
 596 0176 284A     		ldr	r2, .L73+28
 597 0178 9342     		cmp	r3, r2
 598 017a 15D1     		bne	.L31
 329:Drivers/STM32L0xx_HAL_Driver/Src/stm32l0xx_hal_dma.c ****   }
 599              		.loc 1 329 0
 600 017c 274A     		ldr	r2, .L73+32
 601 017e 1368     		ldr	r3, [r2]
 602 0180 2749     		ldr	r1, .L73+36
 603 0182 0B40     		ands	r3, r1
 604 0184 1360     		str	r3, [r2]
 605 0186 0FE0     		b	.L31
 606              	.L58:
 292:Drivers/STM32L0xx_HAL_Driver/Src/stm32l0xx_hal_dma.c ****   
 607              		.loc 1 292 0
 608 0188 4022     		movs	r2, #64
 609 018a DFE7     		b	.L29
 610              	.L59:
 611 018c 8022     		movs	r2, #128
 612 018e D200     		lsls	r2, r2, #3
 613 0190 DCE7     		b	.L29
 614              	.L60:
 615 0192 8022     		movs	r2, #128
 616 0194 D201     		lsls	r2, r2, #7
 617 0196 D9E7     		b	.L29
 618              	.L61:
 619 0198 8022     		movs	r2, #128
 620 019a D202     		lsls	r2, r2, #11
 621 019c D6E7     		b	.L29
 622              	.L67:
 298:Drivers/STM32L0xx_HAL_Driver/Src/stm32l0xx_hal_dma.c ****   }
 623              		.loc 1 298 0
 624 019e 1F4A     		ldr	r2, .L73+32
 625 01a0 1368     		ldr	r3, [r2]
 626 01a2 0F21     		movs	r1, #15
 627 01a4 8B43     		bics	r3, r1
 628 01a6 1360     		str	r3, [r2]
 629              	.L31:
 333:Drivers/STM32L0xx_HAL_Driver/Src/stm32l0xx_hal_dma.c **** 
 630              		.loc 1 333 0
 631 01a8 0023     		movs	r3, #0
 632 01aa C363     		str	r3, [r0, #60]
 336:Drivers/STM32L0xx_HAL_Driver/Src/stm32l0xx_hal_dma.c ****   
 633              		.loc 1 336 0
 634 01ac 2522     		movs	r2, #37
 635 01ae 8354     		strb	r3, [r0, r2]
 339:Drivers/STM32L0xx_HAL_Driver/Src/stm32l0xx_hal_dma.c **** 
 636              		.loc 1 339 0
 637 01b0 013A     		subs	r2, r2, #1
 638 01b2 8354     		strb	r3, [r0, r2]
 341:Drivers/STM32L0xx_HAL_Driver/Src/stm32l0xx_hal_dma.c **** }
 639              		.loc 1 341 0
 640 01b4 0020     		movs	r0, #0
 641              	.LVL28:
 642              	.L25:
 342:Drivers/STM32L0xx_HAL_Driver/Src/stm32l0xx_hal_dma.c **** 
 643              		.loc 1 342 0
ARM GAS  /var/folders/2m/zqg86yyd4hbf56w83tkxjpvr0000gn/T//cclJg58U.s 			page 28


 644              		@ sp needed
 645 01b6 00BD     		pop	{pc}
 646              	.LVL29:
 647              	.L68:
 303:Drivers/STM32L0xx_HAL_Driver/Src/stm32l0xx_hal_dma.c ****   }
 648              		.loc 1 303 0
 649 01b8 184A     		ldr	r2, .L73+32
 650 01ba 1368     		ldr	r3, [r2]
 651 01bc F021     		movs	r1, #240
 652 01be 8B43     		bics	r3, r1
 653 01c0 1360     		str	r3, [r2]
 654 01c2 F1E7     		b	.L31
 655              	.L69:
 308:Drivers/STM32L0xx_HAL_Driver/Src/stm32l0xx_hal_dma.c ****   }
 656              		.loc 1 308 0
 657 01c4 154A     		ldr	r2, .L73+32
 658 01c6 1368     		ldr	r3, [r2]
 659 01c8 1649     		ldr	r1, .L73+40
 660 01ca 0B40     		ands	r3, r1
 661 01cc 1360     		str	r3, [r2]
 662 01ce EBE7     		b	.L31
 663              	.L70:
 313:Drivers/STM32L0xx_HAL_Driver/Src/stm32l0xx_hal_dma.c ****   }
 664              		.loc 1 313 0
 665 01d0 124A     		ldr	r2, .L73+32
 666 01d2 1368     		ldr	r3, [r2]
 667 01d4 1449     		ldr	r1, .L73+44
 668 01d6 0B40     		ands	r3, r1
 669 01d8 1360     		str	r3, [r2]
 670 01da E5E7     		b	.L31
 671              	.L71:
 318:Drivers/STM32L0xx_HAL_Driver/Src/stm32l0xx_hal_dma.c ****   }
 672              		.loc 1 318 0
 673 01dc 0F4A     		ldr	r2, .L73+32
 674 01de 1368     		ldr	r3, [r2]
 675 01e0 1249     		ldr	r1, .L73+48
 676 01e2 0B40     		ands	r3, r1
 677 01e4 1360     		str	r3, [r2]
 678 01e6 DFE7     		b	.L31
 679              	.L72:
 324:Drivers/STM32L0xx_HAL_Driver/Src/stm32l0xx_hal_dma.c ****   }
 680              		.loc 1 324 0
 681 01e8 0C4A     		ldr	r2, .L73+32
 682 01ea 1368     		ldr	r3, [r2]
 683 01ec 1049     		ldr	r1, .L73+52
 684 01ee 0B40     		ands	r3, r1
 685 01f0 1360     		str	r3, [r2]
 686 01f2 D9E7     		b	.L31
 687              	.L37:
 264:Drivers/STM32L0xx_HAL_Driver/Src/stm32l0xx_hal_dma.c ****   }
 688              		.loc 1 264 0
 689 01f4 0120     		movs	r0, #1
 690              	.LVL30:
 691 01f6 DEE7     		b	.L25
 692              	.LVL31:
 693              	.L38:
 270:Drivers/STM32L0xx_HAL_Driver/Src/stm32l0xx_hal_dma.c ****   }
ARM GAS  /var/folders/2m/zqg86yyd4hbf56w83tkxjpvr0000gn/T//cclJg58U.s 			page 29


 694              		.loc 1 270 0
 695 01f8 0120     		movs	r0, #1
 696              	.LVL32:
 697 01fa DCE7     		b	.L25
 698              	.L74:
 699              		.align	2
 700              	.L73:
 701 01fc 08000240 		.word	1073872904
 702 0200 1C000240 		.word	1073872924
 703 0204 30000240 		.word	1073872944
 704 0208 44000240 		.word	1073872964
 705 020c 58000240 		.word	1073872984
 706 0210 6C000240 		.word	1073873004
 707 0214 00000240 		.word	1073872896
 708 0218 80000240 		.word	1073873024
 709 021c A8000240 		.word	1073873064
 710 0220 FFFFFFF0 		.word	-251658241
 711 0224 FFF0FFFF 		.word	-3841
 712 0228 FF0FFFFF 		.word	-61441
 713 022c FFFFF0FF 		.word	-983041
 714 0230 FFFF0FFF 		.word	-15728641
 715              		.cfi_endproc
 716              	.LFE40:
 718              		.section	.text.HAL_DMA_Start,"ax",%progbits
 719              		.align	1
 720              		.global	HAL_DMA_Start
 721              		.syntax unified
 722              		.code	16
 723              		.thumb_func
 724              		.fpu softvfp
 726              	HAL_DMA_Start:
 727              	.LFB41:
 377:Drivers/STM32L0xx_HAL_Driver/Src/stm32l0xx_hal_dma.c ****   /* Process locked */
 728              		.loc 1 377 0
 729              		.cfi_startproc
 730              		@ args = 0, pretend = 0, frame = 0
 731              		@ frame_needed = 0, uses_anonymous_args = 0
 732              	.LVL33:
 733 0000 70B5     		push	{r4, r5, r6, lr}
 734              	.LCFI3:
 735              		.cfi_def_cfa_offset 16
 736              		.cfi_offset 4, -16
 737              		.cfi_offset 5, -12
 738              		.cfi_offset 6, -8
 739              		.cfi_offset 14, -4
 740 0002 0400     		movs	r4, r0
 379:Drivers/STM32L0xx_HAL_Driver/Src/stm32l0xx_hal_dma.c **** 
 741              		.loc 1 379 0
 742 0004 2420     		movs	r0, #36
 743              	.LVL34:
 744 0006 205C     		ldrb	r0, [r4, r0]
 745 0008 0128     		cmp	r0, #1
 746 000a 12D0     		beq	.L77
 379:Drivers/STM32L0xx_HAL_Driver/Src/stm32l0xx_hal_dma.c **** 
 747              		.loc 1 379 0 is_stmt 0 discriminator 2
 748 000c 0125     		movs	r5, #1
 749 000e 2420     		movs	r0, #36
ARM GAS  /var/folders/2m/zqg86yyd4hbf56w83tkxjpvr0000gn/T//cclJg58U.s 			page 30


 750 0010 2554     		strb	r5, [r4, r0]
 382:Drivers/STM32L0xx_HAL_Driver/Src/stm32l0xx_hal_dma.c **** 
 751              		.loc 1 382 0 is_stmt 1 discriminator 2
 752 0012 0130     		adds	r0, r0, #1
 753 0014 0226     		movs	r6, #2
 754 0016 2654     		strb	r6, [r4, r0]
 388:Drivers/STM32L0xx_HAL_Driver/Src/stm32l0xx_hal_dma.c ****   
 755              		.loc 1 388 0 discriminator 2
 756 0018 2668     		ldr	r6, [r4]
 757 001a 3068     		ldr	r0, [r6]
 758 001c A843     		bics	r0, r5
 759 001e 3060     		str	r0, [r6]
 391:Drivers/STM32L0xx_HAL_Driver/Src/stm32l0xx_hal_dma.c **** 
 760              		.loc 1 391 0 discriminator 2
 761 0020 2000     		movs	r0, r4
 762 0022 FFF7FEFF 		bl	DMA_SetConfig
 763              	.LVL35:
 394:Drivers/STM32L0xx_HAL_Driver/Src/stm32l0xx_hal_dma.c **** 
 764              		.loc 1 394 0 discriminator 2
 765 0026 2268     		ldr	r2, [r4]
 766 0028 1368     		ldr	r3, [r2]
 767 002a 2B43     		orrs	r3, r5
 768 002c 1360     		str	r3, [r2]
 396:Drivers/STM32L0xx_HAL_Driver/Src/stm32l0xx_hal_dma.c **** } 
 769              		.loc 1 396 0 discriminator 2
 770 002e 0020     		movs	r0, #0
 771              	.L76:
 397:Drivers/STM32L0xx_HAL_Driver/Src/stm32l0xx_hal_dma.c **** 
 772              		.loc 1 397 0
 773              		@ sp needed
 774              	.LVL36:
 775 0030 70BD     		pop	{r4, r5, r6, pc}
 776              	.LVL37:
 777              	.L77:
 379:Drivers/STM32L0xx_HAL_Driver/Src/stm32l0xx_hal_dma.c **** 
 778              		.loc 1 379 0
 779 0032 0220     		movs	r0, #2
 780 0034 FCE7     		b	.L76
 781              		.cfi_endproc
 782              	.LFE41:
 784              		.section	.text.HAL_DMA_Start_IT,"ax",%progbits
 785              		.align	1
 786              		.global	HAL_DMA_Start_IT
 787              		.syntax unified
 788              		.code	16
 789              		.thumb_func
 790              		.fpu softvfp
 792              	HAL_DMA_Start_IT:
 793              	.LFB42:
 409:Drivers/STM32L0xx_HAL_Driver/Src/stm32l0xx_hal_dma.c ****   /* Process locked */
 794              		.loc 1 409 0
 795              		.cfi_startproc
 796              		@ args = 0, pretend = 0, frame = 0
 797              		@ frame_needed = 0, uses_anonymous_args = 0
 798              	.LVL38:
 799 0000 F8B5     		push	{r3, r4, r5, r6, r7, lr}
 800              	.LCFI4:
ARM GAS  /var/folders/2m/zqg86yyd4hbf56w83tkxjpvr0000gn/T//cclJg58U.s 			page 31


 801              		.cfi_def_cfa_offset 24
 802              		.cfi_offset 3, -24
 803              		.cfi_offset 4, -20
 804              		.cfi_offset 5, -16
 805              		.cfi_offset 6, -12
 806              		.cfi_offset 7, -8
 807              		.cfi_offset 14, -4
 808 0002 0400     		movs	r4, r0
 411:Drivers/STM32L0xx_HAL_Driver/Src/stm32l0xx_hal_dma.c **** 
 809              		.loc 1 411 0
 810 0004 2420     		movs	r0, #36
 811              	.LVL39:
 812 0006 205C     		ldrb	r0, [r4, r0]
 813 0008 0128     		cmp	r0, #1
 814 000a 20D0     		beq	.L80
 411:Drivers/STM32L0xx_HAL_Driver/Src/stm32l0xx_hal_dma.c **** 
 815              		.loc 1 411 0 is_stmt 0 discriminator 2
 816 000c 0125     		movs	r5, #1
 817 000e 2420     		movs	r0, #36
 818 0010 2554     		strb	r5, [r4, r0]
 414:Drivers/STM32L0xx_HAL_Driver/Src/stm32l0xx_hal_dma.c **** 
 819              		.loc 1 414 0 is_stmt 1 discriminator 2
 820 0012 0226     		movs	r6, #2
 821 0014 0130     		adds	r0, r0, #1
 822 0016 2654     		strb	r6, [r4, r0]
 420:Drivers/STM32L0xx_HAL_Driver/Src/stm32l0xx_hal_dma.c ****   
 823              		.loc 1 420 0 discriminator 2
 824 0018 2768     		ldr	r7, [r4]
 825 001a 3868     		ldr	r0, [r7]
 826 001c A843     		bics	r0, r5
 827 001e 3860     		str	r0, [r7]
 423:Drivers/STM32L0xx_HAL_Driver/Src/stm32l0xx_hal_dma.c ****   
 828              		.loc 1 423 0 discriminator 2
 829 0020 2000     		movs	r0, r4
 830 0022 FFF7FEFF 		bl	DMA_SetConfig
 831              	.LVL40:
 426:Drivers/STM32L0xx_HAL_Driver/Src/stm32l0xx_hal_dma.c **** 
 832              		.loc 1 426 0 discriminator 2
 833 0026 2268     		ldr	r2, [r4]
 834 0028 1368     		ldr	r3, [r2]
 835 002a 3343     		orrs	r3, r6
 836 002c 1360     		str	r3, [r2]
 429:Drivers/STM32L0xx_HAL_Driver/Src/stm32l0xx_hal_dma.c **** 
 837              		.loc 1 429 0 discriminator 2
 838 002e 2268     		ldr	r2, [r4]
 839 0030 1368     		ldr	r3, [r2]
 840 0032 0421     		movs	r1, #4
 841 0034 0B43     		orrs	r3, r1
 842 0036 1360     		str	r3, [r2]
 432:Drivers/STM32L0xx_HAL_Driver/Src/stm32l0xx_hal_dma.c ****   
 843              		.loc 1 432 0 discriminator 2
 844 0038 2268     		ldr	r2, [r4]
 845 003a 1368     		ldr	r3, [r2]
 846 003c 0431     		adds	r1, r1, #4
 847 003e 0B43     		orrs	r3, r1
 848 0040 1360     		str	r3, [r2]
 435:Drivers/STM32L0xx_HAL_Driver/Src/stm32l0xx_hal_dma.c ****   
ARM GAS  /var/folders/2m/zqg86yyd4hbf56w83tkxjpvr0000gn/T//cclJg58U.s 			page 32


 849              		.loc 1 435 0 discriminator 2
 850 0042 2268     		ldr	r2, [r4]
 851 0044 1368     		ldr	r3, [r2]
 852 0046 2B43     		orrs	r3, r5
 853 0048 1360     		str	r3, [r2]
 437:Drivers/STM32L0xx_HAL_Driver/Src/stm32l0xx_hal_dma.c **** } 
 854              		.loc 1 437 0 discriminator 2
 855 004a 0020     		movs	r0, #0
 856              	.L79:
 438:Drivers/STM32L0xx_HAL_Driver/Src/stm32l0xx_hal_dma.c **** 
 857              		.loc 1 438 0
 858              		@ sp needed
 859              	.LVL41:
 860 004c F8BD     		pop	{r3, r4, r5, r6, r7, pc}
 861              	.LVL42:
 862              	.L80:
 411:Drivers/STM32L0xx_HAL_Driver/Src/stm32l0xx_hal_dma.c **** 
 863              		.loc 1 411 0
 864 004e 0220     		movs	r0, #2
 865 0050 FCE7     		b	.L79
 866              		.cfi_endproc
 867              	.LFE42:
 869              		.section	.text.HAL_DMA_Abort,"ax",%progbits
 870              		.align	1
 871              		.global	HAL_DMA_Abort
 872              		.syntax unified
 873              		.code	16
 874              		.thumb_func
 875              		.fpu softvfp
 877              	HAL_DMA_Abort:
 878              	.LFB43:
 447:Drivers/STM32L0xx_HAL_Driver/Src/stm32l0xx_hal_dma.c ****   uint32_t tickstart = 0U;
 879              		.loc 1 447 0
 880              		.cfi_startproc
 881              		@ args = 0, pretend = 0, frame = 0
 882              		@ frame_needed = 0, uses_anonymous_args = 0
 883              	.LVL43:
 884 0000 70B5     		push	{r4, r5, r6, lr}
 885              	.LCFI5:
 886              		.cfi_def_cfa_offset 16
 887              		.cfi_offset 4, -16
 888              		.cfi_offset 5, -12
 889              		.cfi_offset 6, -8
 890              		.cfi_offset 14, -4
 891 0002 0400     		movs	r4, r0
 892              	.LVL44:
 451:Drivers/STM32L0xx_HAL_Driver/Src/stm32l0xx_hal_dma.c ****   
 893              		.loc 1 451 0
 894 0004 0268     		ldr	r2, [r0]
 895 0006 1368     		ldr	r3, [r2]
 896 0008 0121     		movs	r1, #1
 897 000a 8B43     		bics	r3, r1
 898 000c 1360     		str	r3, [r2]
 454:Drivers/STM32L0xx_HAL_Driver/Src/stm32l0xx_hal_dma.c ****   
 899              		.loc 1 454 0
 900 000e FFF7FEFF 		bl	HAL_GetTick
 901              	.LVL45:
ARM GAS  /var/folders/2m/zqg86yyd4hbf56w83tkxjpvr0000gn/T//cclJg58U.s 			page 33


 902 0012 0500     		movs	r5, r0
 903              	.LVL46:
 904              	.L82:
 457:Drivers/STM32L0xx_HAL_Driver/Src/stm32l0xx_hal_dma.c ****   {
 905              		.loc 1 457 0
 906 0014 2368     		ldr	r3, [r4]
 907 0016 1B68     		ldr	r3, [r3]
 908 0018 DB07     		lsls	r3, r3, #31
 909 001a 12D5     		bpl	.L85
 460:Drivers/STM32L0xx_HAL_Driver/Src/stm32l0xx_hal_dma.c ****     {
 910              		.loc 1 460 0
 911 001c FFF7FEFF 		bl	HAL_GetTick
 912              	.LVL47:
 913 0020 401B     		subs	r0, r0, r5
 914 0022 FA23     		movs	r3, #250
 915 0024 9B00     		lsls	r3, r3, #2
 916 0026 9842     		cmp	r0, r3
 917 0028 F4D9     		bls	.L82
 463:Drivers/STM32L0xx_HAL_Driver/Src/stm32l0xx_hal_dma.c ****       
 918              		.loc 1 463 0
 919 002a E36B     		ldr	r3, [r4, #60]
 920 002c 2022     		movs	r2, #32
 921 002e 1343     		orrs	r3, r2
 922 0030 E363     		str	r3, [r4, #60]
 466:Drivers/STM32L0xx_HAL_Driver/Src/stm32l0xx_hal_dma.c ****       
 923              		.loc 1 466 0
 924 0032 2423     		movs	r3, #36
 925 0034 0022     		movs	r2, #0
 926 0036 E254     		strb	r2, [r4, r3]
 469:Drivers/STM32L0xx_HAL_Driver/Src/stm32l0xx_hal_dma.c ****       
 927              		.loc 1 469 0
 928 0038 0133     		adds	r3, r3, #1
 929 003a 0332     		adds	r2, r2, #3
 930 003c E254     		strb	r2, [r4, r3]
 471:Drivers/STM32L0xx_HAL_Driver/Src/stm32l0xx_hal_dma.c ****     }
 931              		.loc 1 471 0
 932 003e 0320     		movs	r0, #3
 933 0040 06E0     		b	.L83
 934              	.L85:
 475:Drivers/STM32L0xx_HAL_Driver/Src/stm32l0xx_hal_dma.c ****   
 935              		.loc 1 475 0
 936 0042 2423     		movs	r3, #36
 937 0044 0022     		movs	r2, #0
 938 0046 E254     		strb	r2, [r4, r3]
 478:Drivers/STM32L0xx_HAL_Driver/Src/stm32l0xx_hal_dma.c ****   
 939              		.loc 1 478 0
 940 0048 0133     		adds	r3, r3, #1
 941 004a 0132     		adds	r2, r2, #1
 942 004c E254     		strb	r2, [r4, r3]
 480:Drivers/STM32L0xx_HAL_Driver/Src/stm32l0xx_hal_dma.c **** }
 943              		.loc 1 480 0
 944 004e 0020     		movs	r0, #0
 945              	.L83:
 481:Drivers/STM32L0xx_HAL_Driver/Src/stm32l0xx_hal_dma.c **** 
 946              		.loc 1 481 0
 947              		@ sp needed
 948              	.LVL48:
ARM GAS  /var/folders/2m/zqg86yyd4hbf56w83tkxjpvr0000gn/T//cclJg58U.s 			page 34


 949              	.LVL49:
 950 0050 70BD     		pop	{r4, r5, r6, pc}
 951              		.cfi_endproc
 952              	.LFE43:
 954              		.section	.text.HAL_DMA_Abort_IT,"ax",%progbits
 955              		.align	1
 956              		.global	HAL_DMA_Abort_IT
 957              		.syntax unified
 958              		.code	16
 959              		.thumb_func
 960              		.fpu softvfp
 962              	HAL_DMA_Abort_IT:
 963              	.LFB44:
 490:Drivers/STM32L0xx_HAL_Driver/Src/stm32l0xx_hal_dma.c ****   HAL_StatusTypeDef status = HAL_OK;
 964              		.loc 1 490 0
 965              		.cfi_startproc
 966              		@ args = 0, pretend = 0, frame = 0
 967              		@ frame_needed = 0, uses_anonymous_args = 0
 968              	.LVL50:
 969 0000 10B5     		push	{r4, lr}
 970              	.LCFI6:
 971              		.cfi_def_cfa_offset 8
 972              		.cfi_offset 4, -8
 973              		.cfi_offset 14, -4
 974              	.LVL51:
 493:Drivers/STM32L0xx_HAL_Driver/Src/stm32l0xx_hal_dma.c ****   {
 975              		.loc 1 493 0
 976 0002 2523     		movs	r3, #37
 977 0004 C35C     		ldrb	r3, [r0, r3]
 978 0006 022B     		cmp	r3, #2
 979 0008 03D0     		beq	.L87
 496:Drivers/STM32L0xx_HAL_Driver/Src/stm32l0xx_hal_dma.c ****         
 980              		.loc 1 496 0
 981 000a 0423     		movs	r3, #4
 982 000c C363     		str	r3, [r0, #60]
 983              	.LVL52:
 498:Drivers/STM32L0xx_HAL_Driver/Src/stm32l0xx_hal_dma.c ****   }
 984              		.loc 1 498 0
 985 000e 0120     		movs	r0, #1
 986              	.LVL53:
 987              	.L88:
 524:Drivers/STM32L0xx_HAL_Driver/Src/stm32l0xx_hal_dma.c **** 
 988              		.loc 1 524 0
 989              		@ sp needed
 990 0010 10BD     		pop	{r4, pc}
 991              	.LVL54:
 992              	.L87:
 503:Drivers/STM32L0xx_HAL_Driver/Src/stm32l0xx_hal_dma.c ****     
 993              		.loc 1 503 0
 994 0012 0268     		ldr	r2, [r0]
 995 0014 1368     		ldr	r3, [r2]
 996 0016 0E21     		movs	r1, #14
 997 0018 8B43     		bics	r3, r1
 998 001a 1360     		str	r3, [r2]
 506:Drivers/STM32L0xx_HAL_Driver/Src/stm32l0xx_hal_dma.c ****     
 999              		.loc 1 506 0
 1000 001c 0268     		ldr	r2, [r0]
ARM GAS  /var/folders/2m/zqg86yyd4hbf56w83tkxjpvr0000gn/T//cclJg58U.s 			page 35


 1001 001e 1368     		ldr	r3, [r2]
 1002 0020 0D39     		subs	r1, r1, #13
 1003 0022 8B43     		bics	r3, r1
 1004 0024 1360     		str	r3, [r2]
 509:Drivers/STM32L0xx_HAL_Driver/Src/stm32l0xx_hal_dma.c ****     
 1005              		.loc 1 509 0
 1006 0026 0368     		ldr	r3, [r0]
 1007 0028 194A     		ldr	r2, .L98
 1008 002a 9342     		cmp	r3, r2
 1009 002c 14D0     		beq	.L90
 509:Drivers/STM32L0xx_HAL_Driver/Src/stm32l0xx_hal_dma.c ****     
 1010              		.loc 1 509 0 is_stmt 0 discriminator 1
 1011 002e 194A     		ldr	r2, .L98+4
 1012 0030 9342     		cmp	r3, r2
 1013 0032 20D0     		beq	.L91
 509:Drivers/STM32L0xx_HAL_Driver/Src/stm32l0xx_hal_dma.c ****     
 1014              		.loc 1 509 0 discriminator 3
 1015 0034 184A     		ldr	r2, .L98+8
 1016 0036 9342     		cmp	r3, r2
 1017 0038 1FD0     		beq	.L92
 509:Drivers/STM32L0xx_HAL_Driver/Src/stm32l0xx_hal_dma.c ****     
 1018              		.loc 1 509 0 discriminator 5
 1019 003a 184A     		ldr	r2, .L98+12
 1020 003c 9342     		cmp	r3, r2
 1021 003e 1FD0     		beq	.L93
 509:Drivers/STM32L0xx_HAL_Driver/Src/stm32l0xx_hal_dma.c ****     
 1022              		.loc 1 509 0 discriminator 7
 1023 0040 174A     		ldr	r2, .L98+16
 1024 0042 9342     		cmp	r3, r2
 1025 0044 1FD0     		beq	.L94
 509:Drivers/STM32L0xx_HAL_Driver/Src/stm32l0xx_hal_dma.c ****     
 1026              		.loc 1 509 0 discriminator 9
 1027 0046 174A     		ldr	r2, .L98+20
 1028 0048 9342     		cmp	r3, r2
 1029 004a 02D0     		beq	.L97
 509:Drivers/STM32L0xx_HAL_Driver/Src/stm32l0xx_hal_dma.c ****     
 1030              		.loc 1 509 0
 1031 004c 8022     		movs	r2, #128
 1032 004e 5204     		lsls	r2, r2, #17
 1033 0050 03E0     		b	.L89
 1034              	.L97:
 1035 0052 8022     		movs	r2, #128
 1036 0054 5203     		lsls	r2, r2, #13
 1037 0056 00E0     		b	.L89
 1038              	.L90:
 1039 0058 0122     		movs	r2, #1
 1040              	.L89:
 509:Drivers/STM32L0xx_HAL_Driver/Src/stm32l0xx_hal_dma.c ****     
 1041              		.loc 1 509 0 discriminator 24
 1042 005a 134B     		ldr	r3, .L98+24
 1043 005c 5A60     		str	r2, [r3, #4]
 512:Drivers/STM32L0xx_HAL_Driver/Src/stm32l0xx_hal_dma.c ****     
 1044              		.loc 1 512 0 is_stmt 1 discriminator 24
 1045 005e 2523     		movs	r3, #37
 1046 0060 0122     		movs	r2, #1
 1047 0062 C254     		strb	r2, [r0, r3]
 515:Drivers/STM32L0xx_HAL_Driver/Src/stm32l0xx_hal_dma.c ****     
ARM GAS  /var/folders/2m/zqg86yyd4hbf56w83tkxjpvr0000gn/T//cclJg58U.s 			page 36


 1048              		.loc 1 515 0 discriminator 24
 1049 0064 013B     		subs	r3, r3, #1
 1050 0066 0022     		movs	r2, #0
 1051 0068 C254     		strb	r2, [r0, r3]
 518:Drivers/STM32L0xx_HAL_Driver/Src/stm32l0xx_hal_dma.c ****     {
 1052              		.loc 1 518 0 discriminator 24
 1053 006a 836B     		ldr	r3, [r0, #56]
 1054 006c 002B     		cmp	r3, #0
 1055 006e 0DD0     		beq	.L96
 520:Drivers/STM32L0xx_HAL_Driver/Src/stm32l0xx_hal_dma.c ****     } 
 1056              		.loc 1 520 0
 1057 0070 9847     		blx	r3
 1058              	.LVL55:
 491:Drivers/STM32L0xx_HAL_Driver/Src/stm32l0xx_hal_dma.c ****   
 1059              		.loc 1 491 0
 1060 0072 0020     		movs	r0, #0
 1061 0074 CCE7     		b	.L88
 1062              	.LVL56:
 1063              	.L91:
 509:Drivers/STM32L0xx_HAL_Driver/Src/stm32l0xx_hal_dma.c ****     
 1064              		.loc 1 509 0
 1065 0076 1022     		movs	r2, #16
 1066 0078 EFE7     		b	.L89
 1067              	.L92:
 1068 007a 8022     		movs	r2, #128
 1069 007c 5200     		lsls	r2, r2, #1
 1070 007e ECE7     		b	.L89
 1071              	.L93:
 1072 0080 8022     		movs	r2, #128
 1073 0082 5201     		lsls	r2, r2, #5
 1074 0084 E9E7     		b	.L89
 1075              	.L94:
 1076 0086 8022     		movs	r2, #128
 1077 0088 5202     		lsls	r2, r2, #9
 1078 008a E6E7     		b	.L89
 1079              	.L96:
 491:Drivers/STM32L0xx_HAL_Driver/Src/stm32l0xx_hal_dma.c ****   
 1080              		.loc 1 491 0
 1081 008c 0020     		movs	r0, #0
 1082              	.LVL57:
 1083 008e BFE7     		b	.L88
 1084              	.L99:
 1085              		.align	2
 1086              	.L98:
 1087 0090 08000240 		.word	1073872904
 1088 0094 1C000240 		.word	1073872924
 1089 0098 30000240 		.word	1073872944
 1090 009c 44000240 		.word	1073872964
 1091 00a0 58000240 		.word	1073872984
 1092 00a4 6C000240 		.word	1073873004
 1093 00a8 00000240 		.word	1073872896
 1094              		.cfi_endproc
 1095              	.LFE44:
 1097              		.section	.text.HAL_DMA_PollForTransfer,"ax",%progbits
 1098              		.align	1
 1099              		.global	HAL_DMA_PollForTransfer
 1100              		.syntax unified
ARM GAS  /var/folders/2m/zqg86yyd4hbf56w83tkxjpvr0000gn/T//cclJg58U.s 			page 37


 1101              		.code	16
 1102              		.thumb_func
 1103              		.fpu softvfp
 1105              	HAL_DMA_PollForTransfer:
 1106              	.LFB45:
 535:Drivers/STM32L0xx_HAL_Driver/Src/stm32l0xx_hal_dma.c ****   uint32_t temp;
 1107              		.loc 1 535 0
 1108              		.cfi_startproc
 1109              		@ args = 0, pretend = 0, frame = 8
 1110              		@ frame_needed = 0, uses_anonymous_args = 0
 1111              	.LVL58:
 1112 0000 F0B5     		push	{r4, r5, r6, r7, lr}
 1113              	.LCFI7:
 1114              		.cfi_def_cfa_offset 20
 1115              		.cfi_offset 4, -20
 1116              		.cfi_offset 5, -16
 1117              		.cfi_offset 6, -12
 1118              		.cfi_offset 7, -8
 1119              		.cfi_offset 14, -4
 1120 0002 83B0     		sub	sp, sp, #12
 1121              	.LCFI8:
 1122              		.cfi_def_cfa_offset 32
 1123 0004 0500     		movs	r5, r0
 1124 0006 0C00     		movs	r4, r1
 1125 0008 1700     		movs	r7, r2
 1126              	.LVL59:
 540:Drivers/STM32L0xx_HAL_Driver/Src/stm32l0xx_hal_dma.c ****   {
 1127              		.loc 1 540 0
 1128 000a 0029     		cmp	r1, #0
 1129 000c 18D1     		bne	.L101
 543:Drivers/STM32L0xx_HAL_Driver/Src/stm32l0xx_hal_dma.c ****   }
 1130              		.loc 1 543 0
 1131 000e 0368     		ldr	r3, [r0]
 1132 0010 7F4A     		ldr	r2, .L151
 1133              	.LVL60:
 1134 0012 9342     		cmp	r3, r2
 1135 0014 2DD0     		beq	.L113
 543:Drivers/STM32L0xx_HAL_Driver/Src/stm32l0xx_hal_dma.c ****   }
 1136              		.loc 1 543 0 is_stmt 0 discriminator 1
 1137 0016 7F4A     		ldr	r2, .L151+4
 1138 0018 9342     		cmp	r3, r2
 1139 001a 2FD0     		beq	.L114
 543:Drivers/STM32L0xx_HAL_Driver/Src/stm32l0xx_hal_dma.c ****   }
 1140              		.loc 1 543 0 discriminator 3
 1141 001c 7E4A     		ldr	r2, .L151+8
 1142 001e 9342     		cmp	r3, r2
 1143 0020 2ED0     		beq	.L115
 543:Drivers/STM32L0xx_HAL_Driver/Src/stm32l0xx_hal_dma.c ****   }
 1144              		.loc 1 543 0 discriminator 5
 1145 0022 7E4A     		ldr	r2, .L151+12
 1146 0024 9342     		cmp	r3, r2
 1147 0026 2ED0     		beq	.L116
 543:Drivers/STM32L0xx_HAL_Driver/Src/stm32l0xx_hal_dma.c ****   }
 1148              		.loc 1 543 0 discriminator 7
 1149 0028 7D4A     		ldr	r2, .L151+16
 1150 002a 9342     		cmp	r3, r2
 1151 002c 2ED0     		beq	.L117
ARM GAS  /var/folders/2m/zqg86yyd4hbf56w83tkxjpvr0000gn/T//cclJg58U.s 			page 38


 543:Drivers/STM32L0xx_HAL_Driver/Src/stm32l0xx_hal_dma.c ****   }
 1152              		.loc 1 543 0 discriminator 9
 1153 002e 7D4A     		ldr	r2, .L151+20
 1154 0030 9342     		cmp	r3, r2
 1155 0032 02D0     		beq	.L143
 543:Drivers/STM32L0xx_HAL_Driver/Src/stm32l0xx_hal_dma.c ****   }
 1156              		.loc 1 543 0
 1157 0034 8026     		movs	r6, #128
 1158 0036 B604     		lsls	r6, r6, #18
 1159 0038 1CE0     		b	.L102
 1160              	.L143:
 1161 003a 8026     		movs	r6, #128
 1162 003c B603     		lsls	r6, r6, #14
 1163 003e 19E0     		b	.L102
 1164              	.LVL61:
 1165              	.L101:
 548:Drivers/STM32L0xx_HAL_Driver/Src/stm32l0xx_hal_dma.c ****   }
 1166              		.loc 1 548 0 is_stmt 1
 1167 0040 0368     		ldr	r3, [r0]
 1168 0042 734A     		ldr	r2, .L151
 1169              	.LVL62:
 1170 0044 9342     		cmp	r3, r2
 1171 0046 24D0     		beq	.L119
 548:Drivers/STM32L0xx_HAL_Driver/Src/stm32l0xx_hal_dma.c ****   }
 1172              		.loc 1 548 0 is_stmt 0 discriminator 1
 1173 0048 724A     		ldr	r2, .L151+4
 1174 004a 9342     		cmp	r3, r2
 1175 004c 23D0     		beq	.L120
 548:Drivers/STM32L0xx_HAL_Driver/Src/stm32l0xx_hal_dma.c ****   }
 1176              		.loc 1 548 0 discriminator 3
 1177 004e 724A     		ldr	r2, .L151+8
 1178 0050 9342     		cmp	r3, r2
 1179 0052 22D0     		beq	.L121
 548:Drivers/STM32L0xx_HAL_Driver/Src/stm32l0xx_hal_dma.c ****   }
 1180              		.loc 1 548 0 discriminator 5
 1181 0054 714A     		ldr	r2, .L151+12
 1182 0056 9342     		cmp	r3, r2
 1183 0058 22D0     		beq	.L122
 548:Drivers/STM32L0xx_HAL_Driver/Src/stm32l0xx_hal_dma.c ****   }
 1184              		.loc 1 548 0 discriminator 7
 1185 005a 714A     		ldr	r2, .L151+16
 1186 005c 9342     		cmp	r3, r2
 1187 005e 22D0     		beq	.L123
 548:Drivers/STM32L0xx_HAL_Driver/Src/stm32l0xx_hal_dma.c ****   }
 1188              		.loc 1 548 0 discriminator 9
 1189 0060 704A     		ldr	r2, .L151+20
 1190 0062 9342     		cmp	r3, r2
 1191 0064 02D0     		beq	.L144
 548:Drivers/STM32L0xx_HAL_Driver/Src/stm32l0xx_hal_dma.c ****   }
 1192              		.loc 1 548 0
 1193 0066 8026     		movs	r6, #128
 1194 0068 F604     		lsls	r6, r6, #19
 1195 006a 03E0     		b	.L102
 1196              	.L144:
 1197 006c 8026     		movs	r6, #128
 1198 006e F603     		lsls	r6, r6, #15
 1199 0070 00E0     		b	.L102
ARM GAS  /var/folders/2m/zqg86yyd4hbf56w83tkxjpvr0000gn/T//cclJg58U.s 			page 39


 1200              	.L113:
 543:Drivers/STM32L0xx_HAL_Driver/Src/stm32l0xx_hal_dma.c ****   }
 1201              		.loc 1 543 0 is_stmt 1
 1202 0072 0226     		movs	r6, #2
 1203              	.L102:
 1204              	.LVL63:
 552:Drivers/STM32L0xx_HAL_Driver/Src/stm32l0xx_hal_dma.c **** 
 1205              		.loc 1 552 0
 1206 0074 FFF7FEFF 		bl	HAL_GetTick
 1207              	.LVL64:
 1208 0078 0190     		str	r0, [sp, #4]
 1209              	.LVL65:
 554:Drivers/STM32L0xx_HAL_Driver/Src/stm32l0xx_hal_dma.c ****   {
 1210              		.loc 1 554 0
 1211 007a 1FE0     		b	.L107
 1212              	.LVL66:
 1213              	.L114:
 543:Drivers/STM32L0xx_HAL_Driver/Src/stm32l0xx_hal_dma.c ****   }
 1214              		.loc 1 543 0
 1215 007c 2026     		movs	r6, #32
 1216 007e F9E7     		b	.L102
 1217              	.L115:
 1218 0080 8026     		movs	r6, #128
 1219 0082 B600     		lsls	r6, r6, #2
 1220 0084 F6E7     		b	.L102
 1221              	.L116:
 1222 0086 8026     		movs	r6, #128
 1223 0088 B601     		lsls	r6, r6, #6
 1224 008a F3E7     		b	.L102
 1225              	.L117:
 1226 008c 8026     		movs	r6, #128
 1227 008e B602     		lsls	r6, r6, #10
 1228 0090 F0E7     		b	.L102
 1229              	.L119:
 548:Drivers/STM32L0xx_HAL_Driver/Src/stm32l0xx_hal_dma.c ****   }
 1230              		.loc 1 548 0
 1231 0092 0426     		movs	r6, #4
 1232 0094 EEE7     		b	.L102
 1233              	.L120:
 1234 0096 4026     		movs	r6, #64
 1235 0098 ECE7     		b	.L102
 1236              	.L121:
 1237 009a 8026     		movs	r6, #128
 1238 009c F600     		lsls	r6, r6, #3
 1239 009e E9E7     		b	.L102
 1240              	.L122:
 1241 00a0 8026     		movs	r6, #128
 1242 00a2 F601     		lsls	r6, r6, #7
 1243 00a4 E6E7     		b	.L102
 1244              	.L123:
 1245 00a6 8026     		movs	r6, #128
 1246 00a8 F602     		lsls	r6, r6, #11
 1247 00aa E3E7     		b	.L102
 1248              	.LVL67:
 1249              	.L148:
 556:Drivers/STM32L0xx_HAL_Driver/Src/stm32l0xx_hal_dma.c ****     {      
 1250              		.loc 1 556 0
ARM GAS  /var/folders/2m/zqg86yyd4hbf56w83tkxjpvr0000gn/T//cclJg58U.s 			page 40


 1251 00ac 8023     		movs	r3, #128
 1252 00ae 1B04     		lsls	r3, r3, #16
 1253 00b0 00E0     		b	.L104
 1254              	.L125:
 1255 00b2 0823     		movs	r3, #8
 1256              	.L104:
 556:Drivers/STM32L0xx_HAL_Driver/Src/stm32l0xx_hal_dma.c ****     {      
 1257              		.loc 1 556 0 is_stmt 0 discriminator 24
 1258 00b4 1342     		tst	r3, r2
 1259 00b6 28D1     		bne	.L145
 573:Drivers/STM32L0xx_HAL_Driver/Src/stm32l0xx_hal_dma.c ****     {
 1260              		.loc 1 573 0 is_stmt 1
 1261 00b8 7B1C     		adds	r3, r7, #1
 1262 00ba 35D1     		bne	.L146
 1263              	.L107:
 554:Drivers/STM32L0xx_HAL_Driver/Src/stm32l0xx_hal_dma.c ****   {
 1264              		.loc 1 554 0
 1265 00bc 5A4B     		ldr	r3, .L151+24
 1266 00be 1B68     		ldr	r3, [r3]
 1267 00c0 1E42     		tst	r6, r3
 1268 00c2 45D1     		bne	.L147
 556:Drivers/STM32L0xx_HAL_Driver/Src/stm32l0xx_hal_dma.c ****     {      
 1269              		.loc 1 556 0
 1270 00c4 584B     		ldr	r3, .L151+24
 1271 00c6 1A68     		ldr	r2, [r3]
 1272 00c8 2B68     		ldr	r3, [r5]
 1273 00ca 5149     		ldr	r1, .L151
 1274 00cc 8B42     		cmp	r3, r1
 1275 00ce F0D0     		beq	.L125
 556:Drivers/STM32L0xx_HAL_Driver/Src/stm32l0xx_hal_dma.c ****     {      
 1276              		.loc 1 556 0 is_stmt 0 discriminator 1
 1277 00d0 5049     		ldr	r1, .L151+4
 1278 00d2 8B42     		cmp	r3, r1
 1279 00d4 0ED0     		beq	.L126
 556:Drivers/STM32L0xx_HAL_Driver/Src/stm32l0xx_hal_dma.c ****     {      
 1280              		.loc 1 556 0 discriminator 3
 1281 00d6 5049     		ldr	r1, .L151+8
 1282 00d8 8B42     		cmp	r3, r1
 1283 00da 0DD0     		beq	.L127
 556:Drivers/STM32L0xx_HAL_Driver/Src/stm32l0xx_hal_dma.c ****     {      
 1284              		.loc 1 556 0 discriminator 5
 1285 00dc 4F49     		ldr	r1, .L151+12
 1286 00de 8B42     		cmp	r3, r1
 1287 00e0 0DD0     		beq	.L128
 556:Drivers/STM32L0xx_HAL_Driver/Src/stm32l0xx_hal_dma.c ****     {      
 1288              		.loc 1 556 0 discriminator 7
 1289 00e2 4F49     		ldr	r1, .L151+16
 1290 00e4 8B42     		cmp	r3, r1
 1291 00e6 0DD0     		beq	.L129
 556:Drivers/STM32L0xx_HAL_Driver/Src/stm32l0xx_hal_dma.c ****     {      
 1292              		.loc 1 556 0 discriminator 9
 1293 00e8 4E49     		ldr	r1, .L151+20
 1294 00ea 8B42     		cmp	r3, r1
 1295 00ec DED0     		beq	.L148
 556:Drivers/STM32L0xx_HAL_Driver/Src/stm32l0xx_hal_dma.c ****     {      
 1296              		.loc 1 556 0
 1297 00ee 8023     		movs	r3, #128
ARM GAS  /var/folders/2m/zqg86yyd4hbf56w83tkxjpvr0000gn/T//cclJg58U.s 			page 41


 1298 00f0 1B05     		lsls	r3, r3, #20
 1299 00f2 DFE7     		b	.L104
 1300              	.L126:
 1301 00f4 8023     		movs	r3, #128
 1302 00f6 DDE7     		b	.L104
 1303              	.L127:
 1304 00f8 8023     		movs	r3, #128
 1305 00fa 1B01     		lsls	r3, r3, #4
 1306 00fc DAE7     		b	.L104
 1307              	.L128:
 1308 00fe 8023     		movs	r3, #128
 1309 0100 1B02     		lsls	r3, r3, #8
 1310 0102 D7E7     		b	.L104
 1311              	.L129:
 1312 0104 8023     		movs	r3, #128
 1313 0106 1B03     		lsls	r3, r3, #12
 1314 0108 D4E7     		b	.L104
 1315              	.L145:
 559:Drivers/STM32L0xx_HAL_Driver/Src/stm32l0xx_hal_dma.c ****       
 1316              		.loc 1 559 0 is_stmt 1 discriminator 24
 1317 010a 474A     		ldr	r2, .L151+24
 1318 010c 5360     		str	r3, [r2, #4]
 1319              	.LVL68:
 562:Drivers/STM32L0xx_HAL_Driver/Src/stm32l0xx_hal_dma.c ****       
 1320              		.loc 1 562 0 discriminator 24
 1321 010e EB6B     		ldr	r3, [r5, #60]
 1322 0110 0122     		movs	r2, #1
 1323 0112 1343     		orrs	r3, r2
 1324 0114 EB63     		str	r3, [r5, #60]
 565:Drivers/STM32L0xx_HAL_Driver/Src/stm32l0xx_hal_dma.c ****       
 1325              		.loc 1 565 0 discriminator 24
 1326 0116 2523     		movs	r3, #37
 1327 0118 0332     		adds	r2, r2, #3
 1328 011a EA54     		strb	r2, [r5, r3]
 568:Drivers/STM32L0xx_HAL_Driver/Src/stm32l0xx_hal_dma.c ****       
 1329              		.loc 1 568 0 discriminator 24
 1330 011c 013B     		subs	r3, r3, #1
 1331 011e 0022     		movs	r2, #0
 1332 0120 EA54     		strb	r2, [r5, r3]
 570:Drivers/STM32L0xx_HAL_Driver/Src/stm32l0xx_hal_dma.c ****     }      
 1333              		.loc 1 570 0 discriminator 24
 1334 0122 0120     		movs	r0, #1
 1335              	.L106:
 617:Drivers/STM32L0xx_HAL_Driver/Src/stm32l0xx_hal_dma.c **** /**
 1336              		.loc 1 617 0
 1337 0124 03B0     		add	sp, sp, #12
 1338              		@ sp needed
 1339              	.LVL69:
 1340              	.LVL70:
 1341              	.LVL71:
 1342              	.LVL72:
 1343 0126 F0BD     		pop	{r4, r5, r6, r7, pc}
 1344              	.LVL73:
 1345              	.L146:
 575:Drivers/STM32L0xx_HAL_Driver/Src/stm32l0xx_hal_dma.c ****       {
 1346              		.loc 1 575 0
 1347 0128 002F     		cmp	r7, #0
ARM GAS  /var/folders/2m/zqg86yyd4hbf56w83tkxjpvr0000gn/T//cclJg58U.s 			page 42


 1348 012a 05D0     		beq	.L108
 575:Drivers/STM32L0xx_HAL_Driver/Src/stm32l0xx_hal_dma.c ****       {
 1349              		.loc 1 575 0 is_stmt 0 discriminator 1
 1350 012c FFF7FEFF 		bl	HAL_GetTick
 1351              	.LVL74:
 1352 0130 019B     		ldr	r3, [sp, #4]
 1353 0132 C01A     		subs	r0, r0, r3
 1354 0134 B842     		cmp	r0, r7
 1355 0136 C1D9     		bls	.L107
 1356              	.L108:
 578:Drivers/STM32L0xx_HAL_Driver/Src/stm32l0xx_hal_dma.c ****         
 1357              		.loc 1 578 0 is_stmt 1
 1358 0138 EB6B     		ldr	r3, [r5, #60]
 1359 013a 2022     		movs	r2, #32
 1360 013c 1343     		orrs	r3, r2
 1361 013e EB63     		str	r3, [r5, #60]
 581:Drivers/STM32L0xx_HAL_Driver/Src/stm32l0xx_hal_dma.c ****         
 1362              		.loc 1 581 0
 1363 0140 2523     		movs	r3, #37
 1364 0142 1D3A     		subs	r2, r2, #29
 1365 0144 EA54     		strb	r2, [r5, r3]
 584:Drivers/STM32L0xx_HAL_Driver/Src/stm32l0xx_hal_dma.c ****       
 1366              		.loc 1 584 0
 1367 0146 013B     		subs	r3, r3, #1
 1368 0148 0022     		movs	r2, #0
 1369 014a EA54     		strb	r2, [r5, r3]
 586:Drivers/STM32L0xx_HAL_Driver/Src/stm32l0xx_hal_dma.c ****       }
 1370              		.loc 1 586 0
 1371 014c 0320     		movs	r0, #3
 1372 014e E9E7     		b	.L106
 1373              	.L147:
 591:Drivers/STM32L0xx_HAL_Driver/Src/stm32l0xx_hal_dma.c ****   {
 1374              		.loc 1 591 0
 1375 0150 002C     		cmp	r4, #0
 1376 0152 2ED1     		bne	.L110
 594:Drivers/STM32L0xx_HAL_Driver/Src/stm32l0xx_hal_dma.c **** 
 1377              		.loc 1 594 0
 1378 0154 2B68     		ldr	r3, [r5]
 1379 0156 2E4A     		ldr	r2, .L151
 1380 0158 9342     		cmp	r3, r2
 1381 015a 14D0     		beq	.L131
 594:Drivers/STM32L0xx_HAL_Driver/Src/stm32l0xx_hal_dma.c **** 
 1382              		.loc 1 594 0 is_stmt 0 discriminator 1
 1383 015c 2D4A     		ldr	r2, .L151+4
 1384 015e 9342     		cmp	r3, r2
 1385 0160 1CD0     		beq	.L132
 594:Drivers/STM32L0xx_HAL_Driver/Src/stm32l0xx_hal_dma.c **** 
 1386              		.loc 1 594 0 discriminator 3
 1387 0162 2D4A     		ldr	r2, .L151+8
 1388 0164 9342     		cmp	r3, r2
 1389 0166 1BD0     		beq	.L133
 594:Drivers/STM32L0xx_HAL_Driver/Src/stm32l0xx_hal_dma.c **** 
 1390              		.loc 1 594 0 discriminator 5
 1391 0168 2C4A     		ldr	r2, .L151+12
 1392 016a 9342     		cmp	r3, r2
 1393 016c 1BD0     		beq	.L134
 594:Drivers/STM32L0xx_HAL_Driver/Src/stm32l0xx_hal_dma.c **** 
ARM GAS  /var/folders/2m/zqg86yyd4hbf56w83tkxjpvr0000gn/T//cclJg58U.s 			page 43


 1394              		.loc 1 594 0 discriminator 7
 1395 016e 2C4A     		ldr	r2, .L151+16
 1396 0170 9342     		cmp	r3, r2
 1397 0172 1BD0     		beq	.L135
 594:Drivers/STM32L0xx_HAL_Driver/Src/stm32l0xx_hal_dma.c **** 
 1398              		.loc 1 594 0 discriminator 9
 1399 0174 2B4A     		ldr	r2, .L151+20
 1400 0176 9342     		cmp	r3, r2
 1401 0178 02D0     		beq	.L149
 594:Drivers/STM32L0xx_HAL_Driver/Src/stm32l0xx_hal_dma.c **** 
 1402              		.loc 1 594 0
 1403 017a 8022     		movs	r2, #128
 1404 017c 9204     		lsls	r2, r2, #18
 1405 017e 03E0     		b	.L111
 1406              	.L149:
 1407 0180 8022     		movs	r2, #128
 1408 0182 9203     		lsls	r2, r2, #14
 1409 0184 00E0     		b	.L111
 1410              	.L131:
 1411 0186 0222     		movs	r2, #2
 1412              	.L111:
 594:Drivers/STM32L0xx_HAL_Driver/Src/stm32l0xx_hal_dma.c **** 
 1413              		.loc 1 594 0 discriminator 24
 1414 0188 274B     		ldr	r3, .L151+24
 1415 018a 5A60     		str	r2, [r3, #4]
 1416              	.LVL75:
 598:Drivers/STM32L0xx_HAL_Driver/Src/stm32l0xx_hal_dma.c **** 
 1417              		.loc 1 598 0 is_stmt 1 discriminator 24
 1418 018c 2523     		movs	r3, #37
 1419 018e 0122     		movs	r2, #1
 1420 0190 EA54     		strb	r2, [r5, r3]
 601:Drivers/STM32L0xx_HAL_Driver/Src/stm32l0xx_hal_dma.c ****   }
 1421              		.loc 1 601 0 discriminator 24
 1422 0192 013B     		subs	r3, r3, #1
 1423 0194 0022     		movs	r2, #0
 1424 0196 EA54     		strb	r2, [r5, r3]
 616:Drivers/STM32L0xx_HAL_Driver/Src/stm32l0xx_hal_dma.c **** }
 1425              		.loc 1 616 0 discriminator 24
 1426 0198 0020     		movs	r0, #0
 1427 019a C3E7     		b	.L106
 1428              	.LVL76:
 1429              	.L132:
 594:Drivers/STM32L0xx_HAL_Driver/Src/stm32l0xx_hal_dma.c **** 
 1430              		.loc 1 594 0
 1431 019c 2022     		movs	r2, #32
 1432 019e F3E7     		b	.L111
 1433              	.L133:
 1434 01a0 8022     		movs	r2, #128
 1435 01a2 9200     		lsls	r2, r2, #2
 1436 01a4 F0E7     		b	.L111
 1437              	.L134:
 1438 01a6 8022     		movs	r2, #128
 1439 01a8 9201     		lsls	r2, r2, #6
 1440 01aa EDE7     		b	.L111
 1441              	.L135:
 1442 01ac 8022     		movs	r2, #128
 1443 01ae 9202     		lsls	r2, r2, #10
ARM GAS  /var/folders/2m/zqg86yyd4hbf56w83tkxjpvr0000gn/T//cclJg58U.s 			page 44


 1444 01b0 EAE7     		b	.L111
 1445              	.L110:
 606:Drivers/STM32L0xx_HAL_Driver/Src/stm32l0xx_hal_dma.c **** 
 1446              		.loc 1 606 0
 1447 01b2 2B68     		ldr	r3, [r5]
 1448 01b4 164A     		ldr	r2, .L151
 1449 01b6 9342     		cmp	r3, r2
 1450 01b8 14D0     		beq	.L137
 606:Drivers/STM32L0xx_HAL_Driver/Src/stm32l0xx_hal_dma.c **** 
 1451              		.loc 1 606 0 is_stmt 0 discriminator 1
 1452 01ba 164A     		ldr	r2, .L151+4
 1453 01bc 9342     		cmp	r3, r2
 1454 01be 1CD0     		beq	.L138
 606:Drivers/STM32L0xx_HAL_Driver/Src/stm32l0xx_hal_dma.c **** 
 1455              		.loc 1 606 0 discriminator 3
 1456 01c0 154A     		ldr	r2, .L151+8
 1457 01c2 9342     		cmp	r3, r2
 1458 01c4 1BD0     		beq	.L139
 606:Drivers/STM32L0xx_HAL_Driver/Src/stm32l0xx_hal_dma.c **** 
 1459              		.loc 1 606 0 discriminator 5
 1460 01c6 154A     		ldr	r2, .L151+12
 1461 01c8 9342     		cmp	r3, r2
 1462 01ca 1BD0     		beq	.L140
 606:Drivers/STM32L0xx_HAL_Driver/Src/stm32l0xx_hal_dma.c **** 
 1463              		.loc 1 606 0 discriminator 7
 1464 01cc 144A     		ldr	r2, .L151+16
 1465 01ce 9342     		cmp	r3, r2
 1466 01d0 1BD0     		beq	.L141
 606:Drivers/STM32L0xx_HAL_Driver/Src/stm32l0xx_hal_dma.c **** 
 1467              		.loc 1 606 0 discriminator 9
 1468 01d2 144A     		ldr	r2, .L151+20
 1469 01d4 9342     		cmp	r3, r2
 1470 01d6 02D0     		beq	.L150
 606:Drivers/STM32L0xx_HAL_Driver/Src/stm32l0xx_hal_dma.c **** 
 1471              		.loc 1 606 0
 1472 01d8 8022     		movs	r2, #128
 1473 01da D204     		lsls	r2, r2, #19
 1474 01dc 03E0     		b	.L112
 1475              	.L150:
 1476 01de 8022     		movs	r2, #128
 1477 01e0 D203     		lsls	r2, r2, #15
 1478 01e2 00E0     		b	.L112
 1479              	.L137:
 1480 01e4 0422     		movs	r2, #4
 1481              	.L112:
 606:Drivers/STM32L0xx_HAL_Driver/Src/stm32l0xx_hal_dma.c **** 
 1482              		.loc 1 606 0 discriminator 24
 1483 01e6 104B     		ldr	r3, .L151+24
 1484 01e8 5A60     		str	r2, [r3, #4]
 1485              	.LVL77:
 610:Drivers/STM32L0xx_HAL_Driver/Src/stm32l0xx_hal_dma.c ****     
 1486              		.loc 1 610 0 is_stmt 1 discriminator 24
 1487 01ea 2523     		movs	r3, #37
 1488 01ec 0522     		movs	r2, #5
 1489 01ee EA54     		strb	r2, [r5, r3]
 613:Drivers/STM32L0xx_HAL_Driver/Src/stm32l0xx_hal_dma.c ****   }
 1490              		.loc 1 613 0 discriminator 24
ARM GAS  /var/folders/2m/zqg86yyd4hbf56w83tkxjpvr0000gn/T//cclJg58U.s 			page 45


 1491 01f0 013B     		subs	r3, r3, #1
 1492 01f2 0022     		movs	r2, #0
 1493 01f4 EA54     		strb	r2, [r5, r3]
 616:Drivers/STM32L0xx_HAL_Driver/Src/stm32l0xx_hal_dma.c **** }
 1494              		.loc 1 616 0 discriminator 24
 1495 01f6 0020     		movs	r0, #0
 1496 01f8 94E7     		b	.L106
 1497              	.LVL78:
 1498              	.L138:
 606:Drivers/STM32L0xx_HAL_Driver/Src/stm32l0xx_hal_dma.c **** 
 1499              		.loc 1 606 0
 1500 01fa 4022     		movs	r2, #64
 1501 01fc F3E7     		b	.L112
 1502              	.L139:
 1503 01fe 8022     		movs	r2, #128
 1504 0200 D200     		lsls	r2, r2, #3
 1505 0202 F0E7     		b	.L112
 1506              	.L140:
 1507 0204 8022     		movs	r2, #128
 1508 0206 D201     		lsls	r2, r2, #7
 1509 0208 EDE7     		b	.L112
 1510              	.L141:
 1511 020a 8022     		movs	r2, #128
 1512 020c D202     		lsls	r2, r2, #11
 1513 020e EAE7     		b	.L112
 1514              	.L152:
 1515              		.align	2
 1516              	.L151:
 1517 0210 08000240 		.word	1073872904
 1518 0214 1C000240 		.word	1073872924
 1519 0218 30000240 		.word	1073872944
 1520 021c 44000240 		.word	1073872964
 1521 0220 58000240 		.word	1073872984
 1522 0224 6C000240 		.word	1073873004
 1523 0228 00000240 		.word	1073872896
 1524              		.cfi_endproc
 1525              	.LFE45:
 1527              		.section	.text.HAL_DMA_IRQHandler,"ax",%progbits
 1528              		.align	1
 1529              		.global	HAL_DMA_IRQHandler
 1530              		.syntax unified
 1531              		.code	16
 1532              		.thumb_func
 1533              		.fpu softvfp
 1535              	HAL_DMA_IRQHandler:
 1536              	.LFB46:
 625:Drivers/STM32L0xx_HAL_Driver/Src/stm32l0xx_hal_dma.c ****   /* Transfer Error Interrupt management ***************************************/
 1537              		.loc 1 625 0
 1538              		.cfi_startproc
 1539              		@ args = 0, pretend = 0, frame = 0
 1540              		@ frame_needed = 0, uses_anonymous_args = 0
 1541              	.LVL79:
 1542 0000 10B5     		push	{r4, lr}
 1543              	.LCFI9:
 1544              		.cfi_def_cfa_offset 8
 1545              		.cfi_offset 4, -8
 1546              		.cfi_offset 14, -4
ARM GAS  /var/folders/2m/zqg86yyd4hbf56w83tkxjpvr0000gn/T//cclJg58U.s 			page 46


 1547 0002 0400     		movs	r4, r0
 627:Drivers/STM32L0xx_HAL_Driver/Src/stm32l0xx_hal_dma.c ****   {
 1548              		.loc 1 627 0
 1549 0004 974B     		ldr	r3, .L207
 1550 0006 1A68     		ldr	r2, [r3]
 1551 0008 0368     		ldr	r3, [r0]
 1552 000a 9749     		ldr	r1, .L207+4
 1553 000c 8B42     		cmp	r3, r1
 1554 000e 14D0     		beq	.L165
 627:Drivers/STM32L0xx_HAL_Driver/Src/stm32l0xx_hal_dma.c ****   {
 1555              		.loc 1 627 0 is_stmt 0 discriminator 1
 1556 0010 9649     		ldr	r1, .L207+8
 1557 0012 8B42     		cmp	r3, r1
 1558 0014 31D0     		beq	.L166
 627:Drivers/STM32L0xx_HAL_Driver/Src/stm32l0xx_hal_dma.c ****   {
 1559              		.loc 1 627 0 discriminator 3
 1560 0016 9649     		ldr	r1, .L207+12
 1561 0018 8B42     		cmp	r3, r1
 1562 001a 30D0     		beq	.L167
 627:Drivers/STM32L0xx_HAL_Driver/Src/stm32l0xx_hal_dma.c ****   {
 1563              		.loc 1 627 0 discriminator 5
 1564 001c 9549     		ldr	r1, .L207+16
 1565 001e 8B42     		cmp	r3, r1
 1566 0020 30D0     		beq	.L168
 627:Drivers/STM32L0xx_HAL_Driver/Src/stm32l0xx_hal_dma.c ****   {
 1567              		.loc 1 627 0 discriminator 7
 1568 0022 9549     		ldr	r1, .L207+20
 1569 0024 8B42     		cmp	r3, r1
 1570 0026 30D0     		beq	.L169
 627:Drivers/STM32L0xx_HAL_Driver/Src/stm32l0xx_hal_dma.c ****   {
 1571              		.loc 1 627 0 discriminator 9
 1572 0028 9449     		ldr	r1, .L207+24
 1573 002a 8B42     		cmp	r3, r1
 1574 002c 02D0     		beq	.L201
 627:Drivers/STM32L0xx_HAL_Driver/Src/stm32l0xx_hal_dma.c ****   {
 1575              		.loc 1 627 0
 1576 002e 8021     		movs	r1, #128
 1577 0030 0905     		lsls	r1, r1, #20
 1578 0032 03E0     		b	.L154
 1579              	.L201:
 1580 0034 8021     		movs	r1, #128
 1581 0036 0904     		lsls	r1, r1, #16
 1582 0038 00E0     		b	.L154
 1583              	.L165:
 1584 003a 0821     		movs	r1, #8
 1585              	.L154:
 627:Drivers/STM32L0xx_HAL_Driver/Src/stm32l0xx_hal_dma.c ****   {
 1586              		.loc 1 627 0 discriminator 24
 1587 003c 1142     		tst	r1, r2
 1588 003e 3CD0     		beq	.L155
 629:Drivers/STM32L0xx_HAL_Driver/Src/stm32l0xx_hal_dma.c ****     {
 1589              		.loc 1 629 0 is_stmt 1
 1590 0040 1A68     		ldr	r2, [r3]
 1591 0042 1207     		lsls	r2, r2, #28
 1592 0044 39D5     		bpl	.L155
 632:Drivers/STM32L0xx_HAL_Driver/Src/stm32l0xx_hal_dma.c ****     
 1593              		.loc 1 632 0
ARM GAS  /var/folders/2m/zqg86yyd4hbf56w83tkxjpvr0000gn/T//cclJg58U.s 			page 47


 1594 0046 1A68     		ldr	r2, [r3]
 1595 0048 0821     		movs	r1, #8
 1596 004a 8A43     		bics	r2, r1
 1597 004c 1A60     		str	r2, [r3]
 635:Drivers/STM32L0xx_HAL_Driver/Src/stm32l0xx_hal_dma.c ****     
 1598              		.loc 1 635 0
 1599 004e 2368     		ldr	r3, [r4]
 1600 0050 854A     		ldr	r2, .L207+4
 1601 0052 9342     		cmp	r3, r2
 1602 0054 1FD0     		beq	.L171
 635:Drivers/STM32L0xx_HAL_Driver/Src/stm32l0xx_hal_dma.c ****     
 1603              		.loc 1 635 0 is_stmt 0 discriminator 1
 1604 0056 854A     		ldr	r2, .L207+8
 1605 0058 9342     		cmp	r3, r2
 1606 005a 46D0     		beq	.L172
 635:Drivers/STM32L0xx_HAL_Driver/Src/stm32l0xx_hal_dma.c ****     
 1607              		.loc 1 635 0 discriminator 3
 1608 005c 844A     		ldr	r2, .L207+12
 1609 005e 9342     		cmp	r3, r2
 1610 0060 45D0     		beq	.L173
 635:Drivers/STM32L0xx_HAL_Driver/Src/stm32l0xx_hal_dma.c ****     
 1611              		.loc 1 635 0 discriminator 5
 1612 0062 844A     		ldr	r2, .L207+16
 1613 0064 9342     		cmp	r3, r2
 1614 0066 45D0     		beq	.L174
 635:Drivers/STM32L0xx_HAL_Driver/Src/stm32l0xx_hal_dma.c ****     
 1615              		.loc 1 635 0 discriminator 7
 1616 0068 834A     		ldr	r2, .L207+20
 1617 006a 9342     		cmp	r3, r2
 1618 006c 45D0     		beq	.L175
 635:Drivers/STM32L0xx_HAL_Driver/Src/stm32l0xx_hal_dma.c ****     
 1619              		.loc 1 635 0 discriminator 9
 1620 006e 834A     		ldr	r2, .L207+24
 1621 0070 9342     		cmp	r3, r2
 1622 0072 0DD0     		beq	.L202
 635:Drivers/STM32L0xx_HAL_Driver/Src/stm32l0xx_hal_dma.c ****     
 1623              		.loc 1 635 0
 1624 0074 8022     		movs	r2, #128
 1625 0076 1205     		lsls	r2, r2, #20
 1626 0078 0EE0     		b	.L156
 1627              	.L166:
 627:Drivers/STM32L0xx_HAL_Driver/Src/stm32l0xx_hal_dma.c ****   {
 1628              		.loc 1 627 0 is_stmt 1
 1629 007a 8021     		movs	r1, #128
 1630 007c DEE7     		b	.L154
 1631              	.L167:
 1632 007e 8021     		movs	r1, #128
 1633 0080 0901     		lsls	r1, r1, #4
 1634 0082 DBE7     		b	.L154
 1635              	.L168:
 1636 0084 8021     		movs	r1, #128
 1637 0086 0902     		lsls	r1, r1, #8
 1638 0088 D8E7     		b	.L154
 1639              	.L169:
 1640 008a 8021     		movs	r1, #128
 1641 008c 0903     		lsls	r1, r1, #12
 1642 008e D5E7     		b	.L154
ARM GAS  /var/folders/2m/zqg86yyd4hbf56w83tkxjpvr0000gn/T//cclJg58U.s 			page 48


 1643              	.L202:
 635:Drivers/STM32L0xx_HAL_Driver/Src/stm32l0xx_hal_dma.c ****     
 1644              		.loc 1 635 0
 1645 0090 8022     		movs	r2, #128
 1646 0092 1204     		lsls	r2, r2, #16
 1647 0094 00E0     		b	.L156
 1648              	.L171:
 1649 0096 0822     		movs	r2, #8
 1650              	.L156:
 635:Drivers/STM32L0xx_HAL_Driver/Src/stm32l0xx_hal_dma.c ****     
 1651              		.loc 1 635 0 is_stmt 0 discriminator 24
 1652 0098 724B     		ldr	r3, .L207
 1653 009a 5A60     		str	r2, [r3, #4]
 638:Drivers/STM32L0xx_HAL_Driver/Src/stm32l0xx_hal_dma.c **** 
 1654              		.loc 1 638 0 is_stmt 1 discriminator 24
 1655 009c E36B     		ldr	r3, [r4, #60]
 1656 009e 0122     		movs	r2, #1
 1657 00a0 1343     		orrs	r3, r2
 1658 00a2 E363     		str	r3, [r4, #60]
 641:Drivers/STM32L0xx_HAL_Driver/Src/stm32l0xx_hal_dma.c ****     
 1659              		.loc 1 641 0 discriminator 24
 1660 00a4 2523     		movs	r3, #37
 1661 00a6 0332     		adds	r2, r2, #3
 1662 00a8 E254     		strb	r2, [r4, r3]
 644:Drivers/STM32L0xx_HAL_Driver/Src/stm32l0xx_hal_dma.c ****     
 1663              		.loc 1 644 0 discriminator 24
 1664 00aa 013B     		subs	r3, r3, #1
 1665 00ac 0022     		movs	r2, #0
 1666 00ae E254     		strb	r2, [r4, r3]
 646:Drivers/STM32L0xx_HAL_Driver/Src/stm32l0xx_hal_dma.c ****       {
 1667              		.loc 1 646 0 discriminator 24
 1668 00b0 636B     		ldr	r3, [r4, #52]
 1669 00b2 002B     		cmp	r3, #0
 1670 00b4 01D0     		beq	.L155
 649:Drivers/STM32L0xx_HAL_Driver/Src/stm32l0xx_hal_dma.c ****       }
 1671              		.loc 1 649 0
 1672 00b6 2000     		movs	r0, r4
 1673              	.LVL80:
 1674 00b8 9847     		blx	r3
 1675              	.LVL81:
 1676              	.L155:
 655:Drivers/STM32L0xx_HAL_Driver/Src/stm32l0xx_hal_dma.c ****   {
 1677              		.loc 1 655 0
 1678 00ba 6A4B     		ldr	r3, .L207
 1679 00bc 1A68     		ldr	r2, [r3]
 1680 00be 2368     		ldr	r3, [r4]
 1681 00c0 6949     		ldr	r1, .L207+4
 1682 00c2 8B42     		cmp	r3, r1
 1683 00c4 1FD0     		beq	.L177
 655:Drivers/STM32L0xx_HAL_Driver/Src/stm32l0xx_hal_dma.c ****   {
 1684              		.loc 1 655 0 is_stmt 0 discriminator 1
 1685 00c6 6949     		ldr	r1, .L207+8
 1686 00c8 8B42     		cmp	r3, r1
 1687 00ca 3FD0     		beq	.L178
 655:Drivers/STM32L0xx_HAL_Driver/Src/stm32l0xx_hal_dma.c ****   {
 1688              		.loc 1 655 0 discriminator 3
 1689 00cc 6849     		ldr	r1, .L207+12
ARM GAS  /var/folders/2m/zqg86yyd4hbf56w83tkxjpvr0000gn/T//cclJg58U.s 			page 49


 1690 00ce 8B42     		cmp	r3, r1
 1691 00d0 3ED0     		beq	.L179
 655:Drivers/STM32L0xx_HAL_Driver/Src/stm32l0xx_hal_dma.c ****   {
 1692              		.loc 1 655 0 discriminator 5
 1693 00d2 6849     		ldr	r1, .L207+16
 1694 00d4 8B42     		cmp	r3, r1
 1695 00d6 3ED0     		beq	.L180
 655:Drivers/STM32L0xx_HAL_Driver/Src/stm32l0xx_hal_dma.c ****   {
 1696              		.loc 1 655 0 discriminator 7
 1697 00d8 6749     		ldr	r1, .L207+20
 1698 00da 8B42     		cmp	r3, r1
 1699 00dc 3ED0     		beq	.L181
 655:Drivers/STM32L0xx_HAL_Driver/Src/stm32l0xx_hal_dma.c ****   {
 1700              		.loc 1 655 0 discriminator 9
 1701 00de 6749     		ldr	r1, .L207+24
 1702 00e0 8B42     		cmp	r3, r1
 1703 00e2 0DD0     		beq	.L203
 655:Drivers/STM32L0xx_HAL_Driver/Src/stm32l0xx_hal_dma.c ****   {
 1704              		.loc 1 655 0
 1705 00e4 8021     		movs	r1, #128
 1706 00e6 C904     		lsls	r1, r1, #19
 1707 00e8 0EE0     		b	.L157
 1708              	.LVL82:
 1709              	.L172:
 635:Drivers/STM32L0xx_HAL_Driver/Src/stm32l0xx_hal_dma.c ****     
 1710              		.loc 1 635 0 is_stmt 1
 1711 00ea 8022     		movs	r2, #128
 1712 00ec D4E7     		b	.L156
 1713              	.L173:
 1714 00ee 8022     		movs	r2, #128
 1715 00f0 1201     		lsls	r2, r2, #4
 1716 00f2 D1E7     		b	.L156
 1717              	.L174:
 1718 00f4 8022     		movs	r2, #128
 1719 00f6 1202     		lsls	r2, r2, #8
 1720 00f8 CEE7     		b	.L156
 1721              	.L175:
 1722 00fa 8022     		movs	r2, #128
 1723 00fc 1203     		lsls	r2, r2, #12
 1724 00fe CBE7     		b	.L156
 1725              	.LVL83:
 1726              	.L203:
 655:Drivers/STM32L0xx_HAL_Driver/Src/stm32l0xx_hal_dma.c ****   {
 1727              		.loc 1 655 0
 1728 0100 8021     		movs	r1, #128
 1729 0102 C903     		lsls	r1, r1, #15
 1730 0104 00E0     		b	.L157
 1731              	.L177:
 1732 0106 0421     		movs	r1, #4
 1733              	.L157:
 655:Drivers/STM32L0xx_HAL_Driver/Src/stm32l0xx_hal_dma.c ****   {
 1734              		.loc 1 655 0 is_stmt 0 discriminator 24
 1735 0108 1142     		tst	r1, r2
 1736 010a 38D0     		beq	.L158
 657:Drivers/STM32L0xx_HAL_Driver/Src/stm32l0xx_hal_dma.c ****     { 
 1737              		.loc 1 657 0 is_stmt 1
 1738 010c 1A68     		ldr	r2, [r3]
ARM GAS  /var/folders/2m/zqg86yyd4hbf56w83tkxjpvr0000gn/T//cclJg58U.s 			page 50


 1739 010e 5207     		lsls	r2, r2, #29
 1740 0110 35D5     		bpl	.L158
 660:Drivers/STM32L0xx_HAL_Driver/Src/stm32l0xx_hal_dma.c ****       {
 1741              		.loc 1 660 0
 1742 0112 1A68     		ldr	r2, [r3]
 1743 0114 9206     		lsls	r2, r2, #26
 1744 0116 03D4     		bmi	.L159
 663:Drivers/STM32L0xx_HAL_Driver/Src/stm32l0xx_hal_dma.c ****       }
 1745              		.loc 1 663 0
 1746 0118 1A68     		ldr	r2, [r3]
 1747 011a 0421     		movs	r1, #4
 1748 011c 8A43     		bics	r2, r1
 1749 011e 1A60     		str	r2, [r3]
 1750              	.L159:
 666:Drivers/STM32L0xx_HAL_Driver/Src/stm32l0xx_hal_dma.c **** 
 1751              		.loc 1 666 0
 1752 0120 2368     		ldr	r3, [r4]
 1753 0122 514A     		ldr	r2, .L207+4
 1754 0124 9342     		cmp	r3, r2
 1755 0126 1FD0     		beq	.L183
 666:Drivers/STM32L0xx_HAL_Driver/Src/stm32l0xx_hal_dma.c **** 
 1756              		.loc 1 666 0 is_stmt 0 discriminator 1
 1757 0128 504A     		ldr	r2, .L207+8
 1758 012a 9342     		cmp	r3, r2
 1759 012c 3FD0     		beq	.L184
 666:Drivers/STM32L0xx_HAL_Driver/Src/stm32l0xx_hal_dma.c **** 
 1760              		.loc 1 666 0 discriminator 3
 1761 012e 504A     		ldr	r2, .L207+12
 1762 0130 9342     		cmp	r3, r2
 1763 0132 3ED0     		beq	.L185
 666:Drivers/STM32L0xx_HAL_Driver/Src/stm32l0xx_hal_dma.c **** 
 1764              		.loc 1 666 0 discriminator 5
 1765 0134 4F4A     		ldr	r2, .L207+16
 1766 0136 9342     		cmp	r3, r2
 1767 0138 3ED0     		beq	.L186
 666:Drivers/STM32L0xx_HAL_Driver/Src/stm32l0xx_hal_dma.c **** 
 1768              		.loc 1 666 0 discriminator 7
 1769 013a 4F4A     		ldr	r2, .L207+20
 1770 013c 9342     		cmp	r3, r2
 1771 013e 3ED0     		beq	.L187
 666:Drivers/STM32L0xx_HAL_Driver/Src/stm32l0xx_hal_dma.c **** 
 1772              		.loc 1 666 0 discriminator 9
 1773 0140 4E4A     		ldr	r2, .L207+24
 1774 0142 9342     		cmp	r3, r2
 1775 0144 0DD0     		beq	.L204
 666:Drivers/STM32L0xx_HAL_Driver/Src/stm32l0xx_hal_dma.c **** 
 1776              		.loc 1 666 0
 1777 0146 8022     		movs	r2, #128
 1778 0148 D204     		lsls	r2, r2, #19
 1779 014a 0EE0     		b	.L160
 1780              	.L178:
 655:Drivers/STM32L0xx_HAL_Driver/Src/stm32l0xx_hal_dma.c ****   {
 1781              		.loc 1 655 0 is_stmt 1
 1782 014c 4021     		movs	r1, #64
 1783 014e DBE7     		b	.L157
 1784              	.L179:
 1785 0150 8021     		movs	r1, #128
ARM GAS  /var/folders/2m/zqg86yyd4hbf56w83tkxjpvr0000gn/T//cclJg58U.s 			page 51


 1786 0152 C900     		lsls	r1, r1, #3
 1787 0154 D8E7     		b	.L157
 1788              	.L180:
 1789 0156 8021     		movs	r1, #128
 1790 0158 C901     		lsls	r1, r1, #7
 1791 015a D5E7     		b	.L157
 1792              	.L181:
 1793 015c 8021     		movs	r1, #128
 1794 015e C902     		lsls	r1, r1, #11
 1795 0160 D2E7     		b	.L157
 1796              	.L204:
 666:Drivers/STM32L0xx_HAL_Driver/Src/stm32l0xx_hal_dma.c **** 
 1797              		.loc 1 666 0
 1798 0162 8022     		movs	r2, #128
 1799 0164 D203     		lsls	r2, r2, #15
 1800 0166 00E0     		b	.L160
 1801              	.L183:
 1802 0168 0422     		movs	r2, #4
 1803              	.L160:
 666:Drivers/STM32L0xx_HAL_Driver/Src/stm32l0xx_hal_dma.c **** 
 1804              		.loc 1 666 0 is_stmt 0 discriminator 24
 1805 016a 3E4B     		ldr	r3, .L207
 1806 016c 5A60     		str	r2, [r3, #4]
 669:Drivers/STM32L0xx_HAL_Driver/Src/stm32l0xx_hal_dma.c **** 
 1807              		.loc 1 669 0 is_stmt 1 discriminator 24
 1808 016e 2523     		movs	r3, #37
 1809 0170 0522     		movs	r2, #5
 1810 0172 E254     		strb	r2, [r4, r3]
 671:Drivers/STM32L0xx_HAL_Driver/Src/stm32l0xx_hal_dma.c ****       {
 1811              		.loc 1 671 0 discriminator 24
 1812 0174 236B     		ldr	r3, [r4, #48]
 1813 0176 002B     		cmp	r3, #0
 1814 0178 01D0     		beq	.L158
 674:Drivers/STM32L0xx_HAL_Driver/Src/stm32l0xx_hal_dma.c ****       }
 1815              		.loc 1 674 0
 1816 017a 2000     		movs	r0, r4
 1817 017c 9847     		blx	r3
 1818              	.LVL84:
 1819              	.L158:
 680:Drivers/STM32L0xx_HAL_Driver/Src/stm32l0xx_hal_dma.c ****   {
 1820              		.loc 1 680 0
 1821 017e 394B     		ldr	r3, .L207
 1822 0180 1A68     		ldr	r2, [r3]
 1823 0182 2368     		ldr	r3, [r4]
 1824 0184 3849     		ldr	r1, .L207+4
 1825 0186 8B42     		cmp	r3, r1
 1826 0188 1FD0     		beq	.L189
 680:Drivers/STM32L0xx_HAL_Driver/Src/stm32l0xx_hal_dma.c ****   {
 1827              		.loc 1 680 0 is_stmt 0 discriminator 1
 1828 018a 3849     		ldr	r1, .L207+8
 1829 018c 8B42     		cmp	r3, r1
 1830 018e 3FD0     		beq	.L190
 680:Drivers/STM32L0xx_HAL_Driver/Src/stm32l0xx_hal_dma.c ****   {
 1831              		.loc 1 680 0 discriminator 3
 1832 0190 3749     		ldr	r1, .L207+12
 1833 0192 8B42     		cmp	r3, r1
 1834 0194 3ED0     		beq	.L191
ARM GAS  /var/folders/2m/zqg86yyd4hbf56w83tkxjpvr0000gn/T//cclJg58U.s 			page 52


 680:Drivers/STM32L0xx_HAL_Driver/Src/stm32l0xx_hal_dma.c ****   {
 1835              		.loc 1 680 0 discriminator 5
 1836 0196 3749     		ldr	r1, .L207+16
 1837 0198 8B42     		cmp	r3, r1
 1838 019a 3ED0     		beq	.L192
 680:Drivers/STM32L0xx_HAL_Driver/Src/stm32l0xx_hal_dma.c ****   {
 1839              		.loc 1 680 0 discriminator 7
 1840 019c 3649     		ldr	r1, .L207+20
 1841 019e 8B42     		cmp	r3, r1
 1842 01a0 3ED0     		beq	.L193
 680:Drivers/STM32L0xx_HAL_Driver/Src/stm32l0xx_hal_dma.c ****   {
 1843              		.loc 1 680 0 discriminator 9
 1844 01a2 3649     		ldr	r1, .L207+24
 1845 01a4 8B42     		cmp	r3, r1
 1846 01a6 0DD0     		beq	.L205
 680:Drivers/STM32L0xx_HAL_Driver/Src/stm32l0xx_hal_dma.c ****   {
 1847              		.loc 1 680 0
 1848 01a8 8021     		movs	r1, #128
 1849 01aa 8904     		lsls	r1, r1, #18
 1850 01ac 0EE0     		b	.L161
 1851              	.L184:
 666:Drivers/STM32L0xx_HAL_Driver/Src/stm32l0xx_hal_dma.c **** 
 1852              		.loc 1 666 0 is_stmt 1
 1853 01ae 4022     		movs	r2, #64
 1854 01b0 DBE7     		b	.L160
 1855              	.L185:
 1856 01b2 8022     		movs	r2, #128
 1857 01b4 D200     		lsls	r2, r2, #3
 1858 01b6 D8E7     		b	.L160
 1859              	.L186:
 1860 01b8 8022     		movs	r2, #128
 1861 01ba D201     		lsls	r2, r2, #7
 1862 01bc D5E7     		b	.L160
 1863              	.L187:
 1864 01be 8022     		movs	r2, #128
 1865 01c0 D202     		lsls	r2, r2, #11
 1866 01c2 D2E7     		b	.L160
 1867              	.L205:
 680:Drivers/STM32L0xx_HAL_Driver/Src/stm32l0xx_hal_dma.c ****   {
 1868              		.loc 1 680 0
 1869 01c4 8021     		movs	r1, #128
 1870 01c6 8903     		lsls	r1, r1, #14
 1871 01c8 00E0     		b	.L161
 1872              	.L189:
 1873 01ca 0221     		movs	r1, #2
 1874              	.L161:
 680:Drivers/STM32L0xx_HAL_Driver/Src/stm32l0xx_hal_dma.c ****   {
 1875              		.loc 1 680 0 is_stmt 0 discriminator 24
 1876 01cc 1142     		tst	r1, r2
 1877 01ce 3DD0     		beq	.L153
 682:Drivers/STM32L0xx_HAL_Driver/Src/stm32l0xx_hal_dma.c ****     {
 1878              		.loc 1 682 0 is_stmt 1
 1879 01d0 1A68     		ldr	r2, [r3]
 1880 01d2 9207     		lsls	r2, r2, #30
 1881 01d4 3AD5     		bpl	.L153
 684:Drivers/STM32L0xx_HAL_Driver/Src/stm32l0xx_hal_dma.c ****       {
 1882              		.loc 1 684 0
ARM GAS  /var/folders/2m/zqg86yyd4hbf56w83tkxjpvr0000gn/T//cclJg58U.s 			page 53


 1883 01d6 1A68     		ldr	r2, [r3]
 1884 01d8 9206     		lsls	r2, r2, #26
 1885 01da 03D4     		bmi	.L163
 687:Drivers/STM32L0xx_HAL_Driver/Src/stm32l0xx_hal_dma.c ****       }
 1886              		.loc 1 687 0
 1887 01dc 1A68     		ldr	r2, [r3]
 1888 01de 0221     		movs	r1, #2
 1889 01e0 8A43     		bics	r2, r1
 1890 01e2 1A60     		str	r2, [r3]
 1891              	.L163:
 690:Drivers/STM32L0xx_HAL_Driver/Src/stm32l0xx_hal_dma.c ****     
 1892              		.loc 1 690 0
 1893 01e4 2368     		ldr	r3, [r4]
 1894 01e6 204A     		ldr	r2, .L207+4
 1895 01e8 9342     		cmp	r3, r2
 1896 01ea 1FD0     		beq	.L195
 690:Drivers/STM32L0xx_HAL_Driver/Src/stm32l0xx_hal_dma.c ****     
 1897              		.loc 1 690 0 is_stmt 0 discriminator 1
 1898 01ec 1F4A     		ldr	r2, .L207+8
 1899 01ee 9342     		cmp	r3, r2
 1900 01f0 2DD0     		beq	.L196
 690:Drivers/STM32L0xx_HAL_Driver/Src/stm32l0xx_hal_dma.c ****     
 1901              		.loc 1 690 0 discriminator 3
 1902 01f2 1F4A     		ldr	r2, .L207+12
 1903 01f4 9342     		cmp	r3, r2
 1904 01f6 2CD0     		beq	.L197
 690:Drivers/STM32L0xx_HAL_Driver/Src/stm32l0xx_hal_dma.c ****     
 1905              		.loc 1 690 0 discriminator 5
 1906 01f8 1E4A     		ldr	r2, .L207+16
 1907 01fa 9342     		cmp	r3, r2
 1908 01fc 2CD0     		beq	.L198
 690:Drivers/STM32L0xx_HAL_Driver/Src/stm32l0xx_hal_dma.c ****     
 1909              		.loc 1 690 0 discriminator 7
 1910 01fe 1E4A     		ldr	r2, .L207+20
 1911 0200 9342     		cmp	r3, r2
 1912 0202 2CD0     		beq	.L199
 690:Drivers/STM32L0xx_HAL_Driver/Src/stm32l0xx_hal_dma.c ****     
 1913              		.loc 1 690 0 discriminator 9
 1914 0204 1D4A     		ldr	r2, .L207+24
 1915 0206 9342     		cmp	r3, r2
 1916 0208 0DD0     		beq	.L206
 690:Drivers/STM32L0xx_HAL_Driver/Src/stm32l0xx_hal_dma.c ****     
 1917              		.loc 1 690 0
 1918 020a 8022     		movs	r2, #128
 1919 020c 9204     		lsls	r2, r2, #18
 1920 020e 0EE0     		b	.L164
 1921              	.L190:
 680:Drivers/STM32L0xx_HAL_Driver/Src/stm32l0xx_hal_dma.c ****   {
 1922              		.loc 1 680 0 is_stmt 1
 1923 0210 2021     		movs	r1, #32
 1924 0212 DBE7     		b	.L161
 1925              	.L191:
 1926 0214 8021     		movs	r1, #128
 1927 0216 8900     		lsls	r1, r1, #2
 1928 0218 D8E7     		b	.L161
 1929              	.L192:
 1930 021a 8021     		movs	r1, #128
ARM GAS  /var/folders/2m/zqg86yyd4hbf56w83tkxjpvr0000gn/T//cclJg58U.s 			page 54


 1931 021c 8901     		lsls	r1, r1, #6
 1932 021e D5E7     		b	.L161
 1933              	.L193:
 1934 0220 8021     		movs	r1, #128
 1935 0222 8902     		lsls	r1, r1, #10
 1936 0224 D2E7     		b	.L161
 1937              	.L206:
 690:Drivers/STM32L0xx_HAL_Driver/Src/stm32l0xx_hal_dma.c ****     
 1938              		.loc 1 690 0
 1939 0226 8022     		movs	r2, #128
 1940 0228 9203     		lsls	r2, r2, #14
 1941 022a 00E0     		b	.L164
 1942              	.L195:
 1943 022c 0222     		movs	r2, #2
 1944              	.L164:
 690:Drivers/STM32L0xx_HAL_Driver/Src/stm32l0xx_hal_dma.c ****     
 1945              		.loc 1 690 0 is_stmt 0 discriminator 24
 1946 022e 0D4B     		ldr	r3, .L207
 1947 0230 5A60     		str	r2, [r3, #4]
 693:Drivers/STM32L0xx_HAL_Driver/Src/stm32l0xx_hal_dma.c **** 
 1948              		.loc 1 693 0 is_stmt 1 discriminator 24
 1949 0232 E36B     		ldr	r3, [r4, #60]
 1950 0234 E363     		str	r3, [r4, #60]
 696:Drivers/STM32L0xx_HAL_Driver/Src/stm32l0xx_hal_dma.c ****     
 1951              		.loc 1 696 0 discriminator 24
 1952 0236 2523     		movs	r3, #37
 1953 0238 0122     		movs	r2, #1
 1954 023a E254     		strb	r2, [r4, r3]
 699:Drivers/STM32L0xx_HAL_Driver/Src/stm32l0xx_hal_dma.c ****     
 1955              		.loc 1 699 0 discriminator 24
 1956 023c 013B     		subs	r3, r3, #1
 1957 023e 0022     		movs	r2, #0
 1958 0240 E254     		strb	r2, [r4, r3]
 701:Drivers/STM32L0xx_HAL_Driver/Src/stm32l0xx_hal_dma.c ****       {       
 1959              		.loc 1 701 0 discriminator 24
 1960 0242 E36A     		ldr	r3, [r4, #44]
 1961 0244 002B     		cmp	r3, #0
 1962 0246 01D0     		beq	.L153
 704:Drivers/STM32L0xx_HAL_Driver/Src/stm32l0xx_hal_dma.c ****       }
 1963              		.loc 1 704 0
 1964 0248 2000     		movs	r0, r4
 1965 024a 9847     		blx	r3
 1966              	.LVL85:
 1967              	.L153:
 708:Drivers/STM32L0xx_HAL_Driver/Src/stm32l0xx_hal_dma.c **** 
 1968              		.loc 1 708 0
 1969              		@ sp needed
 1970              	.LVL86:
 1971 024c 10BD     		pop	{r4, pc}
 1972              	.LVL87:
 1973              	.L196:
 690:Drivers/STM32L0xx_HAL_Driver/Src/stm32l0xx_hal_dma.c ****     
 1974              		.loc 1 690 0
 1975 024e 2022     		movs	r2, #32
 1976 0250 EDE7     		b	.L164
 1977              	.L197:
 1978 0252 8022     		movs	r2, #128
ARM GAS  /var/folders/2m/zqg86yyd4hbf56w83tkxjpvr0000gn/T//cclJg58U.s 			page 55


 1979 0254 9200     		lsls	r2, r2, #2
 1980 0256 EAE7     		b	.L164
 1981              	.L198:
 1982 0258 8022     		movs	r2, #128
 1983 025a 9201     		lsls	r2, r2, #6
 1984 025c E7E7     		b	.L164
 1985              	.L199:
 1986 025e 8022     		movs	r2, #128
 1987 0260 9202     		lsls	r2, r2, #10
 1988 0262 E4E7     		b	.L164
 1989              	.L208:
 1990              		.align	2
 1991              	.L207:
 1992 0264 00000240 		.word	1073872896
 1993 0268 08000240 		.word	1073872904
 1994 026c 1C000240 		.word	1073872924
 1995 0270 30000240 		.word	1073872944
 1996 0274 44000240 		.word	1073872964
 1997 0278 58000240 		.word	1073872984
 1998 027c 6C000240 		.word	1073873004
 1999              		.cfi_endproc
 2000              	.LFE46:
 2002              		.section	.text.HAL_DMA_GetState,"ax",%progbits
 2003              		.align	1
 2004              		.global	HAL_DMA_GetState
 2005              		.syntax unified
 2006              		.code	16
 2007              		.thumb_func
 2008              		.fpu softvfp
 2010              	HAL_DMA_GetState:
 2011              	.LFB47:
 737:Drivers/STM32L0xx_HAL_Driver/Src/stm32l0xx_hal_dma.c ****   return hdma->State;
 2012              		.loc 1 737 0
 2013              		.cfi_startproc
 2014              		@ args = 0, pretend = 0, frame = 0
 2015              		@ frame_needed = 0, uses_anonymous_args = 0
 2016              		@ link register save eliminated.
 2017              	.LVL88:
 738:Drivers/STM32L0xx_HAL_Driver/Src/stm32l0xx_hal_dma.c **** }
 2018              		.loc 1 738 0
 2019 0000 2523     		movs	r3, #37
 2020 0002 C05C     		ldrb	r0, [r0, r3]
 2021              	.LVL89:
 2022 0004 C0B2     		uxtb	r0, r0
 739:Drivers/STM32L0xx_HAL_Driver/Src/stm32l0xx_hal_dma.c **** 
 2023              		.loc 1 739 0
 2024              		@ sp needed
 2025 0006 7047     		bx	lr
 2026              		.cfi_endproc
 2027              	.LFE47:
 2029              		.section	.text.HAL_DMA_GetError,"ax",%progbits
 2030              		.align	1
 2031              		.global	HAL_DMA_GetError
 2032              		.syntax unified
 2033              		.code	16
 2034              		.thumb_func
 2035              		.fpu softvfp
ARM GAS  /var/folders/2m/zqg86yyd4hbf56w83tkxjpvr0000gn/T//cclJg58U.s 			page 56


 2037              	HAL_DMA_GetError:
 2038              	.LFB48:
 748:Drivers/STM32L0xx_HAL_Driver/Src/stm32l0xx_hal_dma.c ****   return hdma->ErrorCode;
 2039              		.loc 1 748 0
 2040              		.cfi_startproc
 2041              		@ args = 0, pretend = 0, frame = 0
 2042              		@ frame_needed = 0, uses_anonymous_args = 0
 2043              		@ link register save eliminated.
 2044              	.LVL90:
 749:Drivers/STM32L0xx_HAL_Driver/Src/stm32l0xx_hal_dma.c **** }
 2045              		.loc 1 749 0
 2046 0000 C06B     		ldr	r0, [r0, #60]
 2047              	.LVL91:
 750:Drivers/STM32L0xx_HAL_Driver/Src/stm32l0xx_hal_dma.c **** 
 2048              		.loc 1 750 0
 2049              		@ sp needed
 2050 0002 7047     		bx	lr
 2051              		.cfi_endproc
 2052              	.LFE48:
 2054              		.text
 2055              	.Letext0:
 2056              		.file 2 "/opt/gcc-arm-none-eabi-7-2017-q4-major/arm-none-eabi/include/machine/_default_types.h"
 2057              		.file 3 "/opt/gcc-arm-none-eabi-7-2017-q4-major/arm-none-eabi/include/sys/_stdint.h"
 2058              		.file 4 "Drivers/CMSIS/Device/ST/STM32L0xx/Include/system_stm32l0xx.h"
 2059              		.file 5 "Drivers/CMSIS/Device/ST/STM32L0xx/Include/stm32l072xx.h"
 2060              		.file 6 "/opt/gcc-arm-none-eabi-7-2017-q4-major/arm-none-eabi/include/sys/lock.h"
 2061              		.file 7 "/opt/gcc-arm-none-eabi-7-2017-q4-major/arm-none-eabi/include/sys/_types.h"
 2062              		.file 8 "/opt/gcc-arm-none-eabi-7-2017-q4-major/lib/gcc/arm-none-eabi/7.2.1/include/stddef.h"
 2063              		.file 9 "/opt/gcc-arm-none-eabi-7-2017-q4-major/arm-none-eabi/include/sys/reent.h"
 2064              		.file 10 "Drivers/CMSIS/Device/ST/STM32L0xx/Include/stm32l0xx.h"
 2065              		.file 11 "Drivers/STM32L0xx_HAL_Driver/Inc/stm32l0xx_hal_def.h"
 2066              		.file 12 "Drivers/STM32L0xx_HAL_Driver/Inc/stm32l0xx_hal_dma.h"
 2067              		.file 13 "Drivers/STM32L0xx_HAL_Driver/Inc/stm32l0xx_hal.h"
ARM GAS  /var/folders/2m/zqg86yyd4hbf56w83tkxjpvr0000gn/T//cclJg58U.s 			page 57

