ARM GAS  /var/folders/2m/zqg86yyd4hbf56w83tkxjpvr0000gn/T//ccRNesxV.s 			page 1


   1              		.cpu cortex-m0plus
   2              		.eabi_attribute 20, 1
   3              		.eabi_attribute 21, 1
   4              		.eabi_attribute 23, 3
   5              		.eabi_attribute 24, 1
   6              		.eabi_attribute 25, 1
   7              		.eabi_attribute 26, 1
   8              		.eabi_attribute 30, 1
   9              		.eabi_attribute 34, 0
  10              		.eabi_attribute 18, 4
  11              		.file	"sx1276.c"
  12              		.text
  13              	.Ltext0:
  14              		.cfi_sections	.debug_frame
  15              		.section	.text.GetFskBandwidthRegValue,"ax",%progbits
  16              		.align	1
  17              		.syntax unified
  18              		.code	16
  19              		.thumb_func
  20              		.fpu softvfp
  22              	GetFskBandwidthRegValue:
  23              	.LFB47:
  24              		.file 1 "Drivers/BSP/Components/sx1276/sx1276.c"
   1:Drivers/BSP/Components/sx1276/sx1276.c **** /*!
   2:Drivers/BSP/Components/sx1276/sx1276.c ****  * \file      sx1276.c
   3:Drivers/BSP/Components/sx1276/sx1276.c ****  *
   4:Drivers/BSP/Components/sx1276/sx1276.c ****  * \brief     SX1276 driver implementation
   5:Drivers/BSP/Components/sx1276/sx1276.c ****  *
   6:Drivers/BSP/Components/sx1276/sx1276.c ****  * \copyright Revised BSD License, see section \ref LICENSE.
   7:Drivers/BSP/Components/sx1276/sx1276.c ****  *
   8:Drivers/BSP/Components/sx1276/sx1276.c ****  * \code
   9:Drivers/BSP/Components/sx1276/sx1276.c ****  *                ______                              _
  10:Drivers/BSP/Components/sx1276/sx1276.c ****  *               / _____)             _              | |
  11:Drivers/BSP/Components/sx1276/sx1276.c ****  *              ( (____  _____ ____ _| |_ _____  ____| |__
  12:Drivers/BSP/Components/sx1276/sx1276.c ****  *               \____ \| ___ |    (_   _) ___ |/ ___)  _ \
  13:Drivers/BSP/Components/sx1276/sx1276.c ****  *               _____) ) ____| | | || |_| ____( (___| | | |
  14:Drivers/BSP/Components/sx1276/sx1276.c ****  *              (______/|_____)_|_|_| \__)_____)\____)_| |_|
  15:Drivers/BSP/Components/sx1276/sx1276.c ****  *              (C)2013-2017 Semtech
  16:Drivers/BSP/Components/sx1276/sx1276.c ****  *
  17:Drivers/BSP/Components/sx1276/sx1276.c ****  * \endcode
  18:Drivers/BSP/Components/sx1276/sx1276.c ****  *
  19:Drivers/BSP/Components/sx1276/sx1276.c ****  * \author    Miguel Luis ( Semtech )
  20:Drivers/BSP/Components/sx1276/sx1276.c ****  *
  21:Drivers/BSP/Components/sx1276/sx1276.c ****  * \author    Gregory Cristian ( Semtech )
  22:Drivers/BSP/Components/sx1276/sx1276.c ****  *
  23:Drivers/BSP/Components/sx1276/sx1276.c ****  * \author    Wael Guibene ( Semtech )
  24:Drivers/BSP/Components/sx1276/sx1276.c ****  */
  25:Drivers/BSP/Components/sx1276/sx1276.c ****  /*******************************************************************************
  26:Drivers/BSP/Components/sx1276/sx1276.c ****   * @file    sx1276.c
  27:Drivers/BSP/Components/sx1276/sx1276.c ****   * @author  MCD Application Team
  28:Drivers/BSP/Components/sx1276/sx1276.c ****   * @version V1.0.2
  29:Drivers/BSP/Components/sx1276/sx1276.c ****   * @date    30-March-2018
  30:Drivers/BSP/Components/sx1276/sx1276.c ****   * @brief   driver sx1276
  31:Drivers/BSP/Components/sx1276/sx1276.c ****   ******************************************************************************
  32:Drivers/BSP/Components/sx1276/sx1276.c ****   * @attention
  33:Drivers/BSP/Components/sx1276/sx1276.c ****   *
  34:Drivers/BSP/Components/sx1276/sx1276.c ****   * <h2><center>&copy; COPYRIGHT(c) 2017 STMicroelectronics</center></h2>
ARM GAS  /var/folders/2m/zqg86yyd4hbf56w83tkxjpvr0000gn/T//ccRNesxV.s 			page 2


  35:Drivers/BSP/Components/sx1276/sx1276.c ****   *
  36:Drivers/BSP/Components/sx1276/sx1276.c ****   * Redistribution and use in source and binary forms, with or without modification,
  37:Drivers/BSP/Components/sx1276/sx1276.c ****   * are permitted provided that the following conditions are met:
  38:Drivers/BSP/Components/sx1276/sx1276.c ****   *   1. Redistributions of source code must retain the above copyright notice,
  39:Drivers/BSP/Components/sx1276/sx1276.c ****   *      this list of conditions and the following disclaimer.
  40:Drivers/BSP/Components/sx1276/sx1276.c ****   *   2. Redistributions in binary form must reproduce the above copyright notice,
  41:Drivers/BSP/Components/sx1276/sx1276.c ****   *      this list of conditions and the following disclaimer in the documentation
  42:Drivers/BSP/Components/sx1276/sx1276.c ****   *      and/or other materials provided with the distribution.
  43:Drivers/BSP/Components/sx1276/sx1276.c ****   *   3. Neither the name of STMicroelectronics nor the names of its contributors
  44:Drivers/BSP/Components/sx1276/sx1276.c ****   *      may be used to endorse or promote products derived from this software
  45:Drivers/BSP/Components/sx1276/sx1276.c ****   *      without specific prior written permission.
  46:Drivers/BSP/Components/sx1276/sx1276.c ****   *
  47:Drivers/BSP/Components/sx1276/sx1276.c ****   * THIS SOFTWARE IS PROVIDED BY THE COPYRIGHT HOLDERS AND CONTRIBUTORS "AS IS"
  48:Drivers/BSP/Components/sx1276/sx1276.c ****   * AND ANY EXPRESS OR IMPLIED WARRANTIES, INCLUDING, BUT NOT LIMITED TO, THE
  49:Drivers/BSP/Components/sx1276/sx1276.c ****   * IMPLIED WARRANTIES OF MERCHANTABILITY AND FITNESS FOR A PARTICULAR PURPOSE ARE
  50:Drivers/BSP/Components/sx1276/sx1276.c ****   * DISCLAIMED. IN NO EVENT SHALL THE COPYRIGHT HOLDER OR CONTRIBUTORS BE LIABLE
  51:Drivers/BSP/Components/sx1276/sx1276.c ****   * FOR ANY DIRECT, INDIRECT, INCIDENTAL, SPECIAL, EXEMPLARY, OR CONSEQUENTIAL
  52:Drivers/BSP/Components/sx1276/sx1276.c ****   * DAMAGES (INCLUDING, BUT NOT LIMITED TO, PROCUREMENT OF SUBSTITUTE GOODS OR
  53:Drivers/BSP/Components/sx1276/sx1276.c ****   * SERVICES; LOSS OF USE, DATA, OR PROFITS; OR BUSINESS INTERRUPTION) HOWEVER
  54:Drivers/BSP/Components/sx1276/sx1276.c ****   * CAUSED AND ON ANY THEORY OF LIABILITY, WHETHER IN CONTRACT, STRICT LIABILITY,
  55:Drivers/BSP/Components/sx1276/sx1276.c ****   * OR TORT (INCLUDING NEGLIGENCE OR OTHERWISE) ARISING IN ANY WAY OUT OF THE USE
  56:Drivers/BSP/Components/sx1276/sx1276.c ****   * OF THIS SOFTWARE, EVEN IF ADVISED OF THE POSSIBILITY OF SUCH DAMAGE.
  57:Drivers/BSP/Components/sx1276/sx1276.c ****   *
  58:Drivers/BSP/Components/sx1276/sx1276.c ****   ******************************************************************************
  59:Drivers/BSP/Components/sx1276/sx1276.c ****   */
  60:Drivers/BSP/Components/sx1276/sx1276.c ****   
  61:Drivers/BSP/Components/sx1276/sx1276.c **** /* Includes ------------------------------------------------------------------*/
  62:Drivers/BSP/Components/sx1276/sx1276.c **** #include "hw.h"
  63:Drivers/BSP/Components/sx1276/sx1276.c **** #include "radio.h"
  64:Drivers/BSP/Components/sx1276/sx1276.c **** #include "sx1276.h"
  65:Drivers/BSP/Components/sx1276/sx1276.c **** #include "timeServer.h"
  66:Drivers/BSP/Components/sx1276/sx1276.c **** #include "delay.h"
  67:Drivers/BSP/Components/sx1276/sx1276.c **** 
  68:Drivers/BSP/Components/sx1276/sx1276.c **** /*
  69:Drivers/BSP/Components/sx1276/sx1276.c ****  * Local types definition
  70:Drivers/BSP/Components/sx1276/sx1276.c ****  */
  71:Drivers/BSP/Components/sx1276/sx1276.c **** 
  72:Drivers/BSP/Components/sx1276/sx1276.c **** /*!
  73:Drivers/BSP/Components/sx1276/sx1276.c ****  * Radio registers definition
  74:Drivers/BSP/Components/sx1276/sx1276.c ****  */
  75:Drivers/BSP/Components/sx1276/sx1276.c **** typedef struct
  76:Drivers/BSP/Components/sx1276/sx1276.c **** {
  77:Drivers/BSP/Components/sx1276/sx1276.c ****     RadioModems_t Modem;
  78:Drivers/BSP/Components/sx1276/sx1276.c ****     uint8_t       Addr;
  79:Drivers/BSP/Components/sx1276/sx1276.c ****     uint8_t       Value;
  80:Drivers/BSP/Components/sx1276/sx1276.c **** }RadioRegisters_t;
  81:Drivers/BSP/Components/sx1276/sx1276.c **** 
  82:Drivers/BSP/Components/sx1276/sx1276.c **** /*!
  83:Drivers/BSP/Components/sx1276/sx1276.c ****  * FSK bandwidth definition
  84:Drivers/BSP/Components/sx1276/sx1276.c ****  */
  85:Drivers/BSP/Components/sx1276/sx1276.c **** typedef struct
  86:Drivers/BSP/Components/sx1276/sx1276.c **** {
  87:Drivers/BSP/Components/sx1276/sx1276.c ****     uint32_t bandwidth;
  88:Drivers/BSP/Components/sx1276/sx1276.c ****     uint8_t  RegValue;
  89:Drivers/BSP/Components/sx1276/sx1276.c **** }FskBandwidth_t;
  90:Drivers/BSP/Components/sx1276/sx1276.c **** 
  91:Drivers/BSP/Components/sx1276/sx1276.c **** 
ARM GAS  /var/folders/2m/zqg86yyd4hbf56w83tkxjpvr0000gn/T//ccRNesxV.s 			page 3


  92:Drivers/BSP/Components/sx1276/sx1276.c **** /*
  93:Drivers/BSP/Components/sx1276/sx1276.c ****  * Private functions prototypes
  94:Drivers/BSP/Components/sx1276/sx1276.c ****  */
  95:Drivers/BSP/Components/sx1276/sx1276.c **** 
  96:Drivers/BSP/Components/sx1276/sx1276.c **** 
  97:Drivers/BSP/Components/sx1276/sx1276.c **** /*!
  98:Drivers/BSP/Components/sx1276/sx1276.c ****  * \brief Sets the SX1276 in transmission mode for the given time
  99:Drivers/BSP/Components/sx1276/sx1276.c ****  * \param [IN] timeout Transmission timeout [ms] [0: continuous, others timeout]
 100:Drivers/BSP/Components/sx1276/sx1276.c ****  */
 101:Drivers/BSP/Components/sx1276/sx1276.c **** void SX1276SetTx( uint32_t timeout );
 102:Drivers/BSP/Components/sx1276/sx1276.c **** 
 103:Drivers/BSP/Components/sx1276/sx1276.c **** /*!
 104:Drivers/BSP/Components/sx1276/sx1276.c ****  * \brief Writes the buffer contents to the SX1276 FIFO
 105:Drivers/BSP/Components/sx1276/sx1276.c ****  *
 106:Drivers/BSP/Components/sx1276/sx1276.c ****  * \param [IN] buffer Buffer containing data to be put on the FIFO.
 107:Drivers/BSP/Components/sx1276/sx1276.c ****  * \param [IN] size Number of bytes to be written to the FIFO
 108:Drivers/BSP/Components/sx1276/sx1276.c ****  */
 109:Drivers/BSP/Components/sx1276/sx1276.c **** void SX1276WriteFifo( uint8_t *buffer, uint8_t size );
 110:Drivers/BSP/Components/sx1276/sx1276.c **** 
 111:Drivers/BSP/Components/sx1276/sx1276.c **** /*!
 112:Drivers/BSP/Components/sx1276/sx1276.c ****  * \brief Reads the contents of the SX1276 FIFO
 113:Drivers/BSP/Components/sx1276/sx1276.c ****  *
 114:Drivers/BSP/Components/sx1276/sx1276.c ****  * \param [OUT] buffer Buffer where to copy the FIFO read data.
 115:Drivers/BSP/Components/sx1276/sx1276.c ****  * \param [IN] size Number of bytes to be read from the FIFO
 116:Drivers/BSP/Components/sx1276/sx1276.c ****  */
 117:Drivers/BSP/Components/sx1276/sx1276.c **** void SX1276ReadFifo( uint8_t *buffer, uint8_t size );
 118:Drivers/BSP/Components/sx1276/sx1276.c **** 
 119:Drivers/BSP/Components/sx1276/sx1276.c **** /*!
 120:Drivers/BSP/Components/sx1276/sx1276.c ****  * \brief Sets the SX1276 operating mode
 121:Drivers/BSP/Components/sx1276/sx1276.c ****  *
 122:Drivers/BSP/Components/sx1276/sx1276.c ****  * \param [IN] opMode New operating mode
 123:Drivers/BSP/Components/sx1276/sx1276.c ****  */
 124:Drivers/BSP/Components/sx1276/sx1276.c **** void SX1276SetOpMode( uint8_t opMode );
 125:Drivers/BSP/Components/sx1276/sx1276.c **** 
 126:Drivers/BSP/Components/sx1276/sx1276.c **** /*
 127:Drivers/BSP/Components/sx1276/sx1276.c ****  * SX1276 DIO IRQ callback functions prototype
 128:Drivers/BSP/Components/sx1276/sx1276.c ****  */
 129:Drivers/BSP/Components/sx1276/sx1276.c **** 
 130:Drivers/BSP/Components/sx1276/sx1276.c **** /*!
 131:Drivers/BSP/Components/sx1276/sx1276.c ****  * \brief DIO 0 IRQ callback
 132:Drivers/BSP/Components/sx1276/sx1276.c ****  */
 133:Drivers/BSP/Components/sx1276/sx1276.c **** void SX1276OnDio0Irq( void );
 134:Drivers/BSP/Components/sx1276/sx1276.c **** 
 135:Drivers/BSP/Components/sx1276/sx1276.c **** /*!
 136:Drivers/BSP/Components/sx1276/sx1276.c ****  * \brief DIO 1 IRQ callback
 137:Drivers/BSP/Components/sx1276/sx1276.c ****  */
 138:Drivers/BSP/Components/sx1276/sx1276.c **** void SX1276OnDio1Irq( void );
 139:Drivers/BSP/Components/sx1276/sx1276.c **** 
 140:Drivers/BSP/Components/sx1276/sx1276.c **** /*!
 141:Drivers/BSP/Components/sx1276/sx1276.c ****  * \brief DIO 2 IRQ callback
 142:Drivers/BSP/Components/sx1276/sx1276.c ****  */
 143:Drivers/BSP/Components/sx1276/sx1276.c **** void SX1276OnDio2Irq( void );
 144:Drivers/BSP/Components/sx1276/sx1276.c **** 
 145:Drivers/BSP/Components/sx1276/sx1276.c **** /*!
 146:Drivers/BSP/Components/sx1276/sx1276.c ****  * \brief DIO 3 IRQ callback
 147:Drivers/BSP/Components/sx1276/sx1276.c ****  */
 148:Drivers/BSP/Components/sx1276/sx1276.c **** void SX1276OnDio3Irq( void );
ARM GAS  /var/folders/2m/zqg86yyd4hbf56w83tkxjpvr0000gn/T//ccRNesxV.s 			page 4


 149:Drivers/BSP/Components/sx1276/sx1276.c **** 
 150:Drivers/BSP/Components/sx1276/sx1276.c **** /*!
 151:Drivers/BSP/Components/sx1276/sx1276.c ****  * \brief DIO 4 IRQ callback
 152:Drivers/BSP/Components/sx1276/sx1276.c ****  */
 153:Drivers/BSP/Components/sx1276/sx1276.c **** void SX1276OnDio4Irq( void );
 154:Drivers/BSP/Components/sx1276/sx1276.c **** 
 155:Drivers/BSP/Components/sx1276/sx1276.c **** /*!
 156:Drivers/BSP/Components/sx1276/sx1276.c ****  * \brief DIO 5 IRQ callback
 157:Drivers/BSP/Components/sx1276/sx1276.c ****  */
 158:Drivers/BSP/Components/sx1276/sx1276.c **** void SX1276OnDio5Irq( void );
 159:Drivers/BSP/Components/sx1276/sx1276.c **** 
 160:Drivers/BSP/Components/sx1276/sx1276.c **** /*!
 161:Drivers/BSP/Components/sx1276/sx1276.c ****  * \brief Tx & Rx timeout timer callback
 162:Drivers/BSP/Components/sx1276/sx1276.c ****  */
 163:Drivers/BSP/Components/sx1276/sx1276.c **** void SX1276OnTimeoutIrq( void );
 164:Drivers/BSP/Components/sx1276/sx1276.c **** 
 165:Drivers/BSP/Components/sx1276/sx1276.c **** /*
 166:Drivers/BSP/Components/sx1276/sx1276.c ****  * Private global constants
 167:Drivers/BSP/Components/sx1276/sx1276.c ****  */
 168:Drivers/BSP/Components/sx1276/sx1276.c **** 
 169:Drivers/BSP/Components/sx1276/sx1276.c **** /*!
 170:Drivers/BSP/Components/sx1276/sx1276.c ****  * Radio hardware registers initialization
 171:Drivers/BSP/Components/sx1276/sx1276.c ****  *
 172:Drivers/BSP/Components/sx1276/sx1276.c ****  * \remark RADIO_INIT_REGISTERS_VALUE is defined in sx1276-board.h file
 173:Drivers/BSP/Components/sx1276/sx1276.c ****  */
 174:Drivers/BSP/Components/sx1276/sx1276.c **** const RadioRegisters_t RadioRegsInit[] = RADIO_INIT_REGISTERS_VALUE;
 175:Drivers/BSP/Components/sx1276/sx1276.c **** 
 176:Drivers/BSP/Components/sx1276/sx1276.c **** /*!
 177:Drivers/BSP/Components/sx1276/sx1276.c ****  * Constant values need to compute the RSSI value
 178:Drivers/BSP/Components/sx1276/sx1276.c ****  */
 179:Drivers/BSP/Components/sx1276/sx1276.c **** #define RSSI_OFFSET_LF                              -164
 180:Drivers/BSP/Components/sx1276/sx1276.c **** #define RSSI_OFFSET_HF                              -157
 181:Drivers/BSP/Components/sx1276/sx1276.c **** 
 182:Drivers/BSP/Components/sx1276/sx1276.c **** /*!
 183:Drivers/BSP/Components/sx1276/sx1276.c ****  * Precomputed FSK bandwidth registers values
 184:Drivers/BSP/Components/sx1276/sx1276.c ****  */
 185:Drivers/BSP/Components/sx1276/sx1276.c **** const FskBandwidth_t FskBandwidths[] =
 186:Drivers/BSP/Components/sx1276/sx1276.c **** {
 187:Drivers/BSP/Components/sx1276/sx1276.c ****     { 2600  , 0x17 },
 188:Drivers/BSP/Components/sx1276/sx1276.c ****     { 3100  , 0x0F },
 189:Drivers/BSP/Components/sx1276/sx1276.c ****     { 3900  , 0x07 },
 190:Drivers/BSP/Components/sx1276/sx1276.c ****     { 5200  , 0x16 },
 191:Drivers/BSP/Components/sx1276/sx1276.c ****     { 6300  , 0x0E },
 192:Drivers/BSP/Components/sx1276/sx1276.c ****     { 7800  , 0x06 },
 193:Drivers/BSP/Components/sx1276/sx1276.c ****     { 10400 , 0x15 },
 194:Drivers/BSP/Components/sx1276/sx1276.c ****     { 12500 , 0x0D },
 195:Drivers/BSP/Components/sx1276/sx1276.c ****     { 15600 , 0x05 },
 196:Drivers/BSP/Components/sx1276/sx1276.c ****     { 20800 , 0x14 },
 197:Drivers/BSP/Components/sx1276/sx1276.c ****     { 25000 , 0x0C },
 198:Drivers/BSP/Components/sx1276/sx1276.c ****     { 31300 , 0x04 },
 199:Drivers/BSP/Components/sx1276/sx1276.c ****     { 41700 , 0x13 },
 200:Drivers/BSP/Components/sx1276/sx1276.c ****     { 50000 , 0x0B },
 201:Drivers/BSP/Components/sx1276/sx1276.c ****     { 62500 , 0x03 },
 202:Drivers/BSP/Components/sx1276/sx1276.c ****     { 83333 , 0x12 },
 203:Drivers/BSP/Components/sx1276/sx1276.c ****     { 100000, 0x0A },
 204:Drivers/BSP/Components/sx1276/sx1276.c ****     { 125000, 0x02 },
 205:Drivers/BSP/Components/sx1276/sx1276.c ****     { 166700, 0x11 },
ARM GAS  /var/folders/2m/zqg86yyd4hbf56w83tkxjpvr0000gn/T//ccRNesxV.s 			page 5


 206:Drivers/BSP/Components/sx1276/sx1276.c ****     { 200000, 0x09 },
 207:Drivers/BSP/Components/sx1276/sx1276.c ****     { 250000, 0x01 },
 208:Drivers/BSP/Components/sx1276/sx1276.c ****     { 300000, 0x00 }, // Invalid Bandwidth
 209:Drivers/BSP/Components/sx1276/sx1276.c **** };
 210:Drivers/BSP/Components/sx1276/sx1276.c **** 
 211:Drivers/BSP/Components/sx1276/sx1276.c **** /*
 212:Drivers/BSP/Components/sx1276/sx1276.c ****  * Private global variables
 213:Drivers/BSP/Components/sx1276/sx1276.c ****  */
 214:Drivers/BSP/Components/sx1276/sx1276.c **** 
 215:Drivers/BSP/Components/sx1276/sx1276.c **** /*!
 216:Drivers/BSP/Components/sx1276/sx1276.c ****  * Radio callbacks variable
 217:Drivers/BSP/Components/sx1276/sx1276.c ****  */
 218:Drivers/BSP/Components/sx1276/sx1276.c **** static RadioEvents_t *RadioEvents;
 219:Drivers/BSP/Components/sx1276/sx1276.c **** 
 220:Drivers/BSP/Components/sx1276/sx1276.c **** /*!
 221:Drivers/BSP/Components/sx1276/sx1276.c ****  * Reception buffer
 222:Drivers/BSP/Components/sx1276/sx1276.c ****  */
 223:Drivers/BSP/Components/sx1276/sx1276.c **** static uint8_t RxTxBuffer[RX_BUFFER_SIZE];
 224:Drivers/BSP/Components/sx1276/sx1276.c **** 
 225:Drivers/BSP/Components/sx1276/sx1276.c **** static LoRaBoardCallback_t *LoRaBoardCallbacks;
 226:Drivers/BSP/Components/sx1276/sx1276.c **** 
 227:Drivers/BSP/Components/sx1276/sx1276.c **** /*
 228:Drivers/BSP/Components/sx1276/sx1276.c ****  * Public global variables
 229:Drivers/BSP/Components/sx1276/sx1276.c ****  */
 230:Drivers/BSP/Components/sx1276/sx1276.c **** 
 231:Drivers/BSP/Components/sx1276/sx1276.c **** /*!
 232:Drivers/BSP/Components/sx1276/sx1276.c ****  * Radio hardware and global parameters
 233:Drivers/BSP/Components/sx1276/sx1276.c ****  */
 234:Drivers/BSP/Components/sx1276/sx1276.c **** SX1276_t SX1276;
 235:Drivers/BSP/Components/sx1276/sx1276.c **** 
 236:Drivers/BSP/Components/sx1276/sx1276.c **** /*!
 237:Drivers/BSP/Components/sx1276/sx1276.c ****  * Hardware DIO IRQ callback initialization
 238:Drivers/BSP/Components/sx1276/sx1276.c ****  */
 239:Drivers/BSP/Components/sx1276/sx1276.c **** DioIrqHandler *DioIrq[] = { SX1276OnDio0Irq, SX1276OnDio1Irq,
 240:Drivers/BSP/Components/sx1276/sx1276.c ****                             SX1276OnDio2Irq, SX1276OnDio3Irq,
 241:Drivers/BSP/Components/sx1276/sx1276.c ****                             SX1276OnDio4Irq, NULL };
 242:Drivers/BSP/Components/sx1276/sx1276.c **** 
 243:Drivers/BSP/Components/sx1276/sx1276.c **** /*!
 244:Drivers/BSP/Components/sx1276/sx1276.c ****  * Tx and Rx timers
 245:Drivers/BSP/Components/sx1276/sx1276.c ****  */
 246:Drivers/BSP/Components/sx1276/sx1276.c **** TimerEvent_t TxTimeoutTimer;
 247:Drivers/BSP/Components/sx1276/sx1276.c **** TimerEvent_t RxTimeoutTimer;
 248:Drivers/BSP/Components/sx1276/sx1276.c **** TimerEvent_t RxTimeoutSyncWord;
 249:Drivers/BSP/Components/sx1276/sx1276.c **** 
 250:Drivers/BSP/Components/sx1276/sx1276.c **** /*
 251:Drivers/BSP/Components/sx1276/sx1276.c ****  * Radio driver functions implementation
 252:Drivers/BSP/Components/sx1276/sx1276.c ****  */
 253:Drivers/BSP/Components/sx1276/sx1276.c **** void SX1276BoardInit( LoRaBoardCallback_t *callbacks )
 254:Drivers/BSP/Components/sx1276/sx1276.c **** {
 255:Drivers/BSP/Components/sx1276/sx1276.c ****     LoRaBoardCallbacks =callbacks;
 256:Drivers/BSP/Components/sx1276/sx1276.c **** }
 257:Drivers/BSP/Components/sx1276/sx1276.c **** 
 258:Drivers/BSP/Components/sx1276/sx1276.c **** uint32_t SX1276Init( RadioEvents_t *events )
 259:Drivers/BSP/Components/sx1276/sx1276.c **** {
 260:Drivers/BSP/Components/sx1276/sx1276.c ****     uint8_t i;
 261:Drivers/BSP/Components/sx1276/sx1276.c **** 
 262:Drivers/BSP/Components/sx1276/sx1276.c ****     RadioEvents = events;
ARM GAS  /var/folders/2m/zqg86yyd4hbf56w83tkxjpvr0000gn/T//ccRNesxV.s 			page 6


 263:Drivers/BSP/Components/sx1276/sx1276.c **** 
 264:Drivers/BSP/Components/sx1276/sx1276.c ****     // Initialize driver timeout timers
 265:Drivers/BSP/Components/sx1276/sx1276.c ****     TimerInit( &TxTimeoutTimer, SX1276OnTimeoutIrq );
 266:Drivers/BSP/Components/sx1276/sx1276.c ****     TimerInit( &RxTimeoutTimer, SX1276OnTimeoutIrq );
 267:Drivers/BSP/Components/sx1276/sx1276.c ****     TimerInit( &RxTimeoutSyncWord, SX1276OnTimeoutIrq );
 268:Drivers/BSP/Components/sx1276/sx1276.c **** 
 269:Drivers/BSP/Components/sx1276/sx1276.c ****     LoRaBoardCallbacks->SX1276BoardSetXO( SET );
 270:Drivers/BSP/Components/sx1276/sx1276.c **** 
 271:Drivers/BSP/Components/sx1276/sx1276.c ****     SX1276Reset( );
 272:Drivers/BSP/Components/sx1276/sx1276.c **** 
 273:Drivers/BSP/Components/sx1276/sx1276.c ****     RxChainCalibration( );
 274:Drivers/BSP/Components/sx1276/sx1276.c **** 
 275:Drivers/BSP/Components/sx1276/sx1276.c ****     SX1276SetOpMode( RF_OPMODE_SLEEP );
 276:Drivers/BSP/Components/sx1276/sx1276.c **** 
 277:Drivers/BSP/Components/sx1276/sx1276.c ****     LoRaBoardCallbacks->SX1276BoardIoIrqInit( DioIrq );
 278:Drivers/BSP/Components/sx1276/sx1276.c **** 
 279:Drivers/BSP/Components/sx1276/sx1276.c ****     for( i = 0; i < sizeof( RadioRegsInit ) / sizeof( RadioRegisters_t ); i++ )
 280:Drivers/BSP/Components/sx1276/sx1276.c ****     {
 281:Drivers/BSP/Components/sx1276/sx1276.c ****         SX1276SetModem( RadioRegsInit[i].Modem );
 282:Drivers/BSP/Components/sx1276/sx1276.c ****         SX1276Write( RadioRegsInit[i].Addr, RadioRegsInit[i].Value );
 283:Drivers/BSP/Components/sx1276/sx1276.c ****     }
 284:Drivers/BSP/Components/sx1276/sx1276.c **** 
 285:Drivers/BSP/Components/sx1276/sx1276.c ****     SX1276SetModem( MODEM_FSK );
 286:Drivers/BSP/Components/sx1276/sx1276.c **** 
 287:Drivers/BSP/Components/sx1276/sx1276.c ****     SX1276.Settings.State = RF_IDLE;
 288:Drivers/BSP/Components/sx1276/sx1276.c **** 
 289:Drivers/BSP/Components/sx1276/sx1276.c ****     return ( uint32_t )LoRaBoardCallbacks->SX1276BoardGetWakeTime( ) + RADIO_WAKEUP_TIME;// BOARD_W
 290:Drivers/BSP/Components/sx1276/sx1276.c **** }
 291:Drivers/BSP/Components/sx1276/sx1276.c **** 
 292:Drivers/BSP/Components/sx1276/sx1276.c **** RadioState_t SX1276GetStatus( void )
 293:Drivers/BSP/Components/sx1276/sx1276.c **** {
 294:Drivers/BSP/Components/sx1276/sx1276.c ****     return SX1276.Settings.State;
 295:Drivers/BSP/Components/sx1276/sx1276.c **** }
 296:Drivers/BSP/Components/sx1276/sx1276.c **** 
 297:Drivers/BSP/Components/sx1276/sx1276.c **** void SX1276SetChannel( uint32_t freq )
 298:Drivers/BSP/Components/sx1276/sx1276.c **** {
 299:Drivers/BSP/Components/sx1276/sx1276.c ****     uint32_t channel;
 300:Drivers/BSP/Components/sx1276/sx1276.c **** 
 301:Drivers/BSP/Components/sx1276/sx1276.c ****     SX1276.Settings.Channel = freq;
 302:Drivers/BSP/Components/sx1276/sx1276.c **** 
 303:Drivers/BSP/Components/sx1276/sx1276.c ****     SX_FREQ_TO_CHANNEL( channel, freq );
 304:Drivers/BSP/Components/sx1276/sx1276.c **** 
 305:Drivers/BSP/Components/sx1276/sx1276.c ****     SX1276Write( REG_FRFMSB, ( uint8_t )( ( channel >> 16 ) & 0xFF ) );
 306:Drivers/BSP/Components/sx1276/sx1276.c ****     SX1276Write( REG_FRFMID, ( uint8_t )( ( channel >> 8 ) & 0xFF ) );
 307:Drivers/BSP/Components/sx1276/sx1276.c ****     SX1276Write( REG_FRFLSB, ( uint8_t )( channel & 0xFF ) );
 308:Drivers/BSP/Components/sx1276/sx1276.c **** }
 309:Drivers/BSP/Components/sx1276/sx1276.c **** 
 310:Drivers/BSP/Components/sx1276/sx1276.c **** bool SX1276IsChannelFree( RadioModems_t modem, uint32_t freq, int16_t rssiThresh, uint32_t maxCarri
 311:Drivers/BSP/Components/sx1276/sx1276.c **** {
 312:Drivers/BSP/Components/sx1276/sx1276.c ****     bool status = true;
 313:Drivers/BSP/Components/sx1276/sx1276.c ****     int16_t rssi = 0;
 314:Drivers/BSP/Components/sx1276/sx1276.c ****     uint32_t carrierSenseTime = 0;
 315:Drivers/BSP/Components/sx1276/sx1276.c **** 
 316:Drivers/BSP/Components/sx1276/sx1276.c ****     SX1276SetModem( modem );
 317:Drivers/BSP/Components/sx1276/sx1276.c **** 
 318:Drivers/BSP/Components/sx1276/sx1276.c ****     SX1276SetChannel( freq );
 319:Drivers/BSP/Components/sx1276/sx1276.c **** 
ARM GAS  /var/folders/2m/zqg86yyd4hbf56w83tkxjpvr0000gn/T//ccRNesxV.s 			page 7


 320:Drivers/BSP/Components/sx1276/sx1276.c ****     SX1276SetOpMode( RF_OPMODE_RECEIVER );
 321:Drivers/BSP/Components/sx1276/sx1276.c **** 
 322:Drivers/BSP/Components/sx1276/sx1276.c ****     DelayMs( 1 );
 323:Drivers/BSP/Components/sx1276/sx1276.c **** 
 324:Drivers/BSP/Components/sx1276/sx1276.c ****     carrierSenseTime = TimerGetCurrentTime( );
 325:Drivers/BSP/Components/sx1276/sx1276.c **** 
 326:Drivers/BSP/Components/sx1276/sx1276.c ****     // Perform carrier sense for maxCarrierSenseTime
 327:Drivers/BSP/Components/sx1276/sx1276.c ****     while( TimerGetElapsedTime( carrierSenseTime ) < maxCarrierSenseTime )
 328:Drivers/BSP/Components/sx1276/sx1276.c ****     {
 329:Drivers/BSP/Components/sx1276/sx1276.c ****         rssi = SX1276ReadRssi( modem );
 330:Drivers/BSP/Components/sx1276/sx1276.c **** 
 331:Drivers/BSP/Components/sx1276/sx1276.c ****         if( rssi > rssiThresh )
 332:Drivers/BSP/Components/sx1276/sx1276.c ****         {
 333:Drivers/BSP/Components/sx1276/sx1276.c ****             status = false;
 334:Drivers/BSP/Components/sx1276/sx1276.c ****             break;
 335:Drivers/BSP/Components/sx1276/sx1276.c ****         }
 336:Drivers/BSP/Components/sx1276/sx1276.c ****     }
 337:Drivers/BSP/Components/sx1276/sx1276.c ****     SX1276SetSleep( );
 338:Drivers/BSP/Components/sx1276/sx1276.c ****     return status;
 339:Drivers/BSP/Components/sx1276/sx1276.c **** }
 340:Drivers/BSP/Components/sx1276/sx1276.c **** 
 341:Drivers/BSP/Components/sx1276/sx1276.c **** uint32_t SX1276Random( void )
 342:Drivers/BSP/Components/sx1276/sx1276.c **** {
 343:Drivers/BSP/Components/sx1276/sx1276.c ****     uint8_t i;
 344:Drivers/BSP/Components/sx1276/sx1276.c ****     uint32_t rnd = 0;
 345:Drivers/BSP/Components/sx1276/sx1276.c **** 
 346:Drivers/BSP/Components/sx1276/sx1276.c ****     /*
 347:Drivers/BSP/Components/sx1276/sx1276.c ****      * Radio setup for random number generation
 348:Drivers/BSP/Components/sx1276/sx1276.c ****      */
 349:Drivers/BSP/Components/sx1276/sx1276.c ****     // Set LoRa modem ON
 350:Drivers/BSP/Components/sx1276/sx1276.c ****     SX1276SetModem( MODEM_LORA );
 351:Drivers/BSP/Components/sx1276/sx1276.c **** 
 352:Drivers/BSP/Components/sx1276/sx1276.c ****     // Disable LoRa modem interrupts
 353:Drivers/BSP/Components/sx1276/sx1276.c ****     SX1276Write( REG_LR_IRQFLAGSMASK, RFLR_IRQFLAGS_RXTIMEOUT |
 354:Drivers/BSP/Components/sx1276/sx1276.c ****                   RFLR_IRQFLAGS_RXDONE |
 355:Drivers/BSP/Components/sx1276/sx1276.c ****                   RFLR_IRQFLAGS_PAYLOADCRCERROR |
 356:Drivers/BSP/Components/sx1276/sx1276.c ****                   RFLR_IRQFLAGS_VALIDHEADER |
 357:Drivers/BSP/Components/sx1276/sx1276.c ****                   RFLR_IRQFLAGS_TXDONE |
 358:Drivers/BSP/Components/sx1276/sx1276.c ****                   RFLR_IRQFLAGS_CADDONE |
 359:Drivers/BSP/Components/sx1276/sx1276.c ****                   RFLR_IRQFLAGS_FHSSCHANGEDCHANNEL |
 360:Drivers/BSP/Components/sx1276/sx1276.c ****                   RFLR_IRQFLAGS_CADDETECTED );
 361:Drivers/BSP/Components/sx1276/sx1276.c **** 
 362:Drivers/BSP/Components/sx1276/sx1276.c ****     // Set radio in continuous reception
 363:Drivers/BSP/Components/sx1276/sx1276.c ****     SX1276SetOpMode( RF_OPMODE_RECEIVER );
 364:Drivers/BSP/Components/sx1276/sx1276.c **** 
 365:Drivers/BSP/Components/sx1276/sx1276.c ****     for( i = 0; i < 32; i++ )
 366:Drivers/BSP/Components/sx1276/sx1276.c ****     {
 367:Drivers/BSP/Components/sx1276/sx1276.c ****         DelayMs( 1 );
 368:Drivers/BSP/Components/sx1276/sx1276.c ****         // Unfiltered RSSI value reading. Only takes the LSB value
 369:Drivers/BSP/Components/sx1276/sx1276.c ****         rnd |= ( ( uint32_t )SX1276Read( REG_LR_RSSIWIDEBAND ) & 0x01 ) << i;
 370:Drivers/BSP/Components/sx1276/sx1276.c ****     }
 371:Drivers/BSP/Components/sx1276/sx1276.c **** 
 372:Drivers/BSP/Components/sx1276/sx1276.c ****     SX1276SetSleep( );
 373:Drivers/BSP/Components/sx1276/sx1276.c **** 
 374:Drivers/BSP/Components/sx1276/sx1276.c ****     return rnd;
 375:Drivers/BSP/Components/sx1276/sx1276.c **** }
 376:Drivers/BSP/Components/sx1276/sx1276.c **** 
ARM GAS  /var/folders/2m/zqg86yyd4hbf56w83tkxjpvr0000gn/T//ccRNesxV.s 			page 8


 377:Drivers/BSP/Components/sx1276/sx1276.c **** /*!
 378:Drivers/BSP/Components/sx1276/sx1276.c ****  * Performs the Rx chain calibration for LF and HF bands
 379:Drivers/BSP/Components/sx1276/sx1276.c ****  * \remark Must be called just after the reset so all registers are at their
 380:Drivers/BSP/Components/sx1276/sx1276.c ****  *         default values
 381:Drivers/BSP/Components/sx1276/sx1276.c ****  */
 382:Drivers/BSP/Components/sx1276/sx1276.c **** void RxChainCalibration( void )
 383:Drivers/BSP/Components/sx1276/sx1276.c **** {
 384:Drivers/BSP/Components/sx1276/sx1276.c ****     uint8_t regPaConfigInitVal;
 385:Drivers/BSP/Components/sx1276/sx1276.c ****     uint32_t initialFreq;
 386:Drivers/BSP/Components/sx1276/sx1276.c ****     uint32_t channel;
 387:Drivers/BSP/Components/sx1276/sx1276.c **** 
 388:Drivers/BSP/Components/sx1276/sx1276.c ****     // Save context
 389:Drivers/BSP/Components/sx1276/sx1276.c ****     regPaConfigInitVal = SX1276Read( REG_PACONFIG );
 390:Drivers/BSP/Components/sx1276/sx1276.c **** 
 391:Drivers/BSP/Components/sx1276/sx1276.c ****     channel = ( ( ( uint32_t )SX1276Read( REG_FRFMSB ) << 16 ) |
 392:Drivers/BSP/Components/sx1276/sx1276.c ****                 ( ( uint32_t )SX1276Read( REG_FRFMID ) << 8 ) |
 393:Drivers/BSP/Components/sx1276/sx1276.c ****                 ( ( uint32_t )SX1276Read( REG_FRFLSB ) ) );
 394:Drivers/BSP/Components/sx1276/sx1276.c **** 
 395:Drivers/BSP/Components/sx1276/sx1276.c ****     SX_CHANNEL_TO_FREQ(channel, initialFreq);
 396:Drivers/BSP/Components/sx1276/sx1276.c **** 
 397:Drivers/BSP/Components/sx1276/sx1276.c ****     // Cut the PA just in case, RFO output, power = -1 dBm
 398:Drivers/BSP/Components/sx1276/sx1276.c ****     SX1276Write( REG_PACONFIG, 0x00 );
 399:Drivers/BSP/Components/sx1276/sx1276.c **** 
 400:Drivers/BSP/Components/sx1276/sx1276.c ****     // Launch Rx chain calibration for LF band
 401:Drivers/BSP/Components/sx1276/sx1276.c ****     SX1276Write( REG_IMAGECAL, ( SX1276Read( REG_IMAGECAL ) & RF_IMAGECAL_IMAGECAL_MASK ) | RF_IMAG
 402:Drivers/BSP/Components/sx1276/sx1276.c ****     while( ( SX1276Read( REG_IMAGECAL ) & RF_IMAGECAL_IMAGECAL_RUNNING ) == RF_IMAGECAL_IMAGECAL_RU
 403:Drivers/BSP/Components/sx1276/sx1276.c ****     {
 404:Drivers/BSP/Components/sx1276/sx1276.c ****     }
 405:Drivers/BSP/Components/sx1276/sx1276.c **** 
 406:Drivers/BSP/Components/sx1276/sx1276.c ****     // Sets a Frequency in HF band
 407:Drivers/BSP/Components/sx1276/sx1276.c ****     SX1276SetChannel( 868000000 );
 408:Drivers/BSP/Components/sx1276/sx1276.c **** 
 409:Drivers/BSP/Components/sx1276/sx1276.c ****     // Launch Rx chain calibration for HF band
 410:Drivers/BSP/Components/sx1276/sx1276.c ****     SX1276Write( REG_IMAGECAL, ( SX1276Read( REG_IMAGECAL ) & RF_IMAGECAL_IMAGECAL_MASK ) | RF_IMAG
 411:Drivers/BSP/Components/sx1276/sx1276.c ****     while( ( SX1276Read( REG_IMAGECAL ) & RF_IMAGECAL_IMAGECAL_RUNNING ) == RF_IMAGECAL_IMAGECAL_RU
 412:Drivers/BSP/Components/sx1276/sx1276.c ****     {
 413:Drivers/BSP/Components/sx1276/sx1276.c ****     }
 414:Drivers/BSP/Components/sx1276/sx1276.c **** 
 415:Drivers/BSP/Components/sx1276/sx1276.c ****     // Restore context
 416:Drivers/BSP/Components/sx1276/sx1276.c ****     SX1276Write( REG_PACONFIG, regPaConfigInitVal );
 417:Drivers/BSP/Components/sx1276/sx1276.c ****     SX1276SetChannel( initialFreq );
 418:Drivers/BSP/Components/sx1276/sx1276.c **** }
 419:Drivers/BSP/Components/sx1276/sx1276.c **** 
 420:Drivers/BSP/Components/sx1276/sx1276.c **** /*!
 421:Drivers/BSP/Components/sx1276/sx1276.c ****  * Returns the known FSK bandwidth registers value
 422:Drivers/BSP/Components/sx1276/sx1276.c ****  *
 423:Drivers/BSP/Components/sx1276/sx1276.c ****  * \param [IN] bandwidth Bandwidth value in Hz
 424:Drivers/BSP/Components/sx1276/sx1276.c ****  * \retval regValue Bandwidth register value.
 425:Drivers/BSP/Components/sx1276/sx1276.c ****  */
 426:Drivers/BSP/Components/sx1276/sx1276.c **** static uint8_t GetFskBandwidthRegValue( uint32_t bandwidth )
 427:Drivers/BSP/Components/sx1276/sx1276.c **** {
  25              		.loc 1 427 0
  26              		.cfi_startproc
  27              		@ args = 0, pretend = 0, frame = 0
  28              		@ frame_needed = 0, uses_anonymous_args = 0
  29              	.LVL0:
  30 0000 10B5     		push	{r4, lr}
ARM GAS  /var/folders/2m/zqg86yyd4hbf56w83tkxjpvr0000gn/T//ccRNesxV.s 			page 9


  31              	.LCFI0:
  32              		.cfi_def_cfa_offset 8
  33              		.cfi_offset 4, -8
  34              		.cfi_offset 14, -4
  35              	.LVL1:
 428:Drivers/BSP/Components/sx1276/sx1276.c ****     uint8_t i;
 429:Drivers/BSP/Components/sx1276/sx1276.c **** 
 430:Drivers/BSP/Components/sx1276/sx1276.c ****     for( i = 0; i < ( sizeof( FskBandwidths ) / sizeof( FskBandwidth_t ) ) - 1; i++ )
  36              		.loc 1 430 0
  37 0002 0023     		movs	r3, #0
  38 0004 01E0     		b	.L2
  39              	.LVL2:
  40              	.L3:
  41              		.loc 1 430 0 is_stmt 0 discriminator 2
  42 0006 0133     		adds	r3, r3, #1
  43              	.LVL3:
  44 0008 DBB2     		uxtb	r3, r3
  45              	.LVL4:
  46              	.L2:
  47              		.loc 1 430 0 discriminator 1
  48 000a 142B     		cmp	r3, #20
  49 000c 0ED8     		bhi	.L5
 431:Drivers/BSP/Components/sx1276/sx1276.c ****     {
 432:Drivers/BSP/Components/sx1276/sx1276.c ****         if( ( bandwidth >= FskBandwidths[i].bandwidth ) && ( bandwidth < FskBandwidths[i + 1].bandw
  50              		.loc 1 432 0 is_stmt 1
  51 000e DA00     		lsls	r2, r3, #3
  52 0010 074C     		ldr	r4, .L8
  53 0012 1259     		ldr	r2, [r2, r4]
  54 0014 8242     		cmp	r2, r0
  55 0016 F6D8     		bhi	.L3
  56              		.loc 1 432 0 is_stmt 0 discriminator 1
  57 0018 5A1C     		adds	r2, r3, #1
  58 001a D200     		lsls	r2, r2, #3
  59 001c 1259     		ldr	r2, [r2, r4]
  60 001e 8242     		cmp	r2, r0
  61 0020 F1D9     		bls	.L3
 433:Drivers/BSP/Components/sx1276/sx1276.c ****         {
 434:Drivers/BSP/Components/sx1276/sx1276.c ****             return FskBandwidths[i].RegValue;
  62              		.loc 1 434 0 is_stmt 1
  63 0022 D900     		lsls	r1, r3, #3
  64 0024 024B     		ldr	r3, .L8
  65              	.LVL5:
  66 0026 5918     		adds	r1, r3, r1
  67 0028 0879     		ldrb	r0, [r1, #4]
  68              	.LVL6:
 435:Drivers/BSP/Components/sx1276/sx1276.c ****         }
 436:Drivers/BSP/Components/sx1276/sx1276.c ****     }
 437:Drivers/BSP/Components/sx1276/sx1276.c ****     // ERROR: Value not found
 438:Drivers/BSP/Components/sx1276/sx1276.c ****     while( 1 );
 439:Drivers/BSP/Components/sx1276/sx1276.c **** }
  69              		.loc 1 439 0
  70              		@ sp needed
  71 002a 10BD     		pop	{r4, pc}
  72              	.LVL7:
  73              	.L5:
  74 002c FEE7     		b	.L5
  75              	.L9:
ARM GAS  /var/folders/2m/zqg86yyd4hbf56w83tkxjpvr0000gn/T//ccRNesxV.s 			page 10


  76 002e C046     		.align	2
  77              	.L8:
  78 0030 00000000 		.word	FskBandwidths
  79              		.cfi_endproc
  80              	.LFE47:
  82              		.section	.text.SX1276OnDio4Irq,"ax",%progbits
  83              		.align	1
  84              		.global	SX1276OnDio4Irq
  85              		.syntax unified
  86              		.code	16
  87              		.thumb_func
  88              		.fpu softvfp
  90              	SX1276OnDio4Irq:
  91              	.LFB76:
 440:Drivers/BSP/Components/sx1276/sx1276.c **** 
 441:Drivers/BSP/Components/sx1276/sx1276.c **** void SX1276SetRxConfig( RadioModems_t modem, uint32_t bandwidth,
 442:Drivers/BSP/Components/sx1276/sx1276.c ****                          uint32_t datarate, uint8_t coderate,
 443:Drivers/BSP/Components/sx1276/sx1276.c ****                          uint32_t bandwidthAfc, uint16_t preambleLen,
 444:Drivers/BSP/Components/sx1276/sx1276.c ****                          uint16_t symbTimeout, bool fixLen,
 445:Drivers/BSP/Components/sx1276/sx1276.c ****                          uint8_t payloadLen,
 446:Drivers/BSP/Components/sx1276/sx1276.c ****                          bool crcOn, bool freqHopOn, uint8_t hopPeriod,
 447:Drivers/BSP/Components/sx1276/sx1276.c ****                          bool iqInverted, bool rxContinuous )
 448:Drivers/BSP/Components/sx1276/sx1276.c **** {
 449:Drivers/BSP/Components/sx1276/sx1276.c ****     SX1276SetModem( modem );
 450:Drivers/BSP/Components/sx1276/sx1276.c **** 
 451:Drivers/BSP/Components/sx1276/sx1276.c ****     switch( modem )
 452:Drivers/BSP/Components/sx1276/sx1276.c ****     {
 453:Drivers/BSP/Components/sx1276/sx1276.c ****     case MODEM_FSK:
 454:Drivers/BSP/Components/sx1276/sx1276.c ****         {
 455:Drivers/BSP/Components/sx1276/sx1276.c ****             SX1276.Settings.Fsk.Bandwidth = bandwidth;
 456:Drivers/BSP/Components/sx1276/sx1276.c ****             SX1276.Settings.Fsk.Datarate = datarate;
 457:Drivers/BSP/Components/sx1276/sx1276.c ****             SX1276.Settings.Fsk.BandwidthAfc = bandwidthAfc;
 458:Drivers/BSP/Components/sx1276/sx1276.c ****             SX1276.Settings.Fsk.FixLen = fixLen;
 459:Drivers/BSP/Components/sx1276/sx1276.c ****             SX1276.Settings.Fsk.PayloadLen = payloadLen;
 460:Drivers/BSP/Components/sx1276/sx1276.c ****             SX1276.Settings.Fsk.CrcOn = crcOn;
 461:Drivers/BSP/Components/sx1276/sx1276.c ****             SX1276.Settings.Fsk.IqInverted = iqInverted;
 462:Drivers/BSP/Components/sx1276/sx1276.c ****             SX1276.Settings.Fsk.RxContinuous = rxContinuous;
 463:Drivers/BSP/Components/sx1276/sx1276.c ****             SX1276.Settings.Fsk.PreambleLen = preambleLen;
 464:Drivers/BSP/Components/sx1276/sx1276.c ****             SX1276.Settings.Fsk.RxSingleTimeout = ( uint32_t )( symbTimeout * ( ( 1.0 / ( double )d
 465:Drivers/BSP/Components/sx1276/sx1276.c **** 
 466:Drivers/BSP/Components/sx1276/sx1276.c ****             datarate = ( uint16_t )( ( double )XTAL_FREQ / ( double )datarate );
 467:Drivers/BSP/Components/sx1276/sx1276.c ****             SX1276Write( REG_BITRATEMSB, ( uint8_t )( datarate >> 8 ) );
 468:Drivers/BSP/Components/sx1276/sx1276.c ****             SX1276Write( REG_BITRATELSB, ( uint8_t )( datarate & 0xFF ) );
 469:Drivers/BSP/Components/sx1276/sx1276.c **** 
 470:Drivers/BSP/Components/sx1276/sx1276.c ****             SX1276Write( REG_RXBW, GetFskBandwidthRegValue( bandwidth ) );
 471:Drivers/BSP/Components/sx1276/sx1276.c ****             SX1276Write( REG_AFCBW, GetFskBandwidthRegValue( bandwidthAfc ) );
 472:Drivers/BSP/Components/sx1276/sx1276.c **** 
 473:Drivers/BSP/Components/sx1276/sx1276.c ****             SX1276Write( REG_PREAMBLEMSB, ( uint8_t )( ( preambleLen >> 8 ) & 0xFF ) );
 474:Drivers/BSP/Components/sx1276/sx1276.c ****             SX1276Write( REG_PREAMBLELSB, ( uint8_t )( preambleLen & 0xFF ) );
 475:Drivers/BSP/Components/sx1276/sx1276.c **** 
 476:Drivers/BSP/Components/sx1276/sx1276.c ****             if( fixLen == 1 )
 477:Drivers/BSP/Components/sx1276/sx1276.c ****             {
 478:Drivers/BSP/Components/sx1276/sx1276.c ****                 SX1276Write( REG_PAYLOADLENGTH, payloadLen );
 479:Drivers/BSP/Components/sx1276/sx1276.c ****             }
 480:Drivers/BSP/Components/sx1276/sx1276.c ****             else
 481:Drivers/BSP/Components/sx1276/sx1276.c ****             {
 482:Drivers/BSP/Components/sx1276/sx1276.c ****                 SX1276Write( REG_PAYLOADLENGTH, 0xFF ); // Set payload length to the maximum
ARM GAS  /var/folders/2m/zqg86yyd4hbf56w83tkxjpvr0000gn/T//ccRNesxV.s 			page 11


 483:Drivers/BSP/Components/sx1276/sx1276.c ****             }
 484:Drivers/BSP/Components/sx1276/sx1276.c **** 
 485:Drivers/BSP/Components/sx1276/sx1276.c ****             SX1276Write( REG_PACKETCONFIG1,
 486:Drivers/BSP/Components/sx1276/sx1276.c ****                          ( SX1276Read( REG_PACKETCONFIG1 ) &
 487:Drivers/BSP/Components/sx1276/sx1276.c ****                            RF_PACKETCONFIG1_CRC_MASK &
 488:Drivers/BSP/Components/sx1276/sx1276.c ****                            RF_PACKETCONFIG1_PACKETFORMAT_MASK ) |
 489:Drivers/BSP/Components/sx1276/sx1276.c ****                            ( ( fixLen == 1 ) ? RF_PACKETCONFIG1_PACKETFORMAT_FIXED : RF_PACKETCONFI
 490:Drivers/BSP/Components/sx1276/sx1276.c ****                            ( crcOn << 4 ) );
 491:Drivers/BSP/Components/sx1276/sx1276.c ****             SX1276Write( REG_PACKETCONFIG2, ( SX1276Read( REG_PACKETCONFIG2 ) | RF_PACKETCONFIG2_DA
 492:Drivers/BSP/Components/sx1276/sx1276.c ****         }
 493:Drivers/BSP/Components/sx1276/sx1276.c ****         break;
 494:Drivers/BSP/Components/sx1276/sx1276.c ****     case MODEM_LORA:
 495:Drivers/BSP/Components/sx1276/sx1276.c ****         {
 496:Drivers/BSP/Components/sx1276/sx1276.c ****             if( bandwidth > 2 )
 497:Drivers/BSP/Components/sx1276/sx1276.c ****             {
 498:Drivers/BSP/Components/sx1276/sx1276.c ****                 // Fatal error: When using LoRa modem only bandwidths 125, 250 and 500 kHz are supp
 499:Drivers/BSP/Components/sx1276/sx1276.c ****                 while( 1 );
 500:Drivers/BSP/Components/sx1276/sx1276.c ****             }
 501:Drivers/BSP/Components/sx1276/sx1276.c ****             bandwidth += 7;
 502:Drivers/BSP/Components/sx1276/sx1276.c ****             SX1276.Settings.LoRa.Bandwidth = bandwidth;
 503:Drivers/BSP/Components/sx1276/sx1276.c ****             SX1276.Settings.LoRa.Datarate = datarate;
 504:Drivers/BSP/Components/sx1276/sx1276.c ****             SX1276.Settings.LoRa.Coderate = coderate;
 505:Drivers/BSP/Components/sx1276/sx1276.c ****             SX1276.Settings.LoRa.PreambleLen = preambleLen;
 506:Drivers/BSP/Components/sx1276/sx1276.c ****             SX1276.Settings.LoRa.FixLen = fixLen;
 507:Drivers/BSP/Components/sx1276/sx1276.c ****             SX1276.Settings.LoRa.PayloadLen = payloadLen;
 508:Drivers/BSP/Components/sx1276/sx1276.c ****             SX1276.Settings.LoRa.CrcOn = crcOn;
 509:Drivers/BSP/Components/sx1276/sx1276.c ****             SX1276.Settings.LoRa.FreqHopOn = freqHopOn;
 510:Drivers/BSP/Components/sx1276/sx1276.c ****             SX1276.Settings.LoRa.HopPeriod = hopPeriod;
 511:Drivers/BSP/Components/sx1276/sx1276.c ****             SX1276.Settings.LoRa.IqInverted = iqInverted;
 512:Drivers/BSP/Components/sx1276/sx1276.c ****             SX1276.Settings.LoRa.RxContinuous = rxContinuous;
 513:Drivers/BSP/Components/sx1276/sx1276.c **** 
 514:Drivers/BSP/Components/sx1276/sx1276.c ****             if( datarate > 12 )
 515:Drivers/BSP/Components/sx1276/sx1276.c ****             {
 516:Drivers/BSP/Components/sx1276/sx1276.c ****                 datarate = 12;
 517:Drivers/BSP/Components/sx1276/sx1276.c ****             }
 518:Drivers/BSP/Components/sx1276/sx1276.c ****             else if( datarate < 6 )
 519:Drivers/BSP/Components/sx1276/sx1276.c ****             {
 520:Drivers/BSP/Components/sx1276/sx1276.c ****                 datarate = 6;
 521:Drivers/BSP/Components/sx1276/sx1276.c ****             }
 522:Drivers/BSP/Components/sx1276/sx1276.c **** 
 523:Drivers/BSP/Components/sx1276/sx1276.c ****             if( ( ( bandwidth == 7 ) && ( ( datarate == 11 ) || ( datarate == 12 ) ) ) ||
 524:Drivers/BSP/Components/sx1276/sx1276.c ****                 ( ( bandwidth == 8 ) && ( datarate == 12 ) ) )
 525:Drivers/BSP/Components/sx1276/sx1276.c ****             {
 526:Drivers/BSP/Components/sx1276/sx1276.c ****                 SX1276.Settings.LoRa.LowDatarateOptimize = 0x01;
 527:Drivers/BSP/Components/sx1276/sx1276.c ****             }
 528:Drivers/BSP/Components/sx1276/sx1276.c ****             else
 529:Drivers/BSP/Components/sx1276/sx1276.c ****             {
 530:Drivers/BSP/Components/sx1276/sx1276.c ****                 SX1276.Settings.LoRa.LowDatarateOptimize = 0x00;
 531:Drivers/BSP/Components/sx1276/sx1276.c ****             }
 532:Drivers/BSP/Components/sx1276/sx1276.c **** 
 533:Drivers/BSP/Components/sx1276/sx1276.c ****             SX1276Write( REG_LR_MODEMCONFIG1,
 534:Drivers/BSP/Components/sx1276/sx1276.c ****                          ( SX1276Read( REG_LR_MODEMCONFIG1 ) &
 535:Drivers/BSP/Components/sx1276/sx1276.c ****                            RFLR_MODEMCONFIG1_BW_MASK &
 536:Drivers/BSP/Components/sx1276/sx1276.c ****                            RFLR_MODEMCONFIG1_CODINGRATE_MASK &
 537:Drivers/BSP/Components/sx1276/sx1276.c ****                            RFLR_MODEMCONFIG1_IMPLICITHEADER_MASK ) |
 538:Drivers/BSP/Components/sx1276/sx1276.c ****                            ( bandwidth << 4 ) | ( coderate << 1 ) |
 539:Drivers/BSP/Components/sx1276/sx1276.c ****                            fixLen );
ARM GAS  /var/folders/2m/zqg86yyd4hbf56w83tkxjpvr0000gn/T//ccRNesxV.s 			page 12


 540:Drivers/BSP/Components/sx1276/sx1276.c **** 
 541:Drivers/BSP/Components/sx1276/sx1276.c ****             SX1276Write( REG_LR_MODEMCONFIG2,
 542:Drivers/BSP/Components/sx1276/sx1276.c ****                          ( SX1276Read( REG_LR_MODEMCONFIG2 ) &
 543:Drivers/BSP/Components/sx1276/sx1276.c ****                            RFLR_MODEMCONFIG2_SF_MASK &
 544:Drivers/BSP/Components/sx1276/sx1276.c ****                            RFLR_MODEMCONFIG2_RXPAYLOADCRC_MASK &
 545:Drivers/BSP/Components/sx1276/sx1276.c ****                            RFLR_MODEMCONFIG2_SYMBTIMEOUTMSB_MASK ) |
 546:Drivers/BSP/Components/sx1276/sx1276.c ****                            ( datarate << 4 ) | ( crcOn << 2 ) |
 547:Drivers/BSP/Components/sx1276/sx1276.c ****                            ( ( symbTimeout >> 8 ) & ~RFLR_MODEMCONFIG2_SYMBTIMEOUTMSB_MASK ) );
 548:Drivers/BSP/Components/sx1276/sx1276.c **** 
 549:Drivers/BSP/Components/sx1276/sx1276.c ****             SX1276Write( REG_LR_MODEMCONFIG3,
 550:Drivers/BSP/Components/sx1276/sx1276.c ****                          ( SX1276Read( REG_LR_MODEMCONFIG3 ) &
 551:Drivers/BSP/Components/sx1276/sx1276.c ****                            RFLR_MODEMCONFIG3_LOWDATARATEOPTIMIZE_MASK ) |
 552:Drivers/BSP/Components/sx1276/sx1276.c ****                            ( SX1276.Settings.LoRa.LowDatarateOptimize << 3 ) );
 553:Drivers/BSP/Components/sx1276/sx1276.c **** 
 554:Drivers/BSP/Components/sx1276/sx1276.c ****             SX1276Write( REG_LR_SYMBTIMEOUTLSB, ( uint8_t )( symbTimeout & 0xFF ) );
 555:Drivers/BSP/Components/sx1276/sx1276.c **** 
 556:Drivers/BSP/Components/sx1276/sx1276.c ****             SX1276Write( REG_LR_PREAMBLEMSB, ( uint8_t )( ( preambleLen >> 8 ) & 0xFF ) );
 557:Drivers/BSP/Components/sx1276/sx1276.c ****             SX1276Write( REG_LR_PREAMBLELSB, ( uint8_t )( preambleLen & 0xFF ) );
 558:Drivers/BSP/Components/sx1276/sx1276.c **** 
 559:Drivers/BSP/Components/sx1276/sx1276.c ****             if( fixLen == 1 )
 560:Drivers/BSP/Components/sx1276/sx1276.c ****             {
 561:Drivers/BSP/Components/sx1276/sx1276.c ****                 SX1276Write( REG_LR_PAYLOADLENGTH, payloadLen );
 562:Drivers/BSP/Components/sx1276/sx1276.c ****             }
 563:Drivers/BSP/Components/sx1276/sx1276.c **** 
 564:Drivers/BSP/Components/sx1276/sx1276.c ****             if( SX1276.Settings.LoRa.FreqHopOn == true )
 565:Drivers/BSP/Components/sx1276/sx1276.c ****             {
 566:Drivers/BSP/Components/sx1276/sx1276.c ****                 SX1276Write( REG_LR_PLLHOP, ( SX1276Read( REG_LR_PLLHOP ) & RFLR_PLLHOP_FASTHOP_MAS
 567:Drivers/BSP/Components/sx1276/sx1276.c ****                 SX1276Write( REG_LR_HOPPERIOD, SX1276.Settings.LoRa.HopPeriod );
 568:Drivers/BSP/Components/sx1276/sx1276.c ****             }
 569:Drivers/BSP/Components/sx1276/sx1276.c **** 
 570:Drivers/BSP/Components/sx1276/sx1276.c ****             if( ( bandwidth == 9 ) && ( SX1276.Settings.Channel > RF_MID_BAND_THRESH ) )
 571:Drivers/BSP/Components/sx1276/sx1276.c ****             {
 572:Drivers/BSP/Components/sx1276/sx1276.c ****                 // ERRATA 2.1 - Sensitivity Optimization with a 500 kHz Bandwidth
 573:Drivers/BSP/Components/sx1276/sx1276.c ****                 SX1276Write( REG_LR_TEST36, 0x02 );
 574:Drivers/BSP/Components/sx1276/sx1276.c ****                 SX1276Write( REG_LR_TEST3A, 0x64 );
 575:Drivers/BSP/Components/sx1276/sx1276.c ****             }
 576:Drivers/BSP/Components/sx1276/sx1276.c ****             else if( bandwidth == 9 )
 577:Drivers/BSP/Components/sx1276/sx1276.c ****             {
 578:Drivers/BSP/Components/sx1276/sx1276.c ****                 // ERRATA 2.1 - Sensitivity Optimization with a 500 kHz Bandwidth
 579:Drivers/BSP/Components/sx1276/sx1276.c ****                 SX1276Write( REG_LR_TEST36, 0x02 );
 580:Drivers/BSP/Components/sx1276/sx1276.c ****                 SX1276Write( REG_LR_TEST3A, 0x7F );
 581:Drivers/BSP/Components/sx1276/sx1276.c ****             }
 582:Drivers/BSP/Components/sx1276/sx1276.c ****             else
 583:Drivers/BSP/Components/sx1276/sx1276.c ****             {
 584:Drivers/BSP/Components/sx1276/sx1276.c ****                 // ERRATA 2.1 - Sensitivity Optimization with a 500 kHz Bandwidth
 585:Drivers/BSP/Components/sx1276/sx1276.c ****                 SX1276Write( REG_LR_TEST36, 0x03 );
 586:Drivers/BSP/Components/sx1276/sx1276.c ****             }
 587:Drivers/BSP/Components/sx1276/sx1276.c **** 
 588:Drivers/BSP/Components/sx1276/sx1276.c ****             if( datarate == 6 )
 589:Drivers/BSP/Components/sx1276/sx1276.c ****             {
 590:Drivers/BSP/Components/sx1276/sx1276.c ****                 SX1276Write( REG_LR_DETECTOPTIMIZE,
 591:Drivers/BSP/Components/sx1276/sx1276.c ****                              ( SX1276Read( REG_LR_DETECTOPTIMIZE ) &
 592:Drivers/BSP/Components/sx1276/sx1276.c ****                                RFLR_DETECTIONOPTIMIZE_MASK ) |
 593:Drivers/BSP/Components/sx1276/sx1276.c ****                                RFLR_DETECTIONOPTIMIZE_SF6 );
 594:Drivers/BSP/Components/sx1276/sx1276.c ****                 SX1276Write( REG_LR_DETECTIONTHRESHOLD,
 595:Drivers/BSP/Components/sx1276/sx1276.c ****                              RFLR_DETECTIONTHRESH_SF6 );
 596:Drivers/BSP/Components/sx1276/sx1276.c ****             }
ARM GAS  /var/folders/2m/zqg86yyd4hbf56w83tkxjpvr0000gn/T//ccRNesxV.s 			page 13


 597:Drivers/BSP/Components/sx1276/sx1276.c ****             else
 598:Drivers/BSP/Components/sx1276/sx1276.c ****             {
 599:Drivers/BSP/Components/sx1276/sx1276.c ****                 SX1276Write( REG_LR_DETECTOPTIMIZE,
 600:Drivers/BSP/Components/sx1276/sx1276.c ****                              ( SX1276Read( REG_LR_DETECTOPTIMIZE ) &
 601:Drivers/BSP/Components/sx1276/sx1276.c ****                              RFLR_DETECTIONOPTIMIZE_MASK ) |
 602:Drivers/BSP/Components/sx1276/sx1276.c ****                              RFLR_DETECTIONOPTIMIZE_SF7_TO_SF12 );
 603:Drivers/BSP/Components/sx1276/sx1276.c ****                 SX1276Write( REG_LR_DETECTIONTHRESHOLD,
 604:Drivers/BSP/Components/sx1276/sx1276.c ****                              RFLR_DETECTIONTHRESH_SF7_TO_SF12 );
 605:Drivers/BSP/Components/sx1276/sx1276.c ****             }
 606:Drivers/BSP/Components/sx1276/sx1276.c ****         }
 607:Drivers/BSP/Components/sx1276/sx1276.c ****         break;
 608:Drivers/BSP/Components/sx1276/sx1276.c ****     }
 609:Drivers/BSP/Components/sx1276/sx1276.c **** }
 610:Drivers/BSP/Components/sx1276/sx1276.c **** 
 611:Drivers/BSP/Components/sx1276/sx1276.c **** void SX1276SetTxConfig( RadioModems_t modem, int8_t power, uint32_t fdev,
 612:Drivers/BSP/Components/sx1276/sx1276.c ****                         uint32_t bandwidth, uint32_t datarate,
 613:Drivers/BSP/Components/sx1276/sx1276.c ****                         uint8_t coderate, uint16_t preambleLen,
 614:Drivers/BSP/Components/sx1276/sx1276.c ****                         bool fixLen, bool crcOn, bool freqHopOn,
 615:Drivers/BSP/Components/sx1276/sx1276.c ****                         uint8_t hopPeriod, bool iqInverted, uint32_t timeout )
 616:Drivers/BSP/Components/sx1276/sx1276.c **** {
 617:Drivers/BSP/Components/sx1276/sx1276.c ****     SX1276SetModem( modem );
 618:Drivers/BSP/Components/sx1276/sx1276.c **** 
 619:Drivers/BSP/Components/sx1276/sx1276.c ****     LoRaBoardCallbacks->SX1276BoardSetRfTxPower( power );
 620:Drivers/BSP/Components/sx1276/sx1276.c **** 
 621:Drivers/BSP/Components/sx1276/sx1276.c ****     switch( modem )
 622:Drivers/BSP/Components/sx1276/sx1276.c ****     {
 623:Drivers/BSP/Components/sx1276/sx1276.c ****     case MODEM_FSK:
 624:Drivers/BSP/Components/sx1276/sx1276.c ****         {
 625:Drivers/BSP/Components/sx1276/sx1276.c ****             SX1276.Settings.Fsk.Power = power;
 626:Drivers/BSP/Components/sx1276/sx1276.c ****             SX1276.Settings.Fsk.Fdev = fdev;
 627:Drivers/BSP/Components/sx1276/sx1276.c ****             SX1276.Settings.Fsk.Bandwidth = bandwidth;
 628:Drivers/BSP/Components/sx1276/sx1276.c ****             SX1276.Settings.Fsk.Datarate = datarate;
 629:Drivers/BSP/Components/sx1276/sx1276.c ****             SX1276.Settings.Fsk.PreambleLen = preambleLen;
 630:Drivers/BSP/Components/sx1276/sx1276.c ****             SX1276.Settings.Fsk.FixLen = fixLen;
 631:Drivers/BSP/Components/sx1276/sx1276.c ****             SX1276.Settings.Fsk.CrcOn = crcOn;
 632:Drivers/BSP/Components/sx1276/sx1276.c ****             SX1276.Settings.Fsk.IqInverted = iqInverted;
 633:Drivers/BSP/Components/sx1276/sx1276.c ****             SX1276.Settings.Fsk.TxTimeout = timeout;
 634:Drivers/BSP/Components/sx1276/sx1276.c **** 
 635:Drivers/BSP/Components/sx1276/sx1276.c ****             fdev = ( uint16_t )( ( double )fdev / ( double )FREQ_STEP );
 636:Drivers/BSP/Components/sx1276/sx1276.c ****             SX1276Write( REG_FDEVMSB, ( uint8_t )( fdev >> 8 ) );
 637:Drivers/BSP/Components/sx1276/sx1276.c ****             SX1276Write( REG_FDEVLSB, ( uint8_t )( fdev & 0xFF ) );
 638:Drivers/BSP/Components/sx1276/sx1276.c **** 
 639:Drivers/BSP/Components/sx1276/sx1276.c ****             datarate = ( uint16_t )( ( double )XTAL_FREQ / ( double )datarate );
 640:Drivers/BSP/Components/sx1276/sx1276.c ****             SX1276Write( REG_BITRATEMSB, ( uint8_t )( datarate >> 8 ) );
 641:Drivers/BSP/Components/sx1276/sx1276.c ****             SX1276Write( REG_BITRATELSB, ( uint8_t )( datarate & 0xFF ) );
 642:Drivers/BSP/Components/sx1276/sx1276.c **** 
 643:Drivers/BSP/Components/sx1276/sx1276.c ****             SX1276Write( REG_PREAMBLEMSB, ( preambleLen >> 8 ) & 0x00FF );
 644:Drivers/BSP/Components/sx1276/sx1276.c ****             SX1276Write( REG_PREAMBLELSB, preambleLen & 0xFF );
 645:Drivers/BSP/Components/sx1276/sx1276.c **** 
 646:Drivers/BSP/Components/sx1276/sx1276.c ****             SX1276Write( REG_PACKETCONFIG1,
 647:Drivers/BSP/Components/sx1276/sx1276.c ****                          ( SX1276Read( REG_PACKETCONFIG1 ) &
 648:Drivers/BSP/Components/sx1276/sx1276.c ****                            RF_PACKETCONFIG1_CRC_MASK &
 649:Drivers/BSP/Components/sx1276/sx1276.c ****                            RF_PACKETCONFIG1_PACKETFORMAT_MASK ) |
 650:Drivers/BSP/Components/sx1276/sx1276.c ****                            ( ( fixLen == 1 ) ? RF_PACKETCONFIG1_PACKETFORMAT_FIXED : RF_PACKETCONFI
 651:Drivers/BSP/Components/sx1276/sx1276.c ****                            ( crcOn << 4 ) );
 652:Drivers/BSP/Components/sx1276/sx1276.c ****             SX1276Write( REG_PACKETCONFIG2, ( SX1276Read( REG_PACKETCONFIG2 ) | RF_PACKETCONFIG2_DA
 653:Drivers/BSP/Components/sx1276/sx1276.c ****         }
ARM GAS  /var/folders/2m/zqg86yyd4hbf56w83tkxjpvr0000gn/T//ccRNesxV.s 			page 14


 654:Drivers/BSP/Components/sx1276/sx1276.c ****         break;
 655:Drivers/BSP/Components/sx1276/sx1276.c ****     case MODEM_LORA:
 656:Drivers/BSP/Components/sx1276/sx1276.c ****         {
 657:Drivers/BSP/Components/sx1276/sx1276.c ****             SX1276.Settings.LoRa.Power = power;
 658:Drivers/BSP/Components/sx1276/sx1276.c ****             if( bandwidth > 2 )
 659:Drivers/BSP/Components/sx1276/sx1276.c ****             {
 660:Drivers/BSP/Components/sx1276/sx1276.c ****                 // Fatal error: When using LoRa modem only bandwidths 125, 250 and 500 kHz are supp
 661:Drivers/BSP/Components/sx1276/sx1276.c ****                 while( 1 );
 662:Drivers/BSP/Components/sx1276/sx1276.c ****             }
 663:Drivers/BSP/Components/sx1276/sx1276.c ****             bandwidth += 7;
 664:Drivers/BSP/Components/sx1276/sx1276.c ****             SX1276.Settings.LoRa.Bandwidth = bandwidth;
 665:Drivers/BSP/Components/sx1276/sx1276.c ****             SX1276.Settings.LoRa.Datarate = datarate;
 666:Drivers/BSP/Components/sx1276/sx1276.c ****             SX1276.Settings.LoRa.Coderate = coderate;
 667:Drivers/BSP/Components/sx1276/sx1276.c ****             SX1276.Settings.LoRa.PreambleLen = preambleLen;
 668:Drivers/BSP/Components/sx1276/sx1276.c ****             SX1276.Settings.LoRa.FixLen = fixLen;
 669:Drivers/BSP/Components/sx1276/sx1276.c ****             SX1276.Settings.LoRa.FreqHopOn = freqHopOn;
 670:Drivers/BSP/Components/sx1276/sx1276.c ****             SX1276.Settings.LoRa.HopPeriod = hopPeriod;
 671:Drivers/BSP/Components/sx1276/sx1276.c ****             SX1276.Settings.LoRa.CrcOn = crcOn;
 672:Drivers/BSP/Components/sx1276/sx1276.c ****             SX1276.Settings.LoRa.IqInverted = iqInverted;
 673:Drivers/BSP/Components/sx1276/sx1276.c ****             SX1276.Settings.LoRa.TxTimeout = timeout;
 674:Drivers/BSP/Components/sx1276/sx1276.c **** 
 675:Drivers/BSP/Components/sx1276/sx1276.c ****             if( datarate > 12 )
 676:Drivers/BSP/Components/sx1276/sx1276.c ****             {
 677:Drivers/BSP/Components/sx1276/sx1276.c ****                 datarate = 12;
 678:Drivers/BSP/Components/sx1276/sx1276.c ****             }
 679:Drivers/BSP/Components/sx1276/sx1276.c ****             else if( datarate < 6 )
 680:Drivers/BSP/Components/sx1276/sx1276.c ****             {
 681:Drivers/BSP/Components/sx1276/sx1276.c ****                 datarate = 6;
 682:Drivers/BSP/Components/sx1276/sx1276.c ****             }
 683:Drivers/BSP/Components/sx1276/sx1276.c ****             if( ( ( bandwidth == 7 ) && ( ( datarate == 11 ) || ( datarate == 12 ) ) ) ||
 684:Drivers/BSP/Components/sx1276/sx1276.c ****                 ( ( bandwidth == 8 ) && ( datarate == 12 ) ) )
 685:Drivers/BSP/Components/sx1276/sx1276.c ****             {
 686:Drivers/BSP/Components/sx1276/sx1276.c ****                 SX1276.Settings.LoRa.LowDatarateOptimize = 0x01;
 687:Drivers/BSP/Components/sx1276/sx1276.c ****             }
 688:Drivers/BSP/Components/sx1276/sx1276.c ****             else
 689:Drivers/BSP/Components/sx1276/sx1276.c ****             {
 690:Drivers/BSP/Components/sx1276/sx1276.c ****                 SX1276.Settings.LoRa.LowDatarateOptimize = 0x00;
 691:Drivers/BSP/Components/sx1276/sx1276.c ****             }
 692:Drivers/BSP/Components/sx1276/sx1276.c **** 
 693:Drivers/BSP/Components/sx1276/sx1276.c ****             if( SX1276.Settings.LoRa.FreqHopOn == true )
 694:Drivers/BSP/Components/sx1276/sx1276.c ****             {
 695:Drivers/BSP/Components/sx1276/sx1276.c ****                 SX1276Write( REG_LR_PLLHOP, ( SX1276Read( REG_LR_PLLHOP ) & RFLR_PLLHOP_FASTHOP_MAS
 696:Drivers/BSP/Components/sx1276/sx1276.c ****                 SX1276Write( REG_LR_HOPPERIOD, SX1276.Settings.LoRa.HopPeriod );
 697:Drivers/BSP/Components/sx1276/sx1276.c ****             }
 698:Drivers/BSP/Components/sx1276/sx1276.c **** 
 699:Drivers/BSP/Components/sx1276/sx1276.c ****             SX1276Write( REG_LR_MODEMCONFIG1,
 700:Drivers/BSP/Components/sx1276/sx1276.c ****                          ( SX1276Read( REG_LR_MODEMCONFIG1 ) &
 701:Drivers/BSP/Components/sx1276/sx1276.c ****                            RFLR_MODEMCONFIG1_BW_MASK &
 702:Drivers/BSP/Components/sx1276/sx1276.c ****                            RFLR_MODEMCONFIG1_CODINGRATE_MASK &
 703:Drivers/BSP/Components/sx1276/sx1276.c ****                            RFLR_MODEMCONFIG1_IMPLICITHEADER_MASK ) |
 704:Drivers/BSP/Components/sx1276/sx1276.c ****                            ( bandwidth << 4 ) | ( coderate << 1 ) |
 705:Drivers/BSP/Components/sx1276/sx1276.c ****                            fixLen );
 706:Drivers/BSP/Components/sx1276/sx1276.c **** 
 707:Drivers/BSP/Components/sx1276/sx1276.c ****             SX1276Write( REG_LR_MODEMCONFIG2,
 708:Drivers/BSP/Components/sx1276/sx1276.c ****                          ( SX1276Read( REG_LR_MODEMCONFIG2 ) &
 709:Drivers/BSP/Components/sx1276/sx1276.c ****                            RFLR_MODEMCONFIG2_SF_MASK &
 710:Drivers/BSP/Components/sx1276/sx1276.c ****                            RFLR_MODEMCONFIG2_RXPAYLOADCRC_MASK ) |
ARM GAS  /var/folders/2m/zqg86yyd4hbf56w83tkxjpvr0000gn/T//ccRNesxV.s 			page 15


 711:Drivers/BSP/Components/sx1276/sx1276.c ****                            ( datarate << 4 ) | ( crcOn << 2 ) );
 712:Drivers/BSP/Components/sx1276/sx1276.c **** 
 713:Drivers/BSP/Components/sx1276/sx1276.c ****             SX1276Write( REG_LR_MODEMCONFIG3,
 714:Drivers/BSP/Components/sx1276/sx1276.c ****                          ( SX1276Read( REG_LR_MODEMCONFIG3 ) &
 715:Drivers/BSP/Components/sx1276/sx1276.c ****                            RFLR_MODEMCONFIG3_LOWDATARATEOPTIMIZE_MASK ) |
 716:Drivers/BSP/Components/sx1276/sx1276.c ****                            ( SX1276.Settings.LoRa.LowDatarateOptimize << 3 ) );
 717:Drivers/BSP/Components/sx1276/sx1276.c **** 
 718:Drivers/BSP/Components/sx1276/sx1276.c ****             SX1276Write( REG_LR_PREAMBLEMSB, ( preambleLen >> 8 ) & 0x00FF );
 719:Drivers/BSP/Components/sx1276/sx1276.c ****             SX1276Write( REG_LR_PREAMBLELSB, preambleLen & 0xFF );
 720:Drivers/BSP/Components/sx1276/sx1276.c **** 
 721:Drivers/BSP/Components/sx1276/sx1276.c ****             if( datarate == 6 )
 722:Drivers/BSP/Components/sx1276/sx1276.c ****             {
 723:Drivers/BSP/Components/sx1276/sx1276.c ****                 SX1276Write( REG_LR_DETECTOPTIMIZE,
 724:Drivers/BSP/Components/sx1276/sx1276.c ****                              ( SX1276Read( REG_LR_DETECTOPTIMIZE ) &
 725:Drivers/BSP/Components/sx1276/sx1276.c ****                                RFLR_DETECTIONOPTIMIZE_MASK ) |
 726:Drivers/BSP/Components/sx1276/sx1276.c ****                                RFLR_DETECTIONOPTIMIZE_SF6 );
 727:Drivers/BSP/Components/sx1276/sx1276.c ****                 SX1276Write( REG_LR_DETECTIONTHRESHOLD,
 728:Drivers/BSP/Components/sx1276/sx1276.c ****                              RFLR_DETECTIONTHRESH_SF6 );
 729:Drivers/BSP/Components/sx1276/sx1276.c ****             }
 730:Drivers/BSP/Components/sx1276/sx1276.c ****             else
 731:Drivers/BSP/Components/sx1276/sx1276.c ****             {
 732:Drivers/BSP/Components/sx1276/sx1276.c ****                 SX1276Write( REG_LR_DETECTOPTIMIZE,
 733:Drivers/BSP/Components/sx1276/sx1276.c ****                              ( SX1276Read( REG_LR_DETECTOPTIMIZE ) &
 734:Drivers/BSP/Components/sx1276/sx1276.c ****                              RFLR_DETECTIONOPTIMIZE_MASK ) |
 735:Drivers/BSP/Components/sx1276/sx1276.c ****                              RFLR_DETECTIONOPTIMIZE_SF7_TO_SF12 );
 736:Drivers/BSP/Components/sx1276/sx1276.c ****                 SX1276Write( REG_LR_DETECTIONTHRESHOLD,
 737:Drivers/BSP/Components/sx1276/sx1276.c ****                              RFLR_DETECTIONTHRESH_SF7_TO_SF12 );
 738:Drivers/BSP/Components/sx1276/sx1276.c ****             }
 739:Drivers/BSP/Components/sx1276/sx1276.c ****         }
 740:Drivers/BSP/Components/sx1276/sx1276.c ****         break;
 741:Drivers/BSP/Components/sx1276/sx1276.c ****     }
 742:Drivers/BSP/Components/sx1276/sx1276.c **** }
 743:Drivers/BSP/Components/sx1276/sx1276.c **** 
 744:Drivers/BSP/Components/sx1276/sx1276.c **** uint32_t SX1276GetTimeOnAir( RadioModems_t modem, uint8_t pktLen )
 745:Drivers/BSP/Components/sx1276/sx1276.c **** {
 746:Drivers/BSP/Components/sx1276/sx1276.c ****     uint32_t airTime = 0;
 747:Drivers/BSP/Components/sx1276/sx1276.c **** 
 748:Drivers/BSP/Components/sx1276/sx1276.c ****     switch( modem )
 749:Drivers/BSP/Components/sx1276/sx1276.c ****     {
 750:Drivers/BSP/Components/sx1276/sx1276.c ****     case MODEM_FSK:
 751:Drivers/BSP/Components/sx1276/sx1276.c ****         {
 752:Drivers/BSP/Components/sx1276/sx1276.c ****             airTime = (uint32_t) round( ( 8 * ( SX1276.Settings.Fsk.PreambleLen +
 753:Drivers/BSP/Components/sx1276/sx1276.c ****                                      ( ( SX1276Read( REG_SYNCCONFIG ) & ~RF_SYNCCONFIG_SYNCSIZE_MAS
 754:Drivers/BSP/Components/sx1276/sx1276.c ****                                      ( ( SX1276.Settings.Fsk.FixLen == 0x01 ) ? 0.0 : 1.0 ) +
 755:Drivers/BSP/Components/sx1276/sx1276.c ****                                      ( ( ( SX1276Read( REG_PACKETCONFIG1 ) & ~RF_PACKETCONFIG1_ADDR
 756:Drivers/BSP/Components/sx1276/sx1276.c ****                                      pktLen +
 757:Drivers/BSP/Components/sx1276/sx1276.c ****                                      ( ( SX1276.Settings.Fsk.CrcOn == 0x01 ) ? 2.0 : 0 ) ) /
 758:Drivers/BSP/Components/sx1276/sx1276.c ****                                      SX1276.Settings.Fsk.Datarate ) * 1000 );
 759:Drivers/BSP/Components/sx1276/sx1276.c ****         }
 760:Drivers/BSP/Components/sx1276/sx1276.c ****         break;
 761:Drivers/BSP/Components/sx1276/sx1276.c ****     case MODEM_LORA:
 762:Drivers/BSP/Components/sx1276/sx1276.c ****         {
 763:Drivers/BSP/Components/sx1276/sx1276.c ****             double bw = 0.0;
 764:Drivers/BSP/Components/sx1276/sx1276.c ****             // REMARK: When using LoRa modem only bandwidths 125, 250 and 500 kHz are supported
 765:Drivers/BSP/Components/sx1276/sx1276.c ****             switch( SX1276.Settings.LoRa.Bandwidth )
 766:Drivers/BSP/Components/sx1276/sx1276.c ****             {
 767:Drivers/BSP/Components/sx1276/sx1276.c ****             //case 0: // 7.8 kHz
ARM GAS  /var/folders/2m/zqg86yyd4hbf56w83tkxjpvr0000gn/T//ccRNesxV.s 			page 16


 768:Drivers/BSP/Components/sx1276/sx1276.c ****             //    bw = 7800;
 769:Drivers/BSP/Components/sx1276/sx1276.c ****             //    break;
 770:Drivers/BSP/Components/sx1276/sx1276.c ****             //case 1: // 10.4 kHz
 771:Drivers/BSP/Components/sx1276/sx1276.c ****             //    bw = 10400;
 772:Drivers/BSP/Components/sx1276/sx1276.c ****             //    break;
 773:Drivers/BSP/Components/sx1276/sx1276.c ****             //case 2: // 15.6 kHz
 774:Drivers/BSP/Components/sx1276/sx1276.c ****             //    bw = 15600;
 775:Drivers/BSP/Components/sx1276/sx1276.c ****             //    break;
 776:Drivers/BSP/Components/sx1276/sx1276.c ****             //case 3: // 20.8 kHz
 777:Drivers/BSP/Components/sx1276/sx1276.c ****             //    bw = 20800;
 778:Drivers/BSP/Components/sx1276/sx1276.c ****             //    break;
 779:Drivers/BSP/Components/sx1276/sx1276.c ****             //case 4: // 31.2 kHz
 780:Drivers/BSP/Components/sx1276/sx1276.c ****             //    bw = 31200;
 781:Drivers/BSP/Components/sx1276/sx1276.c ****             //    break;
 782:Drivers/BSP/Components/sx1276/sx1276.c ****             //case 5: // 41.4 kHz
 783:Drivers/BSP/Components/sx1276/sx1276.c ****             //    bw = 41400;
 784:Drivers/BSP/Components/sx1276/sx1276.c ****             //    break;
 785:Drivers/BSP/Components/sx1276/sx1276.c ****             //case 6: // 62.5 kHz
 786:Drivers/BSP/Components/sx1276/sx1276.c ****             //    bw = 62500;
 787:Drivers/BSP/Components/sx1276/sx1276.c ****             //    break;
 788:Drivers/BSP/Components/sx1276/sx1276.c ****             case 7: // 125 kHz
 789:Drivers/BSP/Components/sx1276/sx1276.c ****                 bw = 125000;
 790:Drivers/BSP/Components/sx1276/sx1276.c ****                 break;
 791:Drivers/BSP/Components/sx1276/sx1276.c ****             case 8: // 250 kHz
 792:Drivers/BSP/Components/sx1276/sx1276.c ****                 bw = 250000;
 793:Drivers/BSP/Components/sx1276/sx1276.c ****                 break;
 794:Drivers/BSP/Components/sx1276/sx1276.c ****             case 9: // 500 kHz
 795:Drivers/BSP/Components/sx1276/sx1276.c ****                 bw = 500000;
 796:Drivers/BSP/Components/sx1276/sx1276.c ****                 break;
 797:Drivers/BSP/Components/sx1276/sx1276.c ****             }
 798:Drivers/BSP/Components/sx1276/sx1276.c **** 
 799:Drivers/BSP/Components/sx1276/sx1276.c ****             // Symbol rate : time for one symbol (secs)
 800:Drivers/BSP/Components/sx1276/sx1276.c ****             double rs = bw / ( 1 << SX1276.Settings.LoRa.Datarate );
 801:Drivers/BSP/Components/sx1276/sx1276.c ****             double ts = 1 / rs;
 802:Drivers/BSP/Components/sx1276/sx1276.c ****             // time of preamble
 803:Drivers/BSP/Components/sx1276/sx1276.c ****             double tPreamble = ( SX1276.Settings.LoRa.PreambleLen + 4.25 ) * ts;
 804:Drivers/BSP/Components/sx1276/sx1276.c ****             // Symbol length of payload and time
 805:Drivers/BSP/Components/sx1276/sx1276.c ****             double tmp = ceil( ( 8 * pktLen - 4 * SX1276.Settings.LoRa.Datarate +
 806:Drivers/BSP/Components/sx1276/sx1276.c ****                                  28 + 16 * SX1276.Settings.LoRa.CrcOn -
 807:Drivers/BSP/Components/sx1276/sx1276.c ****                                  ( SX1276.Settings.LoRa.FixLen ? 20 : 0 ) ) /
 808:Drivers/BSP/Components/sx1276/sx1276.c ****                                  ( double )( 4 * ( SX1276.Settings.LoRa.Datarate -
 809:Drivers/BSP/Components/sx1276/sx1276.c ****                                  ( ( SX1276.Settings.LoRa.LowDatarateOptimize > 0 ) ? 2 : 0 ) ) ) )
 810:Drivers/BSP/Components/sx1276/sx1276.c ****                                  ( SX1276.Settings.LoRa.Coderate + 4 );
 811:Drivers/BSP/Components/sx1276/sx1276.c ****             double nPayload = 8 + ( ( tmp > 0 ) ? tmp : 0 );
 812:Drivers/BSP/Components/sx1276/sx1276.c ****             double tPayload = nPayload * ts;
 813:Drivers/BSP/Components/sx1276/sx1276.c ****             // Time on air
 814:Drivers/BSP/Components/sx1276/sx1276.c ****             double tOnAir = tPreamble + tPayload;
 815:Drivers/BSP/Components/sx1276/sx1276.c ****             // return ms secs
 816:Drivers/BSP/Components/sx1276/sx1276.c ****             airTime = (uint32_t) floor( tOnAir * 1000 + 0.999 );
 817:Drivers/BSP/Components/sx1276/sx1276.c ****         }
 818:Drivers/BSP/Components/sx1276/sx1276.c ****         break;
 819:Drivers/BSP/Components/sx1276/sx1276.c ****     }
 820:Drivers/BSP/Components/sx1276/sx1276.c ****     return airTime;
 821:Drivers/BSP/Components/sx1276/sx1276.c **** }
 822:Drivers/BSP/Components/sx1276/sx1276.c **** 
 823:Drivers/BSP/Components/sx1276/sx1276.c **** void SX1276Send( uint8_t *buffer, uint8_t size )
 824:Drivers/BSP/Components/sx1276/sx1276.c **** {
ARM GAS  /var/folders/2m/zqg86yyd4hbf56w83tkxjpvr0000gn/T//ccRNesxV.s 			page 17


 825:Drivers/BSP/Components/sx1276/sx1276.c ****     uint32_t txTimeout = 0;
 826:Drivers/BSP/Components/sx1276/sx1276.c **** 
 827:Drivers/BSP/Components/sx1276/sx1276.c ****     switch( SX1276.Settings.Modem )
 828:Drivers/BSP/Components/sx1276/sx1276.c ****     {
 829:Drivers/BSP/Components/sx1276/sx1276.c ****     case MODEM_FSK:
 830:Drivers/BSP/Components/sx1276/sx1276.c ****         {
 831:Drivers/BSP/Components/sx1276/sx1276.c ****             SX1276.Settings.FskPacketHandler.NbBytes = 0;
 832:Drivers/BSP/Components/sx1276/sx1276.c ****             SX1276.Settings.FskPacketHandler.Size = size;
 833:Drivers/BSP/Components/sx1276/sx1276.c **** 
 834:Drivers/BSP/Components/sx1276/sx1276.c ****             if( SX1276.Settings.Fsk.FixLen == false )
 835:Drivers/BSP/Components/sx1276/sx1276.c ****             {
 836:Drivers/BSP/Components/sx1276/sx1276.c ****                 SX1276WriteFifo( ( uint8_t* )&size, 1 );
 837:Drivers/BSP/Components/sx1276/sx1276.c ****             }
 838:Drivers/BSP/Components/sx1276/sx1276.c ****             else
 839:Drivers/BSP/Components/sx1276/sx1276.c ****             {
 840:Drivers/BSP/Components/sx1276/sx1276.c ****                 SX1276Write( REG_PAYLOADLENGTH, size );
 841:Drivers/BSP/Components/sx1276/sx1276.c ****             }
 842:Drivers/BSP/Components/sx1276/sx1276.c **** 
 843:Drivers/BSP/Components/sx1276/sx1276.c ****             if( ( size > 0 ) && ( size <= 64 ) )
 844:Drivers/BSP/Components/sx1276/sx1276.c ****             {
 845:Drivers/BSP/Components/sx1276/sx1276.c ****                 SX1276.Settings.FskPacketHandler.ChunkSize = size;
 846:Drivers/BSP/Components/sx1276/sx1276.c ****             }
 847:Drivers/BSP/Components/sx1276/sx1276.c ****             else
 848:Drivers/BSP/Components/sx1276/sx1276.c ****             {
 849:Drivers/BSP/Components/sx1276/sx1276.c ****                 memcpy1( RxTxBuffer, buffer, size );
 850:Drivers/BSP/Components/sx1276/sx1276.c ****                 SX1276.Settings.FskPacketHandler.ChunkSize = 32;
 851:Drivers/BSP/Components/sx1276/sx1276.c ****             }
 852:Drivers/BSP/Components/sx1276/sx1276.c **** 
 853:Drivers/BSP/Components/sx1276/sx1276.c ****             // Write payload buffer
 854:Drivers/BSP/Components/sx1276/sx1276.c ****             SX1276WriteFifo( buffer, SX1276.Settings.FskPacketHandler.ChunkSize );
 855:Drivers/BSP/Components/sx1276/sx1276.c ****             SX1276.Settings.FskPacketHandler.NbBytes += SX1276.Settings.FskPacketHandler.ChunkSize;
 856:Drivers/BSP/Components/sx1276/sx1276.c ****             txTimeout = SX1276.Settings.Fsk.TxTimeout;
 857:Drivers/BSP/Components/sx1276/sx1276.c ****         }
 858:Drivers/BSP/Components/sx1276/sx1276.c ****         break;
 859:Drivers/BSP/Components/sx1276/sx1276.c ****     case MODEM_LORA:
 860:Drivers/BSP/Components/sx1276/sx1276.c ****         {
 861:Drivers/BSP/Components/sx1276/sx1276.c ****             if( SX1276.Settings.LoRa.IqInverted == true )
 862:Drivers/BSP/Components/sx1276/sx1276.c ****             {
 863:Drivers/BSP/Components/sx1276/sx1276.c ****                 SX1276Write( REG_LR_INVERTIQ, ( ( SX1276Read( REG_LR_INVERTIQ ) & RFLR_INVERTIQ_TX_
 864:Drivers/BSP/Components/sx1276/sx1276.c ****                 SX1276Write( REG_LR_INVERTIQ2, RFLR_INVERTIQ2_ON );
 865:Drivers/BSP/Components/sx1276/sx1276.c ****             }
 866:Drivers/BSP/Components/sx1276/sx1276.c ****             else
 867:Drivers/BSP/Components/sx1276/sx1276.c ****             {
 868:Drivers/BSP/Components/sx1276/sx1276.c ****                 SX1276Write( REG_LR_INVERTIQ, ( ( SX1276Read( REG_LR_INVERTIQ ) & RFLR_INVERTIQ_TX_
 869:Drivers/BSP/Components/sx1276/sx1276.c ****                 SX1276Write( REG_LR_INVERTIQ2, RFLR_INVERTIQ2_OFF );
 870:Drivers/BSP/Components/sx1276/sx1276.c ****             }
 871:Drivers/BSP/Components/sx1276/sx1276.c **** 
 872:Drivers/BSP/Components/sx1276/sx1276.c ****             SX1276.Settings.LoRaPacketHandler.Size = size;
 873:Drivers/BSP/Components/sx1276/sx1276.c **** 
 874:Drivers/BSP/Components/sx1276/sx1276.c ****             // Initializes the payload size
 875:Drivers/BSP/Components/sx1276/sx1276.c ****             SX1276Write( REG_LR_PAYLOADLENGTH, size );
 876:Drivers/BSP/Components/sx1276/sx1276.c **** 
 877:Drivers/BSP/Components/sx1276/sx1276.c ****             // Full buffer used for Tx
 878:Drivers/BSP/Components/sx1276/sx1276.c ****             SX1276Write( REG_LR_FIFOTXBASEADDR, 0 );
 879:Drivers/BSP/Components/sx1276/sx1276.c ****             SX1276Write( REG_LR_FIFOADDRPTR, 0 );
 880:Drivers/BSP/Components/sx1276/sx1276.c **** 
 881:Drivers/BSP/Components/sx1276/sx1276.c ****             // FIFO operations can not take place in Sleep mode
ARM GAS  /var/folders/2m/zqg86yyd4hbf56w83tkxjpvr0000gn/T//ccRNesxV.s 			page 18


 882:Drivers/BSP/Components/sx1276/sx1276.c ****             if( ( SX1276Read( REG_OPMODE ) & ~RF_OPMODE_MASK ) == RF_OPMODE_SLEEP )
 883:Drivers/BSP/Components/sx1276/sx1276.c ****             {
 884:Drivers/BSP/Components/sx1276/sx1276.c ****                 SX1276SetStby( );
 885:Drivers/BSP/Components/sx1276/sx1276.c ****                 DelayMs( 1 );
 886:Drivers/BSP/Components/sx1276/sx1276.c ****             }
 887:Drivers/BSP/Components/sx1276/sx1276.c ****             // Write payload buffer
 888:Drivers/BSP/Components/sx1276/sx1276.c ****             SX1276WriteFifo( buffer, size );
 889:Drivers/BSP/Components/sx1276/sx1276.c ****             txTimeout = SX1276.Settings.LoRa.TxTimeout;
 890:Drivers/BSP/Components/sx1276/sx1276.c ****         }
 891:Drivers/BSP/Components/sx1276/sx1276.c ****         break;
 892:Drivers/BSP/Components/sx1276/sx1276.c ****     }
 893:Drivers/BSP/Components/sx1276/sx1276.c **** 
 894:Drivers/BSP/Components/sx1276/sx1276.c ****     SX1276SetTx( txTimeout );
 895:Drivers/BSP/Components/sx1276/sx1276.c **** }
 896:Drivers/BSP/Components/sx1276/sx1276.c **** 
 897:Drivers/BSP/Components/sx1276/sx1276.c **** void SX1276SetSleep( void )
 898:Drivers/BSP/Components/sx1276/sx1276.c **** {
 899:Drivers/BSP/Components/sx1276/sx1276.c ****     TimerStop( &RxTimeoutTimer );
 900:Drivers/BSP/Components/sx1276/sx1276.c ****     TimerStop( &TxTimeoutTimer );
 901:Drivers/BSP/Components/sx1276/sx1276.c **** 
 902:Drivers/BSP/Components/sx1276/sx1276.c ****     SX1276SetOpMode( RF_OPMODE_SLEEP );
 903:Drivers/BSP/Components/sx1276/sx1276.c ****     SX1276.Settings.State = RF_IDLE;
 904:Drivers/BSP/Components/sx1276/sx1276.c **** }
 905:Drivers/BSP/Components/sx1276/sx1276.c **** 
 906:Drivers/BSP/Components/sx1276/sx1276.c **** void SX1276SetStby( void )
 907:Drivers/BSP/Components/sx1276/sx1276.c **** {
 908:Drivers/BSP/Components/sx1276/sx1276.c ****     TimerStop( &RxTimeoutTimer );
 909:Drivers/BSP/Components/sx1276/sx1276.c ****     TimerStop( &TxTimeoutTimer );
 910:Drivers/BSP/Components/sx1276/sx1276.c **** 
 911:Drivers/BSP/Components/sx1276/sx1276.c ****     SX1276SetOpMode( RF_OPMODE_STANDBY );
 912:Drivers/BSP/Components/sx1276/sx1276.c ****     SX1276.Settings.State = RF_IDLE;
 913:Drivers/BSP/Components/sx1276/sx1276.c **** }
 914:Drivers/BSP/Components/sx1276/sx1276.c **** 
 915:Drivers/BSP/Components/sx1276/sx1276.c **** void SX1276SetRx( uint32_t timeout )
 916:Drivers/BSP/Components/sx1276/sx1276.c **** {
 917:Drivers/BSP/Components/sx1276/sx1276.c ****     bool rxContinuous = false;
 918:Drivers/BSP/Components/sx1276/sx1276.c **** 
 919:Drivers/BSP/Components/sx1276/sx1276.c ****     switch( SX1276.Settings.Modem )
 920:Drivers/BSP/Components/sx1276/sx1276.c ****     {
 921:Drivers/BSP/Components/sx1276/sx1276.c ****     case MODEM_FSK:
 922:Drivers/BSP/Components/sx1276/sx1276.c ****         {
 923:Drivers/BSP/Components/sx1276/sx1276.c ****             rxContinuous = SX1276.Settings.Fsk.RxContinuous;
 924:Drivers/BSP/Components/sx1276/sx1276.c **** 
 925:Drivers/BSP/Components/sx1276/sx1276.c ****             // DIO0=PayloadReady
 926:Drivers/BSP/Components/sx1276/sx1276.c ****             // DIO1=FifoLevel
 927:Drivers/BSP/Components/sx1276/sx1276.c ****             // DIO2=SyncAddr
 928:Drivers/BSP/Components/sx1276/sx1276.c ****             // DIO3=FifoEmpty
 929:Drivers/BSP/Components/sx1276/sx1276.c ****             // DIO4=Preamble
 930:Drivers/BSP/Components/sx1276/sx1276.c ****             // DIO5=ModeReady
 931:Drivers/BSP/Components/sx1276/sx1276.c ****             SX1276Write( REG_DIOMAPPING1, ( SX1276Read( REG_DIOMAPPING1 ) & RF_DIOMAPPING1_DIO0_MAS
 932:Drivers/BSP/Components/sx1276/sx1276.c ****                                                                             RF_DIOMAPPING1_DIO1_MAS
 933:Drivers/BSP/Components/sx1276/sx1276.c ****                                                                             RF_DIOMAPPING1_DIO2_MAS
 934:Drivers/BSP/Components/sx1276/sx1276.c ****                                                                             RF_DIOMAPPING1_DIO0_00 
 935:Drivers/BSP/Components/sx1276/sx1276.c ****                                                                             RF_DIOMAPPING1_DIO1_00 
 936:Drivers/BSP/Components/sx1276/sx1276.c ****                                                                             RF_DIOMAPPING1_DIO2_11 
 937:Drivers/BSP/Components/sx1276/sx1276.c **** 
 938:Drivers/BSP/Components/sx1276/sx1276.c ****             SX1276Write( REG_DIOMAPPING2, ( SX1276Read( REG_DIOMAPPING2 ) & RF_DIOMAPPING2_DIO4_MAS
ARM GAS  /var/folders/2m/zqg86yyd4hbf56w83tkxjpvr0000gn/T//ccRNesxV.s 			page 19


 939:Drivers/BSP/Components/sx1276/sx1276.c ****                                                                             RF_DIOMAPPING2_MAP_MASK
 940:Drivers/BSP/Components/sx1276/sx1276.c ****                                                                             RF_DIOMAPPING2_DIO4_11 
 941:Drivers/BSP/Components/sx1276/sx1276.c ****                                                                             RF_DIOMAPPING2_MAP_PREA
 942:Drivers/BSP/Components/sx1276/sx1276.c **** 
 943:Drivers/BSP/Components/sx1276/sx1276.c ****             SX1276.Settings.FskPacketHandler.FifoThresh = SX1276Read( REG_FIFOTHRESH ) & 0x3F;
 944:Drivers/BSP/Components/sx1276/sx1276.c **** 
 945:Drivers/BSP/Components/sx1276/sx1276.c ****             SX1276Write( REG_RXCONFIG, RF_RXCONFIG_AFCAUTO_ON | RF_RXCONFIG_AGCAUTO_ON | RF_RXCONFI
 946:Drivers/BSP/Components/sx1276/sx1276.c **** 
 947:Drivers/BSP/Components/sx1276/sx1276.c ****             SX1276.Settings.FskPacketHandler.PreambleDetected = false;
 948:Drivers/BSP/Components/sx1276/sx1276.c ****             SX1276.Settings.FskPacketHandler.SyncWordDetected = false;
 949:Drivers/BSP/Components/sx1276/sx1276.c ****             SX1276.Settings.FskPacketHandler.NbBytes = 0;
 950:Drivers/BSP/Components/sx1276/sx1276.c ****             SX1276.Settings.FskPacketHandler.Size = 0;
 951:Drivers/BSP/Components/sx1276/sx1276.c ****         }
 952:Drivers/BSP/Components/sx1276/sx1276.c ****         break;
 953:Drivers/BSP/Components/sx1276/sx1276.c ****     case MODEM_LORA:
 954:Drivers/BSP/Components/sx1276/sx1276.c ****         {
 955:Drivers/BSP/Components/sx1276/sx1276.c ****             if( SX1276.Settings.LoRa.IqInverted == true )
 956:Drivers/BSP/Components/sx1276/sx1276.c ****             {
 957:Drivers/BSP/Components/sx1276/sx1276.c ****                 SX1276Write( REG_LR_INVERTIQ, ( ( SX1276Read( REG_LR_INVERTIQ ) & RFLR_INVERTIQ_TX_
 958:Drivers/BSP/Components/sx1276/sx1276.c ****                 SX1276Write( REG_LR_INVERTIQ2, RFLR_INVERTIQ2_ON );
 959:Drivers/BSP/Components/sx1276/sx1276.c ****             }
 960:Drivers/BSP/Components/sx1276/sx1276.c ****             else
 961:Drivers/BSP/Components/sx1276/sx1276.c ****             {
 962:Drivers/BSP/Components/sx1276/sx1276.c ****                 SX1276Write( REG_LR_INVERTIQ, ( ( SX1276Read( REG_LR_INVERTIQ ) & RFLR_INVERTIQ_TX_
 963:Drivers/BSP/Components/sx1276/sx1276.c ****                 SX1276Write( REG_LR_INVERTIQ2, RFLR_INVERTIQ2_OFF );
 964:Drivers/BSP/Components/sx1276/sx1276.c ****             }
 965:Drivers/BSP/Components/sx1276/sx1276.c **** 
 966:Drivers/BSP/Components/sx1276/sx1276.c ****             // ERRATA 2.3 - Receiver Spurious Reception of a LoRa Signal
 967:Drivers/BSP/Components/sx1276/sx1276.c ****             if( SX1276.Settings.LoRa.Bandwidth < 9 )
 968:Drivers/BSP/Components/sx1276/sx1276.c ****             {
 969:Drivers/BSP/Components/sx1276/sx1276.c ****                 SX1276Write( REG_LR_DETECTOPTIMIZE, SX1276Read( REG_LR_DETECTOPTIMIZE ) & 0x7F );
 970:Drivers/BSP/Components/sx1276/sx1276.c ****                 SX1276Write( REG_LR_TEST30, 0x00 );
 971:Drivers/BSP/Components/sx1276/sx1276.c ****                 switch( SX1276.Settings.LoRa.Bandwidth )
 972:Drivers/BSP/Components/sx1276/sx1276.c ****                 {
 973:Drivers/BSP/Components/sx1276/sx1276.c ****                 case 0: // 7.8 kHz
 974:Drivers/BSP/Components/sx1276/sx1276.c ****                     SX1276Write( REG_LR_TEST2F, 0x48 );
 975:Drivers/BSP/Components/sx1276/sx1276.c ****                     SX1276SetChannel(SX1276.Settings.Channel + 7810 );
 976:Drivers/BSP/Components/sx1276/sx1276.c ****                     break;
 977:Drivers/BSP/Components/sx1276/sx1276.c ****                 case 1: // 10.4 kHz
 978:Drivers/BSP/Components/sx1276/sx1276.c ****                     SX1276Write( REG_LR_TEST2F, 0x44 );
 979:Drivers/BSP/Components/sx1276/sx1276.c ****                     SX1276SetChannel(SX1276.Settings.Channel + 10420 );
 980:Drivers/BSP/Components/sx1276/sx1276.c ****                     break;
 981:Drivers/BSP/Components/sx1276/sx1276.c ****                 case 2: // 15.6 kHz
 982:Drivers/BSP/Components/sx1276/sx1276.c ****                     SX1276Write( REG_LR_TEST2F, 0x44 );
 983:Drivers/BSP/Components/sx1276/sx1276.c ****                     SX1276SetChannel(SX1276.Settings.Channel + 15620 );
 984:Drivers/BSP/Components/sx1276/sx1276.c ****                     break;
 985:Drivers/BSP/Components/sx1276/sx1276.c ****                 case 3: // 20.8 kHz
 986:Drivers/BSP/Components/sx1276/sx1276.c ****                     SX1276Write( REG_LR_TEST2F, 0x44 );
 987:Drivers/BSP/Components/sx1276/sx1276.c ****                     SX1276SetChannel(SX1276.Settings.Channel + 20830 );
 988:Drivers/BSP/Components/sx1276/sx1276.c ****                     break;
 989:Drivers/BSP/Components/sx1276/sx1276.c ****                 case 4: // 31.2 kHz
 990:Drivers/BSP/Components/sx1276/sx1276.c ****                     SX1276Write( REG_LR_TEST2F, 0x44 );
 991:Drivers/BSP/Components/sx1276/sx1276.c ****                     SX1276SetChannel(SX1276.Settings.Channel + 31250 );
 992:Drivers/BSP/Components/sx1276/sx1276.c ****                     break;
 993:Drivers/BSP/Components/sx1276/sx1276.c ****                 case 5: // 41.4 kHz
 994:Drivers/BSP/Components/sx1276/sx1276.c ****                     SX1276Write( REG_LR_TEST2F, 0x44 );
 995:Drivers/BSP/Components/sx1276/sx1276.c ****                     SX1276SetChannel(SX1276.Settings.Channel + 41670 );
ARM GAS  /var/folders/2m/zqg86yyd4hbf56w83tkxjpvr0000gn/T//ccRNesxV.s 			page 20


 996:Drivers/BSP/Components/sx1276/sx1276.c ****                     break;
 997:Drivers/BSP/Components/sx1276/sx1276.c ****                 case 6: // 62.5 kHz
 998:Drivers/BSP/Components/sx1276/sx1276.c ****                     SX1276Write( REG_LR_TEST2F, 0x40 );
 999:Drivers/BSP/Components/sx1276/sx1276.c ****                     break;
1000:Drivers/BSP/Components/sx1276/sx1276.c ****                 case 7: // 125 kHz
1001:Drivers/BSP/Components/sx1276/sx1276.c ****                     SX1276Write( REG_LR_TEST2F, 0x40 );
1002:Drivers/BSP/Components/sx1276/sx1276.c ****                     break;
1003:Drivers/BSP/Components/sx1276/sx1276.c ****                 case 8: // 250 kHz
1004:Drivers/BSP/Components/sx1276/sx1276.c ****                     SX1276Write( REG_LR_TEST2F, 0x40 );
1005:Drivers/BSP/Components/sx1276/sx1276.c ****                     break;
1006:Drivers/BSP/Components/sx1276/sx1276.c ****                 }
1007:Drivers/BSP/Components/sx1276/sx1276.c ****             }
1008:Drivers/BSP/Components/sx1276/sx1276.c ****             else
1009:Drivers/BSP/Components/sx1276/sx1276.c ****             {
1010:Drivers/BSP/Components/sx1276/sx1276.c ****                 SX1276Write( REG_LR_DETECTOPTIMIZE, SX1276Read( REG_LR_DETECTOPTIMIZE ) | 0x80 );
1011:Drivers/BSP/Components/sx1276/sx1276.c ****             }
1012:Drivers/BSP/Components/sx1276/sx1276.c **** 
1013:Drivers/BSP/Components/sx1276/sx1276.c ****             rxContinuous = SX1276.Settings.LoRa.RxContinuous;
1014:Drivers/BSP/Components/sx1276/sx1276.c **** 
1015:Drivers/BSP/Components/sx1276/sx1276.c ****             if( SX1276.Settings.LoRa.FreqHopOn == true )
1016:Drivers/BSP/Components/sx1276/sx1276.c ****             {
1017:Drivers/BSP/Components/sx1276/sx1276.c ****                 SX1276Write( REG_LR_IRQFLAGSMASK, //RFLR_IRQFLAGS_RXTIMEOUT |
1018:Drivers/BSP/Components/sx1276/sx1276.c ****                                                   //RFLR_IRQFLAGS_RXDONE |
1019:Drivers/BSP/Components/sx1276/sx1276.c ****                                                   //RFLR_IRQFLAGS_PAYLOADCRCERROR |
1020:Drivers/BSP/Components/sx1276/sx1276.c ****                                                   RFLR_IRQFLAGS_VALIDHEADER |
1021:Drivers/BSP/Components/sx1276/sx1276.c ****                                                   RFLR_IRQFLAGS_TXDONE |
1022:Drivers/BSP/Components/sx1276/sx1276.c ****                                                   RFLR_IRQFLAGS_CADDONE |
1023:Drivers/BSP/Components/sx1276/sx1276.c ****                                                   //RFLR_IRQFLAGS_FHSSCHANGEDCHANNEL |
1024:Drivers/BSP/Components/sx1276/sx1276.c ****                                                   RFLR_IRQFLAGS_CADDETECTED );
1025:Drivers/BSP/Components/sx1276/sx1276.c **** 
1026:Drivers/BSP/Components/sx1276/sx1276.c ****                 // DIO0=RxDone, DIO2=FhssChangeChannel
1027:Drivers/BSP/Components/sx1276/sx1276.c ****                 SX1276Write( REG_DIOMAPPING1, ( SX1276Read( REG_DIOMAPPING1 ) & RFLR_DIOMAPPING1_DI
1028:Drivers/BSP/Components/sx1276/sx1276.c ****             }
1029:Drivers/BSP/Components/sx1276/sx1276.c ****             else
1030:Drivers/BSP/Components/sx1276/sx1276.c ****             {
1031:Drivers/BSP/Components/sx1276/sx1276.c ****                 SX1276Write( REG_LR_IRQFLAGSMASK, //RFLR_IRQFLAGS_RXTIMEOUT |
1032:Drivers/BSP/Components/sx1276/sx1276.c ****                                                   //RFLR_IRQFLAGS_RXDONE |
1033:Drivers/BSP/Components/sx1276/sx1276.c ****                                                   //RFLR_IRQFLAGS_PAYLOADCRCERROR |
1034:Drivers/BSP/Components/sx1276/sx1276.c ****                                                   RFLR_IRQFLAGS_VALIDHEADER |
1035:Drivers/BSP/Components/sx1276/sx1276.c ****                                                   RFLR_IRQFLAGS_TXDONE |
1036:Drivers/BSP/Components/sx1276/sx1276.c ****                                                   RFLR_IRQFLAGS_CADDONE |
1037:Drivers/BSP/Components/sx1276/sx1276.c ****                                                   RFLR_IRQFLAGS_FHSSCHANGEDCHANNEL |
1038:Drivers/BSP/Components/sx1276/sx1276.c ****                                                   RFLR_IRQFLAGS_CADDETECTED );
1039:Drivers/BSP/Components/sx1276/sx1276.c **** 
1040:Drivers/BSP/Components/sx1276/sx1276.c ****                 // DIO0=RxDone
1041:Drivers/BSP/Components/sx1276/sx1276.c ****                 SX1276Write( REG_DIOMAPPING1, ( SX1276Read( REG_DIOMAPPING1 ) & RFLR_DIOMAPPING1_DI
1042:Drivers/BSP/Components/sx1276/sx1276.c ****             }
1043:Drivers/BSP/Components/sx1276/sx1276.c ****             SX1276Write( REG_LR_FIFORXBASEADDR, 0 );
1044:Drivers/BSP/Components/sx1276/sx1276.c ****             SX1276Write( REG_LR_FIFOADDRPTR, 0 );
1045:Drivers/BSP/Components/sx1276/sx1276.c ****         }
1046:Drivers/BSP/Components/sx1276/sx1276.c ****         break;
1047:Drivers/BSP/Components/sx1276/sx1276.c ****     }
1048:Drivers/BSP/Components/sx1276/sx1276.c **** 
1049:Drivers/BSP/Components/sx1276/sx1276.c ****     memset( RxTxBuffer, 0, ( size_t )RX_BUFFER_SIZE );
1050:Drivers/BSP/Components/sx1276/sx1276.c **** 
1051:Drivers/BSP/Components/sx1276/sx1276.c ****     SX1276.Settings.State = RF_RX_RUNNING;
1052:Drivers/BSP/Components/sx1276/sx1276.c ****     if( timeout != 0 )
ARM GAS  /var/folders/2m/zqg86yyd4hbf56w83tkxjpvr0000gn/T//ccRNesxV.s 			page 21


1053:Drivers/BSP/Components/sx1276/sx1276.c ****     {
1054:Drivers/BSP/Components/sx1276/sx1276.c ****         TimerSetValue( &RxTimeoutTimer, timeout );
1055:Drivers/BSP/Components/sx1276/sx1276.c ****         TimerStart( &RxTimeoutTimer );
1056:Drivers/BSP/Components/sx1276/sx1276.c ****     }
1057:Drivers/BSP/Components/sx1276/sx1276.c **** 
1058:Drivers/BSP/Components/sx1276/sx1276.c ****     if( SX1276.Settings.Modem == MODEM_FSK )
1059:Drivers/BSP/Components/sx1276/sx1276.c ****     {
1060:Drivers/BSP/Components/sx1276/sx1276.c ****         SX1276SetOpMode( RF_OPMODE_RECEIVER );
1061:Drivers/BSP/Components/sx1276/sx1276.c **** 
1062:Drivers/BSP/Components/sx1276/sx1276.c ****         if( rxContinuous == false )
1063:Drivers/BSP/Components/sx1276/sx1276.c ****         {
1064:Drivers/BSP/Components/sx1276/sx1276.c ****             TimerSetValue( &RxTimeoutSyncWord, SX1276.Settings.Fsk.RxSingleTimeout );
1065:Drivers/BSP/Components/sx1276/sx1276.c ****             TimerStart( &RxTimeoutSyncWord );
1066:Drivers/BSP/Components/sx1276/sx1276.c ****         }
1067:Drivers/BSP/Components/sx1276/sx1276.c ****     }
1068:Drivers/BSP/Components/sx1276/sx1276.c ****     else
1069:Drivers/BSP/Components/sx1276/sx1276.c ****     {
1070:Drivers/BSP/Components/sx1276/sx1276.c ****         if( rxContinuous == true )
1071:Drivers/BSP/Components/sx1276/sx1276.c ****         {
1072:Drivers/BSP/Components/sx1276/sx1276.c ****             SX1276SetOpMode( RFLR_OPMODE_RECEIVER );
1073:Drivers/BSP/Components/sx1276/sx1276.c ****         }
1074:Drivers/BSP/Components/sx1276/sx1276.c ****         else
1075:Drivers/BSP/Components/sx1276/sx1276.c ****         {
1076:Drivers/BSP/Components/sx1276/sx1276.c ****             SX1276SetOpMode( RFLR_OPMODE_RECEIVER_SINGLE );
1077:Drivers/BSP/Components/sx1276/sx1276.c ****         }
1078:Drivers/BSP/Components/sx1276/sx1276.c ****     }
1079:Drivers/BSP/Components/sx1276/sx1276.c **** }
1080:Drivers/BSP/Components/sx1276/sx1276.c **** 
1081:Drivers/BSP/Components/sx1276/sx1276.c **** void SX1276SetTx( uint32_t timeout )
1082:Drivers/BSP/Components/sx1276/sx1276.c **** {
1083:Drivers/BSP/Components/sx1276/sx1276.c ****     TimerSetValue( &TxTimeoutTimer, timeout );
1084:Drivers/BSP/Components/sx1276/sx1276.c **** 
1085:Drivers/BSP/Components/sx1276/sx1276.c ****     switch( SX1276.Settings.Modem )
1086:Drivers/BSP/Components/sx1276/sx1276.c ****     {
1087:Drivers/BSP/Components/sx1276/sx1276.c ****     case MODEM_FSK:
1088:Drivers/BSP/Components/sx1276/sx1276.c ****         {
1089:Drivers/BSP/Components/sx1276/sx1276.c ****             // DIO0=PacketSent
1090:Drivers/BSP/Components/sx1276/sx1276.c ****             // DIO1=FifoEmpty
1091:Drivers/BSP/Components/sx1276/sx1276.c ****             // DIO2=FifoFull
1092:Drivers/BSP/Components/sx1276/sx1276.c ****             // DIO3=FifoEmpty
1093:Drivers/BSP/Components/sx1276/sx1276.c ****             // DIO4=LowBat
1094:Drivers/BSP/Components/sx1276/sx1276.c ****             // DIO5=ModeReady
1095:Drivers/BSP/Components/sx1276/sx1276.c ****             SX1276Write( REG_DIOMAPPING1, ( SX1276Read( REG_DIOMAPPING1 ) & RF_DIOMAPPING1_DIO0_MAS
1096:Drivers/BSP/Components/sx1276/sx1276.c ****                                                                             RF_DIOMAPPING1_DIO1_MAS
1097:Drivers/BSP/Components/sx1276/sx1276.c ****                                                                             RF_DIOMAPPING1_DIO2_MAS
1098:Drivers/BSP/Components/sx1276/sx1276.c ****                                                                             RF_DIOMAPPING1_DIO1_01 
1099:Drivers/BSP/Components/sx1276/sx1276.c **** 
1100:Drivers/BSP/Components/sx1276/sx1276.c ****             SX1276Write( REG_DIOMAPPING2, ( SX1276Read( REG_DIOMAPPING2 ) & RF_DIOMAPPING2_DIO4_MAS
1101:Drivers/BSP/Components/sx1276/sx1276.c ****                                                                             RF_DIOMAPPING2_MAP_MASK
1102:Drivers/BSP/Components/sx1276/sx1276.c ****             SX1276.Settings.FskPacketHandler.FifoThresh = SX1276Read( REG_FIFOTHRESH ) & 0x3F;
1103:Drivers/BSP/Components/sx1276/sx1276.c ****         }
1104:Drivers/BSP/Components/sx1276/sx1276.c ****         break;
1105:Drivers/BSP/Components/sx1276/sx1276.c ****     case MODEM_LORA:
1106:Drivers/BSP/Components/sx1276/sx1276.c ****         {
1107:Drivers/BSP/Components/sx1276/sx1276.c ****             if( SX1276.Settings.LoRa.FreqHopOn == true )
1108:Drivers/BSP/Components/sx1276/sx1276.c ****             {
1109:Drivers/BSP/Components/sx1276/sx1276.c ****                 SX1276Write( REG_LR_IRQFLAGSMASK, RFLR_IRQFLAGS_RXTIMEOUT |
ARM GAS  /var/folders/2m/zqg86yyd4hbf56w83tkxjpvr0000gn/T//ccRNesxV.s 			page 22


1110:Drivers/BSP/Components/sx1276/sx1276.c ****                                                   RFLR_IRQFLAGS_RXDONE |
1111:Drivers/BSP/Components/sx1276/sx1276.c ****                                                   RFLR_IRQFLAGS_PAYLOADCRCERROR |
1112:Drivers/BSP/Components/sx1276/sx1276.c ****                                                   RFLR_IRQFLAGS_VALIDHEADER |
1113:Drivers/BSP/Components/sx1276/sx1276.c ****                                                   //RFLR_IRQFLAGS_TXDONE |
1114:Drivers/BSP/Components/sx1276/sx1276.c ****                                                   RFLR_IRQFLAGS_CADDONE |
1115:Drivers/BSP/Components/sx1276/sx1276.c ****                                                   //RFLR_IRQFLAGS_FHSSCHANGEDCHANNEL |
1116:Drivers/BSP/Components/sx1276/sx1276.c ****                                                   RFLR_IRQFLAGS_CADDETECTED );
1117:Drivers/BSP/Components/sx1276/sx1276.c **** 
1118:Drivers/BSP/Components/sx1276/sx1276.c ****                 // DIO0=TxDone, DIO2=FhssChangeChannel
1119:Drivers/BSP/Components/sx1276/sx1276.c ****                 SX1276Write( REG_DIOMAPPING1, ( SX1276Read( REG_DIOMAPPING1 ) & RFLR_DIOMAPPING1_DI
1120:Drivers/BSP/Components/sx1276/sx1276.c ****             }
1121:Drivers/BSP/Components/sx1276/sx1276.c ****             else
1122:Drivers/BSP/Components/sx1276/sx1276.c ****             {
1123:Drivers/BSP/Components/sx1276/sx1276.c ****                 SX1276Write( REG_LR_IRQFLAGSMASK, RFLR_IRQFLAGS_RXTIMEOUT |
1124:Drivers/BSP/Components/sx1276/sx1276.c ****                                                   RFLR_IRQFLAGS_RXDONE |
1125:Drivers/BSP/Components/sx1276/sx1276.c ****                                                   RFLR_IRQFLAGS_PAYLOADCRCERROR |
1126:Drivers/BSP/Components/sx1276/sx1276.c ****                                                   RFLR_IRQFLAGS_VALIDHEADER |
1127:Drivers/BSP/Components/sx1276/sx1276.c ****                                                   //RFLR_IRQFLAGS_TXDONE |
1128:Drivers/BSP/Components/sx1276/sx1276.c ****                                                   RFLR_IRQFLAGS_CADDONE |
1129:Drivers/BSP/Components/sx1276/sx1276.c ****                                                   RFLR_IRQFLAGS_FHSSCHANGEDCHANNEL |
1130:Drivers/BSP/Components/sx1276/sx1276.c ****                                                   RFLR_IRQFLAGS_CADDETECTED );
1131:Drivers/BSP/Components/sx1276/sx1276.c **** 
1132:Drivers/BSP/Components/sx1276/sx1276.c ****                 // DIO0=TxDone
1133:Drivers/BSP/Components/sx1276/sx1276.c ****                 SX1276Write( REG_DIOMAPPING1, ( SX1276Read( REG_DIOMAPPING1 ) & RFLR_DIOMAPPING1_DI
1134:Drivers/BSP/Components/sx1276/sx1276.c ****             }
1135:Drivers/BSP/Components/sx1276/sx1276.c ****         }
1136:Drivers/BSP/Components/sx1276/sx1276.c ****         break;
1137:Drivers/BSP/Components/sx1276/sx1276.c ****     }
1138:Drivers/BSP/Components/sx1276/sx1276.c **** 
1139:Drivers/BSP/Components/sx1276/sx1276.c ****     SX1276.Settings.State = RF_TX_RUNNING;
1140:Drivers/BSP/Components/sx1276/sx1276.c ****     TimerStart( &TxTimeoutTimer );
1141:Drivers/BSP/Components/sx1276/sx1276.c ****     SX1276SetOpMode( RF_OPMODE_TRANSMITTER );
1142:Drivers/BSP/Components/sx1276/sx1276.c **** }
1143:Drivers/BSP/Components/sx1276/sx1276.c **** 
1144:Drivers/BSP/Components/sx1276/sx1276.c **** void SX1276StartCad( void )
1145:Drivers/BSP/Components/sx1276/sx1276.c **** {
1146:Drivers/BSP/Components/sx1276/sx1276.c ****     switch( SX1276.Settings.Modem )
1147:Drivers/BSP/Components/sx1276/sx1276.c ****     {
1148:Drivers/BSP/Components/sx1276/sx1276.c ****     case MODEM_FSK:
1149:Drivers/BSP/Components/sx1276/sx1276.c ****         {
1150:Drivers/BSP/Components/sx1276/sx1276.c **** 
1151:Drivers/BSP/Components/sx1276/sx1276.c ****         }
1152:Drivers/BSP/Components/sx1276/sx1276.c ****         break;
1153:Drivers/BSP/Components/sx1276/sx1276.c ****     case MODEM_LORA:
1154:Drivers/BSP/Components/sx1276/sx1276.c ****         {
1155:Drivers/BSP/Components/sx1276/sx1276.c ****             SX1276Write( REG_LR_IRQFLAGSMASK, RFLR_IRQFLAGS_RXTIMEOUT |
1156:Drivers/BSP/Components/sx1276/sx1276.c ****                                         RFLR_IRQFLAGS_RXDONE |
1157:Drivers/BSP/Components/sx1276/sx1276.c ****                                         RFLR_IRQFLAGS_PAYLOADCRCERROR |
1158:Drivers/BSP/Components/sx1276/sx1276.c ****                                         RFLR_IRQFLAGS_VALIDHEADER |
1159:Drivers/BSP/Components/sx1276/sx1276.c ****                                         RFLR_IRQFLAGS_TXDONE |
1160:Drivers/BSP/Components/sx1276/sx1276.c ****                                         //RFLR_IRQFLAGS_CADDONE |
1161:Drivers/BSP/Components/sx1276/sx1276.c ****                                         RFLR_IRQFLAGS_FHSSCHANGEDCHANNEL // |
1162:Drivers/BSP/Components/sx1276/sx1276.c ****                                         //RFLR_IRQFLAGS_CADDETECTED
1163:Drivers/BSP/Components/sx1276/sx1276.c ****                                         );
1164:Drivers/BSP/Components/sx1276/sx1276.c **** 
1165:Drivers/BSP/Components/sx1276/sx1276.c ****             // DIO3=CADDone
1166:Drivers/BSP/Components/sx1276/sx1276.c ****             SX1276Write( REG_DIOMAPPING1, ( SX1276Read( REG_DIOMAPPING1 ) & RFLR_DIOMAPPING1_DIO3_M
ARM GAS  /var/folders/2m/zqg86yyd4hbf56w83tkxjpvr0000gn/T//ccRNesxV.s 			page 23


1167:Drivers/BSP/Components/sx1276/sx1276.c **** 
1168:Drivers/BSP/Components/sx1276/sx1276.c ****             SX1276.Settings.State = RF_CAD;
1169:Drivers/BSP/Components/sx1276/sx1276.c ****             SX1276SetOpMode( RFLR_OPMODE_CAD );
1170:Drivers/BSP/Components/sx1276/sx1276.c ****         }
1171:Drivers/BSP/Components/sx1276/sx1276.c ****         break;
1172:Drivers/BSP/Components/sx1276/sx1276.c ****     default:
1173:Drivers/BSP/Components/sx1276/sx1276.c ****         break;
1174:Drivers/BSP/Components/sx1276/sx1276.c ****     }
1175:Drivers/BSP/Components/sx1276/sx1276.c **** }
1176:Drivers/BSP/Components/sx1276/sx1276.c **** 
1177:Drivers/BSP/Components/sx1276/sx1276.c **** void SX1276SetTxContinuousWave( uint32_t freq, int8_t power, uint16_t time )
1178:Drivers/BSP/Components/sx1276/sx1276.c **** {
1179:Drivers/BSP/Components/sx1276/sx1276.c ****     uint32_t timeout = ( uint32_t )( time * 1000 );
1180:Drivers/BSP/Components/sx1276/sx1276.c **** 
1181:Drivers/BSP/Components/sx1276/sx1276.c ****     SX1276SetChannel( freq );
1182:Drivers/BSP/Components/sx1276/sx1276.c **** 
1183:Drivers/BSP/Components/sx1276/sx1276.c ****     SX1276SetTxConfig( MODEM_FSK, power, 0, 0, 4800, 0, 5, false, false, 0, 0, 0, timeout );
1184:Drivers/BSP/Components/sx1276/sx1276.c **** 
1185:Drivers/BSP/Components/sx1276/sx1276.c ****     SX1276Write( REG_PACKETCONFIG2, ( SX1276Read( REG_PACKETCONFIG2 ) & RF_PACKETCONFIG2_DATAMODE_M
1186:Drivers/BSP/Components/sx1276/sx1276.c ****     // Disable radio interrupts
1187:Drivers/BSP/Components/sx1276/sx1276.c ****     SX1276Write( REG_DIOMAPPING1, RF_DIOMAPPING1_DIO0_11 | RF_DIOMAPPING1_DIO1_11 );
1188:Drivers/BSP/Components/sx1276/sx1276.c ****     SX1276Write( REG_DIOMAPPING2, RF_DIOMAPPING2_DIO4_10 | RF_DIOMAPPING2_DIO5_10 );
1189:Drivers/BSP/Components/sx1276/sx1276.c **** 
1190:Drivers/BSP/Components/sx1276/sx1276.c ****     TimerSetValue( &TxTimeoutTimer, timeout );
1191:Drivers/BSP/Components/sx1276/sx1276.c **** 
1192:Drivers/BSP/Components/sx1276/sx1276.c ****     SX1276.Settings.State = RF_TX_RUNNING;
1193:Drivers/BSP/Components/sx1276/sx1276.c ****     TimerStart( &TxTimeoutTimer );
1194:Drivers/BSP/Components/sx1276/sx1276.c ****     SX1276SetOpMode( RF_OPMODE_TRANSMITTER );
1195:Drivers/BSP/Components/sx1276/sx1276.c **** }
1196:Drivers/BSP/Components/sx1276/sx1276.c **** 
1197:Drivers/BSP/Components/sx1276/sx1276.c **** int16_t SX1276ReadRssi( RadioModems_t modem )
1198:Drivers/BSP/Components/sx1276/sx1276.c **** {
1199:Drivers/BSP/Components/sx1276/sx1276.c ****     int16_t rssi = 0;
1200:Drivers/BSP/Components/sx1276/sx1276.c **** 
1201:Drivers/BSP/Components/sx1276/sx1276.c ****     switch( modem )
1202:Drivers/BSP/Components/sx1276/sx1276.c ****     {
1203:Drivers/BSP/Components/sx1276/sx1276.c ****     case MODEM_FSK:
1204:Drivers/BSP/Components/sx1276/sx1276.c ****         rssi = -( SX1276Read( REG_RSSIVALUE ) >> 1 );
1205:Drivers/BSP/Components/sx1276/sx1276.c ****         break;
1206:Drivers/BSP/Components/sx1276/sx1276.c ****     case MODEM_LORA:
1207:Drivers/BSP/Components/sx1276/sx1276.c ****         if( SX1276.Settings.Channel > RF_MID_BAND_THRESH )
1208:Drivers/BSP/Components/sx1276/sx1276.c ****         {
1209:Drivers/BSP/Components/sx1276/sx1276.c ****             rssi = RSSI_OFFSET_HF + SX1276Read( REG_LR_RSSIVALUE );
1210:Drivers/BSP/Components/sx1276/sx1276.c ****         }
1211:Drivers/BSP/Components/sx1276/sx1276.c ****         else
1212:Drivers/BSP/Components/sx1276/sx1276.c ****         {
1213:Drivers/BSP/Components/sx1276/sx1276.c ****             rssi = RSSI_OFFSET_LF + SX1276Read( REG_LR_RSSIVALUE );
1214:Drivers/BSP/Components/sx1276/sx1276.c ****         }
1215:Drivers/BSP/Components/sx1276/sx1276.c ****         break;
1216:Drivers/BSP/Components/sx1276/sx1276.c ****     default:
1217:Drivers/BSP/Components/sx1276/sx1276.c ****         rssi = -1;
1218:Drivers/BSP/Components/sx1276/sx1276.c ****         break;
1219:Drivers/BSP/Components/sx1276/sx1276.c ****     }
1220:Drivers/BSP/Components/sx1276/sx1276.c ****     return rssi;
1221:Drivers/BSP/Components/sx1276/sx1276.c **** }
1222:Drivers/BSP/Components/sx1276/sx1276.c **** 
1223:Drivers/BSP/Components/sx1276/sx1276.c **** void SX1276Reset( void )
ARM GAS  /var/folders/2m/zqg86yyd4hbf56w83tkxjpvr0000gn/T//ccRNesxV.s 			page 24


1224:Drivers/BSP/Components/sx1276/sx1276.c **** {
1225:Drivers/BSP/Components/sx1276/sx1276.c ****     GPIO_InitTypeDef initStruct = { 0 };
1226:Drivers/BSP/Components/sx1276/sx1276.c **** 
1227:Drivers/BSP/Components/sx1276/sx1276.c ****     initStruct.Mode =GPIO_MODE_OUTPUT_PP;
1228:Drivers/BSP/Components/sx1276/sx1276.c ****     initStruct.Pull = GPIO_NOPULL;
1229:Drivers/BSP/Components/sx1276/sx1276.c ****     initStruct.Speed = GPIO_SPEED_HIGH;
1230:Drivers/BSP/Components/sx1276/sx1276.c **** 
1231:Drivers/BSP/Components/sx1276/sx1276.c ****     // Set RESET pin to 0
1232:Drivers/BSP/Components/sx1276/sx1276.c ****     HW_GPIO_Init( RADIO_RESET_PORT, RADIO_RESET_PIN, &initStruct );
1233:Drivers/BSP/Components/sx1276/sx1276.c ****     HW_GPIO_Write( RADIO_RESET_PORT, RADIO_RESET_PIN, 0 );
1234:Drivers/BSP/Components/sx1276/sx1276.c **** 
1235:Drivers/BSP/Components/sx1276/sx1276.c ****     // Wait 1 ms
1236:Drivers/BSP/Components/sx1276/sx1276.c ****     DelayMs( 1 );
1237:Drivers/BSP/Components/sx1276/sx1276.c **** 
1238:Drivers/BSP/Components/sx1276/sx1276.c ****     // Configure RESET as input
1239:Drivers/BSP/Components/sx1276/sx1276.c ****     initStruct.Mode = GPIO_NOPULL;
1240:Drivers/BSP/Components/sx1276/sx1276.c ****     HW_GPIO_Init( RADIO_RESET_PORT, RADIO_RESET_PIN, &initStruct );
1241:Drivers/BSP/Components/sx1276/sx1276.c **** 
1242:Drivers/BSP/Components/sx1276/sx1276.c ****     // Wait 6 ms
1243:Drivers/BSP/Components/sx1276/sx1276.c ****     DelayMs( 6 );
1244:Drivers/BSP/Components/sx1276/sx1276.c **** }
1245:Drivers/BSP/Components/sx1276/sx1276.c **** 
1246:Drivers/BSP/Components/sx1276/sx1276.c **** void SX1276SetOpMode( uint8_t opMode )
1247:Drivers/BSP/Components/sx1276/sx1276.c **** {
1248:Drivers/BSP/Components/sx1276/sx1276.c ****     if( opMode == RF_OPMODE_SLEEP )
1249:Drivers/BSP/Components/sx1276/sx1276.c ****     {
1250:Drivers/BSP/Components/sx1276/sx1276.c ****       SX1276Write( REG_OPMODE, ( SX1276Read( REG_OPMODE ) & RF_OPMODE_MASK ) | opMode );
1251:Drivers/BSP/Components/sx1276/sx1276.c ****       
1252:Drivers/BSP/Components/sx1276/sx1276.c ****       LoRaBoardCallbacks->SX1276BoardSetAntSwLowPower( true );
1253:Drivers/BSP/Components/sx1276/sx1276.c ****       
1254:Drivers/BSP/Components/sx1276/sx1276.c ****       LoRaBoardCallbacks->SX1276BoardSetXO( RESET ); 
1255:Drivers/BSP/Components/sx1276/sx1276.c ****     }
1256:Drivers/BSP/Components/sx1276/sx1276.c ****     else
1257:Drivers/BSP/Components/sx1276/sx1276.c ****     {
1258:Drivers/BSP/Components/sx1276/sx1276.c ****       LoRaBoardCallbacks->SX1276BoardSetXO( SET ); 
1259:Drivers/BSP/Components/sx1276/sx1276.c ****       
1260:Drivers/BSP/Components/sx1276/sx1276.c ****       LoRaBoardCallbacks->SX1276BoardSetAntSwLowPower( false );
1261:Drivers/BSP/Components/sx1276/sx1276.c ****       
1262:Drivers/BSP/Components/sx1276/sx1276.c ****       LoRaBoardCallbacks->SX1276BoardSetAntSw( opMode );
1263:Drivers/BSP/Components/sx1276/sx1276.c ****       
1264:Drivers/BSP/Components/sx1276/sx1276.c ****       SX1276Write( REG_OPMODE, ( SX1276Read( REG_OPMODE ) & RF_OPMODE_MASK ) | opMode );
1265:Drivers/BSP/Components/sx1276/sx1276.c ****     }
1266:Drivers/BSP/Components/sx1276/sx1276.c **** }
1267:Drivers/BSP/Components/sx1276/sx1276.c **** 
1268:Drivers/BSP/Components/sx1276/sx1276.c **** void SX1276SetModem( RadioModems_t modem )
1269:Drivers/BSP/Components/sx1276/sx1276.c **** {
1270:Drivers/BSP/Components/sx1276/sx1276.c ****     if( ( SX1276Read( REG_OPMODE ) & RFLR_OPMODE_LONGRANGEMODE_ON ) != 0 )
1271:Drivers/BSP/Components/sx1276/sx1276.c ****     {
1272:Drivers/BSP/Components/sx1276/sx1276.c ****         SX1276.Settings.Modem = MODEM_LORA;
1273:Drivers/BSP/Components/sx1276/sx1276.c ****     }
1274:Drivers/BSP/Components/sx1276/sx1276.c ****     else
1275:Drivers/BSP/Components/sx1276/sx1276.c ****     {
1276:Drivers/BSP/Components/sx1276/sx1276.c ****         SX1276.Settings.Modem = MODEM_FSK;
1277:Drivers/BSP/Components/sx1276/sx1276.c ****     }
1278:Drivers/BSP/Components/sx1276/sx1276.c **** 
1279:Drivers/BSP/Components/sx1276/sx1276.c ****     if( SX1276.Settings.Modem == modem )
1280:Drivers/BSP/Components/sx1276/sx1276.c ****     {
ARM GAS  /var/folders/2m/zqg86yyd4hbf56w83tkxjpvr0000gn/T//ccRNesxV.s 			page 25


1281:Drivers/BSP/Components/sx1276/sx1276.c ****         return;
1282:Drivers/BSP/Components/sx1276/sx1276.c ****     }
1283:Drivers/BSP/Components/sx1276/sx1276.c **** 
1284:Drivers/BSP/Components/sx1276/sx1276.c ****     SX1276.Settings.Modem = modem;
1285:Drivers/BSP/Components/sx1276/sx1276.c ****     switch( SX1276.Settings.Modem )
1286:Drivers/BSP/Components/sx1276/sx1276.c ****     {
1287:Drivers/BSP/Components/sx1276/sx1276.c ****     default:
1288:Drivers/BSP/Components/sx1276/sx1276.c ****     case MODEM_FSK:
1289:Drivers/BSP/Components/sx1276/sx1276.c ****         SX1276SetSleep( );
1290:Drivers/BSP/Components/sx1276/sx1276.c ****         SX1276Write( REG_OPMODE, ( SX1276Read( REG_OPMODE ) & RFLR_OPMODE_LONGRANGEMODE_MASK ) | RF
1291:Drivers/BSP/Components/sx1276/sx1276.c **** 
1292:Drivers/BSP/Components/sx1276/sx1276.c ****         SX1276Write( REG_DIOMAPPING1, 0x00 );
1293:Drivers/BSP/Components/sx1276/sx1276.c ****         SX1276Write( REG_DIOMAPPING2, 0x30 ); // DIO5=ModeReady
1294:Drivers/BSP/Components/sx1276/sx1276.c ****         break;
1295:Drivers/BSP/Components/sx1276/sx1276.c ****     case MODEM_LORA:
1296:Drivers/BSP/Components/sx1276/sx1276.c ****         SX1276SetSleep( );
1297:Drivers/BSP/Components/sx1276/sx1276.c ****         SX1276Write( REG_OPMODE, ( SX1276Read( REG_OPMODE ) & RFLR_OPMODE_LONGRANGEMODE_MASK ) | RF
1298:Drivers/BSP/Components/sx1276/sx1276.c **** 
1299:Drivers/BSP/Components/sx1276/sx1276.c ****         SX1276Write( REG_DIOMAPPING1, 0x00 );
1300:Drivers/BSP/Components/sx1276/sx1276.c ****         SX1276Write( REG_DIOMAPPING2, 0x00 );
1301:Drivers/BSP/Components/sx1276/sx1276.c ****         break;
1302:Drivers/BSP/Components/sx1276/sx1276.c ****     }
1303:Drivers/BSP/Components/sx1276/sx1276.c **** }
1304:Drivers/BSP/Components/sx1276/sx1276.c **** 
1305:Drivers/BSP/Components/sx1276/sx1276.c **** void SX1276Write( uint16_t addr, uint8_t data )
1306:Drivers/BSP/Components/sx1276/sx1276.c **** {
1307:Drivers/BSP/Components/sx1276/sx1276.c ****     SX1276WriteBuffer( addr, &data, 1 );
1308:Drivers/BSP/Components/sx1276/sx1276.c **** }
1309:Drivers/BSP/Components/sx1276/sx1276.c **** 
1310:Drivers/BSP/Components/sx1276/sx1276.c **** uint8_t SX1276Read( uint16_t addr )
1311:Drivers/BSP/Components/sx1276/sx1276.c **** {
1312:Drivers/BSP/Components/sx1276/sx1276.c ****     uint8_t data;
1313:Drivers/BSP/Components/sx1276/sx1276.c ****     SX1276ReadBuffer( addr, &data, 1 );
1314:Drivers/BSP/Components/sx1276/sx1276.c ****     return data;
1315:Drivers/BSP/Components/sx1276/sx1276.c **** }
1316:Drivers/BSP/Components/sx1276/sx1276.c **** 
1317:Drivers/BSP/Components/sx1276/sx1276.c **** void SX1276WriteBuffer( uint16_t addr, uint8_t *buffer, uint8_t size )
1318:Drivers/BSP/Components/sx1276/sx1276.c **** {
1319:Drivers/BSP/Components/sx1276/sx1276.c ****     uint8_t i;
1320:Drivers/BSP/Components/sx1276/sx1276.c **** 
1321:Drivers/BSP/Components/sx1276/sx1276.c ****     //NSS = 0;
1322:Drivers/BSP/Components/sx1276/sx1276.c ****     HW_GPIO_Write( RADIO_NSS_PORT, RADIO_NSS_PIN, 0 );
1323:Drivers/BSP/Components/sx1276/sx1276.c **** 
1324:Drivers/BSP/Components/sx1276/sx1276.c ****     HW_SPI_InOut( addr | 0x80 );
1325:Drivers/BSP/Components/sx1276/sx1276.c ****     for( i = 0; i < size; i++ )
1326:Drivers/BSP/Components/sx1276/sx1276.c ****     {
1327:Drivers/BSP/Components/sx1276/sx1276.c ****         HW_SPI_InOut( buffer[i] );
1328:Drivers/BSP/Components/sx1276/sx1276.c ****     }
1329:Drivers/BSP/Components/sx1276/sx1276.c **** 
1330:Drivers/BSP/Components/sx1276/sx1276.c ****     //NSS = 1;
1331:Drivers/BSP/Components/sx1276/sx1276.c ****     HW_GPIO_Write( RADIO_NSS_PORT, RADIO_NSS_PIN, 1 );
1332:Drivers/BSP/Components/sx1276/sx1276.c **** }
1333:Drivers/BSP/Components/sx1276/sx1276.c **** 
1334:Drivers/BSP/Components/sx1276/sx1276.c **** void SX1276ReadBuffer( uint16_t addr, uint8_t *buffer, uint8_t size )
1335:Drivers/BSP/Components/sx1276/sx1276.c **** {
1336:Drivers/BSP/Components/sx1276/sx1276.c ****     uint8_t i;
1337:Drivers/BSP/Components/sx1276/sx1276.c **** 
ARM GAS  /var/folders/2m/zqg86yyd4hbf56w83tkxjpvr0000gn/T//ccRNesxV.s 			page 26


1338:Drivers/BSP/Components/sx1276/sx1276.c ****     //NSS = 0;
1339:Drivers/BSP/Components/sx1276/sx1276.c ****     HW_GPIO_Write( RADIO_NSS_PORT, RADIO_NSS_PIN, 0 );
1340:Drivers/BSP/Components/sx1276/sx1276.c **** 
1341:Drivers/BSP/Components/sx1276/sx1276.c ****     HW_SPI_InOut( addr & 0x7F );
1342:Drivers/BSP/Components/sx1276/sx1276.c **** 
1343:Drivers/BSP/Components/sx1276/sx1276.c ****     for( i = 0; i < size; i++ )
1344:Drivers/BSP/Components/sx1276/sx1276.c ****     {
1345:Drivers/BSP/Components/sx1276/sx1276.c ****         buffer[i] = HW_SPI_InOut( 0 );
1346:Drivers/BSP/Components/sx1276/sx1276.c ****     }
1347:Drivers/BSP/Components/sx1276/sx1276.c **** 
1348:Drivers/BSP/Components/sx1276/sx1276.c ****     //NSS = 1;
1349:Drivers/BSP/Components/sx1276/sx1276.c ****     HW_GPIO_Write( RADIO_NSS_PORT, RADIO_NSS_PIN, 1 );
1350:Drivers/BSP/Components/sx1276/sx1276.c **** }
1351:Drivers/BSP/Components/sx1276/sx1276.c **** 
1352:Drivers/BSP/Components/sx1276/sx1276.c **** void SX1276WriteFifo( uint8_t *buffer, uint8_t size )
1353:Drivers/BSP/Components/sx1276/sx1276.c **** {
1354:Drivers/BSP/Components/sx1276/sx1276.c ****     SX1276WriteBuffer( 0, buffer, size );
1355:Drivers/BSP/Components/sx1276/sx1276.c **** }
1356:Drivers/BSP/Components/sx1276/sx1276.c **** 
1357:Drivers/BSP/Components/sx1276/sx1276.c **** void SX1276ReadFifo( uint8_t *buffer, uint8_t size )
1358:Drivers/BSP/Components/sx1276/sx1276.c **** {
1359:Drivers/BSP/Components/sx1276/sx1276.c ****     SX1276ReadBuffer( 0, buffer, size );
1360:Drivers/BSP/Components/sx1276/sx1276.c **** }
1361:Drivers/BSP/Components/sx1276/sx1276.c **** 
1362:Drivers/BSP/Components/sx1276/sx1276.c **** void SX1276SetMaxPayloadLength( RadioModems_t modem, uint8_t max )
1363:Drivers/BSP/Components/sx1276/sx1276.c **** {
1364:Drivers/BSP/Components/sx1276/sx1276.c ****     SX1276SetModem( modem );
1365:Drivers/BSP/Components/sx1276/sx1276.c **** 
1366:Drivers/BSP/Components/sx1276/sx1276.c ****     switch( modem )
1367:Drivers/BSP/Components/sx1276/sx1276.c ****     {
1368:Drivers/BSP/Components/sx1276/sx1276.c ****     case MODEM_FSK:
1369:Drivers/BSP/Components/sx1276/sx1276.c ****         if( SX1276.Settings.Fsk.FixLen == false )
1370:Drivers/BSP/Components/sx1276/sx1276.c ****         {
1371:Drivers/BSP/Components/sx1276/sx1276.c ****             SX1276Write( REG_PAYLOADLENGTH, max );
1372:Drivers/BSP/Components/sx1276/sx1276.c ****         }
1373:Drivers/BSP/Components/sx1276/sx1276.c ****         break;
1374:Drivers/BSP/Components/sx1276/sx1276.c ****     case MODEM_LORA:
1375:Drivers/BSP/Components/sx1276/sx1276.c ****         SX1276Write( REG_LR_PAYLOADMAXLENGTH, max );
1376:Drivers/BSP/Components/sx1276/sx1276.c ****         break;
1377:Drivers/BSP/Components/sx1276/sx1276.c ****     }
1378:Drivers/BSP/Components/sx1276/sx1276.c **** }
1379:Drivers/BSP/Components/sx1276/sx1276.c **** 
1380:Drivers/BSP/Components/sx1276/sx1276.c **** void SX1276SetPublicNetwork( bool enable )
1381:Drivers/BSP/Components/sx1276/sx1276.c **** {
1382:Drivers/BSP/Components/sx1276/sx1276.c ****     SX1276SetModem( MODEM_LORA );
1383:Drivers/BSP/Components/sx1276/sx1276.c ****     SX1276.Settings.LoRa.PublicNetwork = enable;
1384:Drivers/BSP/Components/sx1276/sx1276.c ****     if( enable == true )
1385:Drivers/BSP/Components/sx1276/sx1276.c ****     {
1386:Drivers/BSP/Components/sx1276/sx1276.c ****         // Change LoRa modem SyncWord
1387:Drivers/BSP/Components/sx1276/sx1276.c ****         SX1276Write( REG_LR_SYNCWORD, LORA_MAC_PUBLIC_SYNCWORD );
1388:Drivers/BSP/Components/sx1276/sx1276.c ****     }
1389:Drivers/BSP/Components/sx1276/sx1276.c ****     else
1390:Drivers/BSP/Components/sx1276/sx1276.c ****     {
1391:Drivers/BSP/Components/sx1276/sx1276.c ****         // Change LoRa modem SyncWord
1392:Drivers/BSP/Components/sx1276/sx1276.c ****         SX1276Write( REG_LR_SYNCWORD, LORA_MAC_PRIVATE_SYNCWORD );
1393:Drivers/BSP/Components/sx1276/sx1276.c ****     }
1394:Drivers/BSP/Components/sx1276/sx1276.c **** }
ARM GAS  /var/folders/2m/zqg86yyd4hbf56w83tkxjpvr0000gn/T//ccRNesxV.s 			page 27


1395:Drivers/BSP/Components/sx1276/sx1276.c **** 
1396:Drivers/BSP/Components/sx1276/sx1276.c **** uint32_t SX1276GetWakeupTime( void )
1397:Drivers/BSP/Components/sx1276/sx1276.c **** {
1398:Drivers/BSP/Components/sx1276/sx1276.c ****     return ( uint32_t )LoRaBoardCallbacks->SX1276BoardGetWakeTime( ) + RADIO_WAKEUP_TIME;// BOARD_W
1399:Drivers/BSP/Components/sx1276/sx1276.c **** }
1400:Drivers/BSP/Components/sx1276/sx1276.c **** 
1401:Drivers/BSP/Components/sx1276/sx1276.c **** void SX1276OnTimeoutIrq( void )
1402:Drivers/BSP/Components/sx1276/sx1276.c **** {
1403:Drivers/BSP/Components/sx1276/sx1276.c ****     switch( SX1276.Settings.State )
1404:Drivers/BSP/Components/sx1276/sx1276.c ****     {
1405:Drivers/BSP/Components/sx1276/sx1276.c ****     case RF_RX_RUNNING:
1406:Drivers/BSP/Components/sx1276/sx1276.c ****         if( SX1276.Settings.Modem == MODEM_FSK )
1407:Drivers/BSP/Components/sx1276/sx1276.c ****         {
1408:Drivers/BSP/Components/sx1276/sx1276.c ****             SX1276.Settings.FskPacketHandler.PreambleDetected = false;
1409:Drivers/BSP/Components/sx1276/sx1276.c ****             SX1276.Settings.FskPacketHandler.SyncWordDetected = false;
1410:Drivers/BSP/Components/sx1276/sx1276.c ****             SX1276.Settings.FskPacketHandler.NbBytes = 0;
1411:Drivers/BSP/Components/sx1276/sx1276.c ****             SX1276.Settings.FskPacketHandler.Size = 0;
1412:Drivers/BSP/Components/sx1276/sx1276.c **** 
1413:Drivers/BSP/Components/sx1276/sx1276.c ****             // Clear Irqs
1414:Drivers/BSP/Components/sx1276/sx1276.c ****             SX1276Write( REG_IRQFLAGS1, RF_IRQFLAGS1_RSSI |
1415:Drivers/BSP/Components/sx1276/sx1276.c ****                                         RF_IRQFLAGS1_PREAMBLEDETECT |
1416:Drivers/BSP/Components/sx1276/sx1276.c ****                                         RF_IRQFLAGS1_SYNCADDRESSMATCH );
1417:Drivers/BSP/Components/sx1276/sx1276.c ****             SX1276Write( REG_IRQFLAGS2, RF_IRQFLAGS2_FIFOOVERRUN );
1418:Drivers/BSP/Components/sx1276/sx1276.c **** 
1419:Drivers/BSP/Components/sx1276/sx1276.c ****             if( SX1276.Settings.Fsk.RxContinuous == true )
1420:Drivers/BSP/Components/sx1276/sx1276.c ****             {
1421:Drivers/BSP/Components/sx1276/sx1276.c ****                 // Continuous mode restart Rx chain
1422:Drivers/BSP/Components/sx1276/sx1276.c ****                 SX1276Write( REG_RXCONFIG, SX1276Read( REG_RXCONFIG ) | RF_RXCONFIG_RESTARTRXWITHOU
1423:Drivers/BSP/Components/sx1276/sx1276.c ****                 TimerStart( &RxTimeoutSyncWord );
1424:Drivers/BSP/Components/sx1276/sx1276.c ****             }
1425:Drivers/BSP/Components/sx1276/sx1276.c ****             else
1426:Drivers/BSP/Components/sx1276/sx1276.c ****             {
1427:Drivers/BSP/Components/sx1276/sx1276.c ****                 SX1276.Settings.State = RF_IDLE;
1428:Drivers/BSP/Components/sx1276/sx1276.c ****                 TimerStop( &RxTimeoutSyncWord );
1429:Drivers/BSP/Components/sx1276/sx1276.c ****             }
1430:Drivers/BSP/Components/sx1276/sx1276.c ****         }
1431:Drivers/BSP/Components/sx1276/sx1276.c ****         if( ( RadioEvents != NULL ) && ( RadioEvents->RxTimeout != NULL ) )
1432:Drivers/BSP/Components/sx1276/sx1276.c ****         {
1433:Drivers/BSP/Components/sx1276/sx1276.c ****             RadioEvents->RxTimeout( );
1434:Drivers/BSP/Components/sx1276/sx1276.c ****         }
1435:Drivers/BSP/Components/sx1276/sx1276.c ****         break;
1436:Drivers/BSP/Components/sx1276/sx1276.c ****     case RF_TX_RUNNING:
1437:Drivers/BSP/Components/sx1276/sx1276.c ****         // Tx timeout shouldn't happen.
1438:Drivers/BSP/Components/sx1276/sx1276.c ****         // But it has been observed that when it happens it is a result of a corrupted SPI transfer
1439:Drivers/BSP/Components/sx1276/sx1276.c ****         // it depends on the platform design.
1440:Drivers/BSP/Components/sx1276/sx1276.c ****         //
1441:Drivers/BSP/Components/sx1276/sx1276.c ****         // The workaround is to put the radio in a known state. Thus, we re-initialize it.
1442:Drivers/BSP/Components/sx1276/sx1276.c **** 
1443:Drivers/BSP/Components/sx1276/sx1276.c ****         // BEGIN WORKAROUND
1444:Drivers/BSP/Components/sx1276/sx1276.c **** 
1445:Drivers/BSP/Components/sx1276/sx1276.c ****         // Reset the radio
1446:Drivers/BSP/Components/sx1276/sx1276.c ****         SX1276Reset( );
1447:Drivers/BSP/Components/sx1276/sx1276.c **** 
1448:Drivers/BSP/Components/sx1276/sx1276.c ****         // Calibrate Rx chain
1449:Drivers/BSP/Components/sx1276/sx1276.c ****         RxChainCalibration( );
1450:Drivers/BSP/Components/sx1276/sx1276.c **** 
1451:Drivers/BSP/Components/sx1276/sx1276.c ****         // Initialize radio default values
ARM GAS  /var/folders/2m/zqg86yyd4hbf56w83tkxjpvr0000gn/T//ccRNesxV.s 			page 28


1452:Drivers/BSP/Components/sx1276/sx1276.c ****         SX1276SetOpMode( RF_OPMODE_SLEEP );
1453:Drivers/BSP/Components/sx1276/sx1276.c **** 
1454:Drivers/BSP/Components/sx1276/sx1276.c ****         for( uint8_t i = 0; i < sizeof( RadioRegsInit ) / sizeof( RadioRegisters_t ); i++ )
1455:Drivers/BSP/Components/sx1276/sx1276.c ****         {
1456:Drivers/BSP/Components/sx1276/sx1276.c ****             SX1276SetModem( RadioRegsInit[i].Modem );
1457:Drivers/BSP/Components/sx1276/sx1276.c ****             SX1276Write( RadioRegsInit[i].Addr, RadioRegsInit[i].Value );
1458:Drivers/BSP/Components/sx1276/sx1276.c ****         }
1459:Drivers/BSP/Components/sx1276/sx1276.c ****         SX1276SetModem( MODEM_FSK );
1460:Drivers/BSP/Components/sx1276/sx1276.c **** 
1461:Drivers/BSP/Components/sx1276/sx1276.c ****         // Restore previous network type setting.
1462:Drivers/BSP/Components/sx1276/sx1276.c ****         SX1276SetPublicNetwork( SX1276.Settings.LoRa.PublicNetwork );
1463:Drivers/BSP/Components/sx1276/sx1276.c ****         // END WORKAROUND
1464:Drivers/BSP/Components/sx1276/sx1276.c **** 
1465:Drivers/BSP/Components/sx1276/sx1276.c ****         SX1276.Settings.State = RF_IDLE;
1466:Drivers/BSP/Components/sx1276/sx1276.c ****         if( ( RadioEvents != NULL ) && ( RadioEvents->TxTimeout != NULL ) )
1467:Drivers/BSP/Components/sx1276/sx1276.c ****         {
1468:Drivers/BSP/Components/sx1276/sx1276.c ****             RadioEvents->TxTimeout( );
1469:Drivers/BSP/Components/sx1276/sx1276.c ****         }
1470:Drivers/BSP/Components/sx1276/sx1276.c ****         break;
1471:Drivers/BSP/Components/sx1276/sx1276.c ****     default:
1472:Drivers/BSP/Components/sx1276/sx1276.c ****         break;
1473:Drivers/BSP/Components/sx1276/sx1276.c ****     }
1474:Drivers/BSP/Components/sx1276/sx1276.c **** }
1475:Drivers/BSP/Components/sx1276/sx1276.c **** 
1476:Drivers/BSP/Components/sx1276/sx1276.c **** void SX1276OnDio0Irq( void )
1477:Drivers/BSP/Components/sx1276/sx1276.c **** {
1478:Drivers/BSP/Components/sx1276/sx1276.c ****     volatile uint8_t irqFlags = 0;
1479:Drivers/BSP/Components/sx1276/sx1276.c **** 
1480:Drivers/BSP/Components/sx1276/sx1276.c ****     switch( SX1276.Settings.State )
1481:Drivers/BSP/Components/sx1276/sx1276.c ****     {
1482:Drivers/BSP/Components/sx1276/sx1276.c ****         case RF_RX_RUNNING:
1483:Drivers/BSP/Components/sx1276/sx1276.c ****             //TimerStop( &RxTimeoutTimer );
1484:Drivers/BSP/Components/sx1276/sx1276.c ****             // RxDone interrupt
1485:Drivers/BSP/Components/sx1276/sx1276.c ****             switch( SX1276.Settings.Modem )
1486:Drivers/BSP/Components/sx1276/sx1276.c ****             {
1487:Drivers/BSP/Components/sx1276/sx1276.c ****             case MODEM_FSK:
1488:Drivers/BSP/Components/sx1276/sx1276.c ****                 if( SX1276.Settings.Fsk.CrcOn == true )
1489:Drivers/BSP/Components/sx1276/sx1276.c ****                 {
1490:Drivers/BSP/Components/sx1276/sx1276.c ****                     irqFlags = SX1276Read( REG_IRQFLAGS2 );
1491:Drivers/BSP/Components/sx1276/sx1276.c ****                     if( ( irqFlags & RF_IRQFLAGS2_CRCOK ) != RF_IRQFLAGS2_CRCOK )
1492:Drivers/BSP/Components/sx1276/sx1276.c ****                     {
1493:Drivers/BSP/Components/sx1276/sx1276.c ****                         // Clear Irqs
1494:Drivers/BSP/Components/sx1276/sx1276.c ****                         SX1276Write( REG_IRQFLAGS1, RF_IRQFLAGS1_RSSI |
1495:Drivers/BSP/Components/sx1276/sx1276.c ****                                                     RF_IRQFLAGS1_PREAMBLEDETECT |
1496:Drivers/BSP/Components/sx1276/sx1276.c ****                                                     RF_IRQFLAGS1_SYNCADDRESSMATCH );
1497:Drivers/BSP/Components/sx1276/sx1276.c ****                         SX1276Write( REG_IRQFLAGS2, RF_IRQFLAGS2_FIFOOVERRUN );
1498:Drivers/BSP/Components/sx1276/sx1276.c **** 
1499:Drivers/BSP/Components/sx1276/sx1276.c ****                         TimerStop( &RxTimeoutTimer );
1500:Drivers/BSP/Components/sx1276/sx1276.c **** 
1501:Drivers/BSP/Components/sx1276/sx1276.c ****                         if( SX1276.Settings.Fsk.RxContinuous == false )
1502:Drivers/BSP/Components/sx1276/sx1276.c ****                         {
1503:Drivers/BSP/Components/sx1276/sx1276.c ****                             TimerStop( &RxTimeoutSyncWord );
1504:Drivers/BSP/Components/sx1276/sx1276.c ****                             SX1276.Settings.State = RF_IDLE;
1505:Drivers/BSP/Components/sx1276/sx1276.c ****                         }
1506:Drivers/BSP/Components/sx1276/sx1276.c ****                         else
1507:Drivers/BSP/Components/sx1276/sx1276.c ****                         {
1508:Drivers/BSP/Components/sx1276/sx1276.c ****                             // Continuous mode restart Rx chain
ARM GAS  /var/folders/2m/zqg86yyd4hbf56w83tkxjpvr0000gn/T//ccRNesxV.s 			page 29


1509:Drivers/BSP/Components/sx1276/sx1276.c ****                             SX1276Write( REG_RXCONFIG, SX1276Read( REG_RXCONFIG ) | RF_RXCONFIG_RES
1510:Drivers/BSP/Components/sx1276/sx1276.c ****                             TimerStart( &RxTimeoutSyncWord );
1511:Drivers/BSP/Components/sx1276/sx1276.c ****                         }
1512:Drivers/BSP/Components/sx1276/sx1276.c **** 
1513:Drivers/BSP/Components/sx1276/sx1276.c ****                         if( ( RadioEvents != NULL ) && ( RadioEvents->RxError != NULL ) )
1514:Drivers/BSP/Components/sx1276/sx1276.c ****                         {
1515:Drivers/BSP/Components/sx1276/sx1276.c ****                             RadioEvents->RxError( );
1516:Drivers/BSP/Components/sx1276/sx1276.c ****                         }
1517:Drivers/BSP/Components/sx1276/sx1276.c ****                         SX1276.Settings.FskPacketHandler.PreambleDetected = false;
1518:Drivers/BSP/Components/sx1276/sx1276.c ****                         SX1276.Settings.FskPacketHandler.SyncWordDetected = false;
1519:Drivers/BSP/Components/sx1276/sx1276.c ****                         SX1276.Settings.FskPacketHandler.NbBytes = 0;
1520:Drivers/BSP/Components/sx1276/sx1276.c ****                         SX1276.Settings.FskPacketHandler.Size = 0;
1521:Drivers/BSP/Components/sx1276/sx1276.c ****                         break;
1522:Drivers/BSP/Components/sx1276/sx1276.c ****                     }
1523:Drivers/BSP/Components/sx1276/sx1276.c ****                 }
1524:Drivers/BSP/Components/sx1276/sx1276.c **** 
1525:Drivers/BSP/Components/sx1276/sx1276.c ****                 // Read received packet size
1526:Drivers/BSP/Components/sx1276/sx1276.c ****                 if( ( SX1276.Settings.FskPacketHandler.Size == 0 ) && ( SX1276.Settings.FskPacketHa
1527:Drivers/BSP/Components/sx1276/sx1276.c ****                 {
1528:Drivers/BSP/Components/sx1276/sx1276.c ****                     if( SX1276.Settings.Fsk.FixLen == false )
1529:Drivers/BSP/Components/sx1276/sx1276.c ****                     {
1530:Drivers/BSP/Components/sx1276/sx1276.c ****                         SX1276ReadFifo( ( uint8_t* )&SX1276.Settings.FskPacketHandler.Size, 1 );
1531:Drivers/BSP/Components/sx1276/sx1276.c ****                     }
1532:Drivers/BSP/Components/sx1276/sx1276.c ****                     else
1533:Drivers/BSP/Components/sx1276/sx1276.c ****                     {
1534:Drivers/BSP/Components/sx1276/sx1276.c ****                         SX1276.Settings.FskPacketHandler.Size = SX1276Read( REG_PAYLOADLENGTH );
1535:Drivers/BSP/Components/sx1276/sx1276.c ****                     }
1536:Drivers/BSP/Components/sx1276/sx1276.c ****                     SX1276ReadFifo( RxTxBuffer + SX1276.Settings.FskPacketHandler.NbBytes, SX1276.S
1537:Drivers/BSP/Components/sx1276/sx1276.c ****                     SX1276.Settings.FskPacketHandler.NbBytes += ( SX1276.Settings.FskPacketHandler.
1538:Drivers/BSP/Components/sx1276/sx1276.c ****                 }
1539:Drivers/BSP/Components/sx1276/sx1276.c ****                 else
1540:Drivers/BSP/Components/sx1276/sx1276.c ****                 {
1541:Drivers/BSP/Components/sx1276/sx1276.c ****                     SX1276ReadFifo( RxTxBuffer + SX1276.Settings.FskPacketHandler.NbBytes, SX1276.S
1542:Drivers/BSP/Components/sx1276/sx1276.c ****                     SX1276.Settings.FskPacketHandler.NbBytes += ( SX1276.Settings.FskPacketHandler.
1543:Drivers/BSP/Components/sx1276/sx1276.c ****                 }
1544:Drivers/BSP/Components/sx1276/sx1276.c **** 
1545:Drivers/BSP/Components/sx1276/sx1276.c ****                 TimerStop( &RxTimeoutTimer );
1546:Drivers/BSP/Components/sx1276/sx1276.c **** 
1547:Drivers/BSP/Components/sx1276/sx1276.c ****                 if( SX1276.Settings.Fsk.RxContinuous == false )
1548:Drivers/BSP/Components/sx1276/sx1276.c ****                 {
1549:Drivers/BSP/Components/sx1276/sx1276.c ****                     SX1276.Settings.State = RF_IDLE;
1550:Drivers/BSP/Components/sx1276/sx1276.c ****                     TimerStop( &RxTimeoutSyncWord );
1551:Drivers/BSP/Components/sx1276/sx1276.c ****                 }
1552:Drivers/BSP/Components/sx1276/sx1276.c ****                 else
1553:Drivers/BSP/Components/sx1276/sx1276.c ****                 {
1554:Drivers/BSP/Components/sx1276/sx1276.c ****                     // Continuous mode restart Rx chain
1555:Drivers/BSP/Components/sx1276/sx1276.c ****                     SX1276Write( REG_RXCONFIG, SX1276Read( REG_RXCONFIG ) | RF_RXCONFIG_RESTARTRXWI
1556:Drivers/BSP/Components/sx1276/sx1276.c ****                     TimerStart( &RxTimeoutSyncWord );
1557:Drivers/BSP/Components/sx1276/sx1276.c ****                 }
1558:Drivers/BSP/Components/sx1276/sx1276.c **** 
1559:Drivers/BSP/Components/sx1276/sx1276.c ****                 if( ( RadioEvents != NULL ) && ( RadioEvents->RxDone != NULL ) )
1560:Drivers/BSP/Components/sx1276/sx1276.c ****                 {
1561:Drivers/BSP/Components/sx1276/sx1276.c ****                     RadioEvents->RxDone( RxTxBuffer, SX1276.Settings.FskPacketHandler.Size, SX1276.
1562:Drivers/BSP/Components/sx1276/sx1276.c ****                 }
1563:Drivers/BSP/Components/sx1276/sx1276.c ****                 SX1276.Settings.FskPacketHandler.PreambleDetected = false;
1564:Drivers/BSP/Components/sx1276/sx1276.c ****                 SX1276.Settings.FskPacketHandler.SyncWordDetected = false;
1565:Drivers/BSP/Components/sx1276/sx1276.c ****                 SX1276.Settings.FskPacketHandler.NbBytes = 0;
ARM GAS  /var/folders/2m/zqg86yyd4hbf56w83tkxjpvr0000gn/T//ccRNesxV.s 			page 30


1566:Drivers/BSP/Components/sx1276/sx1276.c ****                 SX1276.Settings.FskPacketHandler.Size = 0;
1567:Drivers/BSP/Components/sx1276/sx1276.c ****                 break;
1568:Drivers/BSP/Components/sx1276/sx1276.c ****             case MODEM_LORA:
1569:Drivers/BSP/Components/sx1276/sx1276.c ****                 {
1570:Drivers/BSP/Components/sx1276/sx1276.c ****                     int8_t snr = 0;
1571:Drivers/BSP/Components/sx1276/sx1276.c **** 
1572:Drivers/BSP/Components/sx1276/sx1276.c ****                     // Clear Irq
1573:Drivers/BSP/Components/sx1276/sx1276.c ****                     SX1276Write( REG_LR_IRQFLAGS, RFLR_IRQFLAGS_RXDONE );
1574:Drivers/BSP/Components/sx1276/sx1276.c **** 
1575:Drivers/BSP/Components/sx1276/sx1276.c ****                     irqFlags = SX1276Read( REG_LR_IRQFLAGS );
1576:Drivers/BSP/Components/sx1276/sx1276.c ****                     if( ( irqFlags & RFLR_IRQFLAGS_PAYLOADCRCERROR_MASK ) == RFLR_IRQFLAGS_PAYLOADC
1577:Drivers/BSP/Components/sx1276/sx1276.c ****                     {
1578:Drivers/BSP/Components/sx1276/sx1276.c ****                         // Clear Irq
1579:Drivers/BSP/Components/sx1276/sx1276.c ****                         SX1276Write( REG_LR_IRQFLAGS, RFLR_IRQFLAGS_PAYLOADCRCERROR );
1580:Drivers/BSP/Components/sx1276/sx1276.c **** 
1581:Drivers/BSP/Components/sx1276/sx1276.c ****                         if( SX1276.Settings.LoRa.RxContinuous == false )
1582:Drivers/BSP/Components/sx1276/sx1276.c ****                         {
1583:Drivers/BSP/Components/sx1276/sx1276.c ****                             SX1276.Settings.State = RF_IDLE;
1584:Drivers/BSP/Components/sx1276/sx1276.c ****                         }
1585:Drivers/BSP/Components/sx1276/sx1276.c ****                         TimerStop( &RxTimeoutTimer );
1586:Drivers/BSP/Components/sx1276/sx1276.c **** 
1587:Drivers/BSP/Components/sx1276/sx1276.c ****                         if( ( RadioEvents != NULL ) && ( RadioEvents->RxError != NULL ) )
1588:Drivers/BSP/Components/sx1276/sx1276.c ****                         {
1589:Drivers/BSP/Components/sx1276/sx1276.c ****                             RadioEvents->RxError( );
1590:Drivers/BSP/Components/sx1276/sx1276.c ****                         }
1591:Drivers/BSP/Components/sx1276/sx1276.c ****                         break;
1592:Drivers/BSP/Components/sx1276/sx1276.c ****                     }
1593:Drivers/BSP/Components/sx1276/sx1276.c **** 
1594:Drivers/BSP/Components/sx1276/sx1276.c ****                     SX1276.Settings.LoRaPacketHandler.SnrValue = SX1276Read( REG_LR_PKTSNRVALUE );
1595:Drivers/BSP/Components/sx1276/sx1276.c ****                     if( SX1276.Settings.LoRaPacketHandler.SnrValue & 0x80 ) // The SNR sign bit is 
1596:Drivers/BSP/Components/sx1276/sx1276.c ****                     {
1597:Drivers/BSP/Components/sx1276/sx1276.c ****                         // Invert and divide by 4
1598:Drivers/BSP/Components/sx1276/sx1276.c ****                         snr = ( ( ~SX1276.Settings.LoRaPacketHandler.SnrValue + 1 ) & 0xFF ) >> 2;
1599:Drivers/BSP/Components/sx1276/sx1276.c ****                         snr = -snr;
1600:Drivers/BSP/Components/sx1276/sx1276.c ****                     }
1601:Drivers/BSP/Components/sx1276/sx1276.c ****                     else
1602:Drivers/BSP/Components/sx1276/sx1276.c ****                     {
1603:Drivers/BSP/Components/sx1276/sx1276.c ****                         // Divide by 4
1604:Drivers/BSP/Components/sx1276/sx1276.c ****                         snr = ( SX1276.Settings.LoRaPacketHandler.SnrValue & 0xFF ) >> 2;
1605:Drivers/BSP/Components/sx1276/sx1276.c ****                     }
1606:Drivers/BSP/Components/sx1276/sx1276.c **** 
1607:Drivers/BSP/Components/sx1276/sx1276.c ****                     int16_t rssi = SX1276Read( REG_LR_PKTRSSIVALUE );
1608:Drivers/BSP/Components/sx1276/sx1276.c ****                     if( snr < 0 )
1609:Drivers/BSP/Components/sx1276/sx1276.c ****                     {
1610:Drivers/BSP/Components/sx1276/sx1276.c ****                         if( SX1276.Settings.Channel > RF_MID_BAND_THRESH )
1611:Drivers/BSP/Components/sx1276/sx1276.c ****                         {
1612:Drivers/BSP/Components/sx1276/sx1276.c ****                             SX1276.Settings.LoRaPacketHandler.RssiValue = RSSI_OFFSET_HF + rssi + (
1613:Drivers/BSP/Components/sx1276/sx1276.c ****                                                                           snr;
1614:Drivers/BSP/Components/sx1276/sx1276.c ****                         }
1615:Drivers/BSP/Components/sx1276/sx1276.c ****                         else
1616:Drivers/BSP/Components/sx1276/sx1276.c ****                         {
1617:Drivers/BSP/Components/sx1276/sx1276.c ****                             SX1276.Settings.LoRaPacketHandler.RssiValue = RSSI_OFFSET_LF + rssi + (
1618:Drivers/BSP/Components/sx1276/sx1276.c ****                                                                           snr;
1619:Drivers/BSP/Components/sx1276/sx1276.c ****                         }
1620:Drivers/BSP/Components/sx1276/sx1276.c ****                     }
1621:Drivers/BSP/Components/sx1276/sx1276.c ****                     else
1622:Drivers/BSP/Components/sx1276/sx1276.c ****                     {
ARM GAS  /var/folders/2m/zqg86yyd4hbf56w83tkxjpvr0000gn/T//ccRNesxV.s 			page 31


1623:Drivers/BSP/Components/sx1276/sx1276.c ****                         if( SX1276.Settings.Channel > RF_MID_BAND_THRESH )
1624:Drivers/BSP/Components/sx1276/sx1276.c ****                         {
1625:Drivers/BSP/Components/sx1276/sx1276.c ****                             SX1276.Settings.LoRaPacketHandler.RssiValue = RSSI_OFFSET_HF + rssi + (
1626:Drivers/BSP/Components/sx1276/sx1276.c ****                         }
1627:Drivers/BSP/Components/sx1276/sx1276.c ****                         else
1628:Drivers/BSP/Components/sx1276/sx1276.c ****                         {
1629:Drivers/BSP/Components/sx1276/sx1276.c ****                             SX1276.Settings.LoRaPacketHandler.RssiValue = RSSI_OFFSET_LF + rssi + (
1630:Drivers/BSP/Components/sx1276/sx1276.c ****                         }
1631:Drivers/BSP/Components/sx1276/sx1276.c ****                     }
1632:Drivers/BSP/Components/sx1276/sx1276.c **** 
1633:Drivers/BSP/Components/sx1276/sx1276.c ****                     SX1276.Settings.LoRaPacketHandler.Size = SX1276Read( REG_LR_RXNBBYTES );
1634:Drivers/BSP/Components/sx1276/sx1276.c ****                     SX1276Write( REG_LR_FIFOADDRPTR, SX1276Read( REG_LR_FIFORXCURRENTADDR ) );
1635:Drivers/BSP/Components/sx1276/sx1276.c ****                     SX1276ReadFifo( RxTxBuffer, SX1276.Settings.LoRaPacketHandler.Size );
1636:Drivers/BSP/Components/sx1276/sx1276.c **** 
1637:Drivers/BSP/Components/sx1276/sx1276.c ****                     if( SX1276.Settings.LoRa.RxContinuous == false )
1638:Drivers/BSP/Components/sx1276/sx1276.c ****                     {
1639:Drivers/BSP/Components/sx1276/sx1276.c ****                         SX1276.Settings.State = RF_IDLE;
1640:Drivers/BSP/Components/sx1276/sx1276.c ****                     }
1641:Drivers/BSP/Components/sx1276/sx1276.c ****                     TimerStop( &RxTimeoutTimer );
1642:Drivers/BSP/Components/sx1276/sx1276.c **** 
1643:Drivers/BSP/Components/sx1276/sx1276.c ****                     if( ( RadioEvents != NULL ) && ( RadioEvents->RxDone != NULL ) )
1644:Drivers/BSP/Components/sx1276/sx1276.c ****                     {
1645:Drivers/BSP/Components/sx1276/sx1276.c ****                         RadioEvents->RxDone( RxTxBuffer, SX1276.Settings.LoRaPacketHandler.Size, SX
1646:Drivers/BSP/Components/sx1276/sx1276.c ****                         PRINTF( "rxDone\n\r" );
1647:Drivers/BSP/Components/sx1276/sx1276.c ****                     }
1648:Drivers/BSP/Components/sx1276/sx1276.c ****                 }
1649:Drivers/BSP/Components/sx1276/sx1276.c ****                 break;
1650:Drivers/BSP/Components/sx1276/sx1276.c ****             default:
1651:Drivers/BSP/Components/sx1276/sx1276.c ****                 break;
1652:Drivers/BSP/Components/sx1276/sx1276.c ****             }
1653:Drivers/BSP/Components/sx1276/sx1276.c ****             break;
1654:Drivers/BSP/Components/sx1276/sx1276.c ****         case RF_TX_RUNNING:
1655:Drivers/BSP/Components/sx1276/sx1276.c ****             TimerStop( &TxTimeoutTimer );
1656:Drivers/BSP/Components/sx1276/sx1276.c ****             // TxDone interrupt
1657:Drivers/BSP/Components/sx1276/sx1276.c ****             switch( SX1276.Settings.Modem )
1658:Drivers/BSP/Components/sx1276/sx1276.c ****             {
1659:Drivers/BSP/Components/sx1276/sx1276.c ****             case MODEM_LORA:
1660:Drivers/BSP/Components/sx1276/sx1276.c ****                 // Clear Irq
1661:Drivers/BSP/Components/sx1276/sx1276.c ****                 SX1276Write( REG_LR_IRQFLAGS, RFLR_IRQFLAGS_TXDONE );
1662:Drivers/BSP/Components/sx1276/sx1276.c ****                 // Intentional fall through
1663:Drivers/BSP/Components/sx1276/sx1276.c ****             case MODEM_FSK:
1664:Drivers/BSP/Components/sx1276/sx1276.c ****             default:
1665:Drivers/BSP/Components/sx1276/sx1276.c ****                 SX1276.Settings.State = RF_IDLE;
1666:Drivers/BSP/Components/sx1276/sx1276.c ****                 if( ( RadioEvents != NULL ) && ( RadioEvents->TxDone != NULL ) )
1667:Drivers/BSP/Components/sx1276/sx1276.c ****                 {
1668:Drivers/BSP/Components/sx1276/sx1276.c ****                     RadioEvents->TxDone( );
1669:Drivers/BSP/Components/sx1276/sx1276.c ****                     PRINTF( "txDone\n\r" );
1670:Drivers/BSP/Components/sx1276/sx1276.c ****                 }
1671:Drivers/BSP/Components/sx1276/sx1276.c ****                 break;
1672:Drivers/BSP/Components/sx1276/sx1276.c ****             }
1673:Drivers/BSP/Components/sx1276/sx1276.c ****             break;
1674:Drivers/BSP/Components/sx1276/sx1276.c ****         default:
1675:Drivers/BSP/Components/sx1276/sx1276.c ****             break;
1676:Drivers/BSP/Components/sx1276/sx1276.c ****     }
1677:Drivers/BSP/Components/sx1276/sx1276.c **** }
1678:Drivers/BSP/Components/sx1276/sx1276.c **** 
1679:Drivers/BSP/Components/sx1276/sx1276.c **** void SX1276OnDio1Irq( void )
ARM GAS  /var/folders/2m/zqg86yyd4hbf56w83tkxjpvr0000gn/T//ccRNesxV.s 			page 32


1680:Drivers/BSP/Components/sx1276/sx1276.c **** {
1681:Drivers/BSP/Components/sx1276/sx1276.c ****     switch( SX1276.Settings.State )
1682:Drivers/BSP/Components/sx1276/sx1276.c ****     {
1683:Drivers/BSP/Components/sx1276/sx1276.c ****         case RF_RX_RUNNING:
1684:Drivers/BSP/Components/sx1276/sx1276.c ****             switch( SX1276.Settings.Modem )
1685:Drivers/BSP/Components/sx1276/sx1276.c ****             {
1686:Drivers/BSP/Components/sx1276/sx1276.c ****             case MODEM_FSK:
1687:Drivers/BSP/Components/sx1276/sx1276.c ****                 // FifoLevel interrupt
1688:Drivers/BSP/Components/sx1276/sx1276.c ****                 // Read received packet size
1689:Drivers/BSP/Components/sx1276/sx1276.c ****                 if( ( SX1276.Settings.FskPacketHandler.Size == 0 ) && ( SX1276.Settings.FskPacketHa
1690:Drivers/BSP/Components/sx1276/sx1276.c ****                 {
1691:Drivers/BSP/Components/sx1276/sx1276.c ****                     if( SX1276.Settings.Fsk.FixLen == false )
1692:Drivers/BSP/Components/sx1276/sx1276.c ****                     {
1693:Drivers/BSP/Components/sx1276/sx1276.c ****                         SX1276ReadFifo( ( uint8_t* )&SX1276.Settings.FskPacketHandler.Size, 1 );
1694:Drivers/BSP/Components/sx1276/sx1276.c ****                     }
1695:Drivers/BSP/Components/sx1276/sx1276.c ****                     else
1696:Drivers/BSP/Components/sx1276/sx1276.c ****                     {
1697:Drivers/BSP/Components/sx1276/sx1276.c ****                         SX1276.Settings.FskPacketHandler.Size = SX1276Read( REG_PAYLOADLENGTH );
1698:Drivers/BSP/Components/sx1276/sx1276.c ****                     }
1699:Drivers/BSP/Components/sx1276/sx1276.c ****                 }
1700:Drivers/BSP/Components/sx1276/sx1276.c **** 
1701:Drivers/BSP/Components/sx1276/sx1276.c ****                 if( ( SX1276.Settings.FskPacketHandler.Size - SX1276.Settings.FskPacketHandler.NbBy
1702:Drivers/BSP/Components/sx1276/sx1276.c ****                 {
1703:Drivers/BSP/Components/sx1276/sx1276.c ****                     SX1276ReadFifo( ( RxTxBuffer + SX1276.Settings.FskPacketHandler.NbBytes ), SX12
1704:Drivers/BSP/Components/sx1276/sx1276.c ****                     SX1276.Settings.FskPacketHandler.NbBytes += SX1276.Settings.FskPacketHandler.Fi
1705:Drivers/BSP/Components/sx1276/sx1276.c ****                 }
1706:Drivers/BSP/Components/sx1276/sx1276.c ****                 else
1707:Drivers/BSP/Components/sx1276/sx1276.c ****                 {
1708:Drivers/BSP/Components/sx1276/sx1276.c ****                     SX1276ReadFifo( ( RxTxBuffer + SX1276.Settings.FskPacketHandler.NbBytes ), SX12
1709:Drivers/BSP/Components/sx1276/sx1276.c ****                     SX1276.Settings.FskPacketHandler.NbBytes += ( SX1276.Settings.FskPacketHandler.
1710:Drivers/BSP/Components/sx1276/sx1276.c ****                 }
1711:Drivers/BSP/Components/sx1276/sx1276.c ****                 break;
1712:Drivers/BSP/Components/sx1276/sx1276.c ****             case MODEM_LORA:
1713:Drivers/BSP/Components/sx1276/sx1276.c ****                 // Sync time out
1714:Drivers/BSP/Components/sx1276/sx1276.c ****                 TimerStop( &RxTimeoutTimer );
1715:Drivers/BSP/Components/sx1276/sx1276.c ****                 // Clear Irq
1716:Drivers/BSP/Components/sx1276/sx1276.c ****                 SX1276Write( REG_LR_IRQFLAGS, RFLR_IRQFLAGS_RXTIMEOUT );
1717:Drivers/BSP/Components/sx1276/sx1276.c **** 
1718:Drivers/BSP/Components/sx1276/sx1276.c ****                 SX1276.Settings.State = RF_IDLE;
1719:Drivers/BSP/Components/sx1276/sx1276.c ****                 if( ( RadioEvents != NULL ) && ( RadioEvents->RxTimeout != NULL ) )
1720:Drivers/BSP/Components/sx1276/sx1276.c ****                 {
1721:Drivers/BSP/Components/sx1276/sx1276.c ****                     RadioEvents->RxTimeout( );
1722:Drivers/BSP/Components/sx1276/sx1276.c ****                     PRINTF( "rxTimeOut\n\r" );
1723:Drivers/BSP/Components/sx1276/sx1276.c ****                 }
1724:Drivers/BSP/Components/sx1276/sx1276.c ****                 break;
1725:Drivers/BSP/Components/sx1276/sx1276.c ****             default:
1726:Drivers/BSP/Components/sx1276/sx1276.c ****                 break;
1727:Drivers/BSP/Components/sx1276/sx1276.c ****             }
1728:Drivers/BSP/Components/sx1276/sx1276.c ****             break;
1729:Drivers/BSP/Components/sx1276/sx1276.c ****         case RF_TX_RUNNING:
1730:Drivers/BSP/Components/sx1276/sx1276.c ****             switch( SX1276.Settings.Modem )
1731:Drivers/BSP/Components/sx1276/sx1276.c ****             {
1732:Drivers/BSP/Components/sx1276/sx1276.c ****             case MODEM_FSK:
1733:Drivers/BSP/Components/sx1276/sx1276.c ****                 // FifoEmpty interrupt
1734:Drivers/BSP/Components/sx1276/sx1276.c ****                 if( ( SX1276.Settings.FskPacketHandler.Size - SX1276.Settings.FskPacketHandler.NbBy
1735:Drivers/BSP/Components/sx1276/sx1276.c ****                 {
1736:Drivers/BSP/Components/sx1276/sx1276.c ****                     SX1276WriteFifo( ( RxTxBuffer + SX1276.Settings.FskPacketHandler.NbBytes ), SX1
ARM GAS  /var/folders/2m/zqg86yyd4hbf56w83tkxjpvr0000gn/T//ccRNesxV.s 			page 33


1737:Drivers/BSP/Components/sx1276/sx1276.c ****                     SX1276.Settings.FskPacketHandler.NbBytes += SX1276.Settings.FskPacketHandler.Ch
1738:Drivers/BSP/Components/sx1276/sx1276.c ****                 }
1739:Drivers/BSP/Components/sx1276/sx1276.c ****                 else
1740:Drivers/BSP/Components/sx1276/sx1276.c ****                 {
1741:Drivers/BSP/Components/sx1276/sx1276.c ****                     // Write the last chunk of data
1742:Drivers/BSP/Components/sx1276/sx1276.c ****                     SX1276WriteFifo( RxTxBuffer + SX1276.Settings.FskPacketHandler.NbBytes, SX1276.
1743:Drivers/BSP/Components/sx1276/sx1276.c ****                     SX1276.Settings.FskPacketHandler.NbBytes += SX1276.Settings.FskPacketHandler.Si
1744:Drivers/BSP/Components/sx1276/sx1276.c ****                 }
1745:Drivers/BSP/Components/sx1276/sx1276.c ****                 break;
1746:Drivers/BSP/Components/sx1276/sx1276.c ****             case MODEM_LORA:
1747:Drivers/BSP/Components/sx1276/sx1276.c ****                 break;
1748:Drivers/BSP/Components/sx1276/sx1276.c ****             default:
1749:Drivers/BSP/Components/sx1276/sx1276.c ****                 break;
1750:Drivers/BSP/Components/sx1276/sx1276.c ****             }
1751:Drivers/BSP/Components/sx1276/sx1276.c ****             break;
1752:Drivers/BSP/Components/sx1276/sx1276.c ****         default:
1753:Drivers/BSP/Components/sx1276/sx1276.c ****             break;
1754:Drivers/BSP/Components/sx1276/sx1276.c ****     }
1755:Drivers/BSP/Components/sx1276/sx1276.c **** }
1756:Drivers/BSP/Components/sx1276/sx1276.c **** 
1757:Drivers/BSP/Components/sx1276/sx1276.c **** void SX1276OnDio2Irq( void )
1758:Drivers/BSP/Components/sx1276/sx1276.c **** {
1759:Drivers/BSP/Components/sx1276/sx1276.c ****     uint32_t afcChannel = 0;
1760:Drivers/BSP/Components/sx1276/sx1276.c **** 
1761:Drivers/BSP/Components/sx1276/sx1276.c ****     switch( SX1276.Settings.State )
1762:Drivers/BSP/Components/sx1276/sx1276.c ****     {
1763:Drivers/BSP/Components/sx1276/sx1276.c ****         case RF_RX_RUNNING:
1764:Drivers/BSP/Components/sx1276/sx1276.c ****             switch( SX1276.Settings.Modem )
1765:Drivers/BSP/Components/sx1276/sx1276.c ****             {
1766:Drivers/BSP/Components/sx1276/sx1276.c ****             case MODEM_FSK:
1767:Drivers/BSP/Components/sx1276/sx1276.c ****                 // Checks if DIO4 is connected. If it is not PreambleDetected is set to true.
1768:Drivers/BSP/Components/sx1276/sx1276.c **** #ifndef RADIO_DIO_4
1769:Drivers/BSP/Components/sx1276/sx1276.c ****                 SX1276.Settings.FskPacketHandler.PreambleDetected = true;
1770:Drivers/BSP/Components/sx1276/sx1276.c **** #endif
1771:Drivers/BSP/Components/sx1276/sx1276.c **** 
1772:Drivers/BSP/Components/sx1276/sx1276.c ****                 if( ( SX1276.Settings.FskPacketHandler.PreambleDetected == true ) && ( SX1276.Setti
1773:Drivers/BSP/Components/sx1276/sx1276.c ****                 {
1774:Drivers/BSP/Components/sx1276/sx1276.c ****                     TimerStop( &RxTimeoutSyncWord );
1775:Drivers/BSP/Components/sx1276/sx1276.c **** 
1776:Drivers/BSP/Components/sx1276/sx1276.c ****                     SX1276.Settings.FskPacketHandler.SyncWordDetected = true;
1777:Drivers/BSP/Components/sx1276/sx1276.c **** 
1778:Drivers/BSP/Components/sx1276/sx1276.c ****                     SX1276.Settings.FskPacketHandler.RssiValue = -( SX1276Read( REG_RSSIVALUE ) >> 
1779:Drivers/BSP/Components/sx1276/sx1276.c **** 
1780:Drivers/BSP/Components/sx1276/sx1276.c ****                     afcChannel = ( ( ( uint16_t )SX1276Read( REG_AFCMSB ) << 8 ) |
1781:Drivers/BSP/Components/sx1276/sx1276.c ****                                      ( uint16_t )SX1276Read( REG_AFCLSB ) );
1782:Drivers/BSP/Components/sx1276/sx1276.c **** 
1783:Drivers/BSP/Components/sx1276/sx1276.c ****                     SX_CHANNEL_TO_FREQ( afcChannel, SX1276.Settings.FskPacketHandler.AfcValue );
1784:Drivers/BSP/Components/sx1276/sx1276.c **** 
1785:Drivers/BSP/Components/sx1276/sx1276.c ****                     SX1276.Settings.FskPacketHandler.RxGain = ( SX1276Read( REG_LNA ) >> 5 ) & 0x07
1786:Drivers/BSP/Components/sx1276/sx1276.c ****                 }
1787:Drivers/BSP/Components/sx1276/sx1276.c ****                 break;
1788:Drivers/BSP/Components/sx1276/sx1276.c ****             case MODEM_LORA:
1789:Drivers/BSP/Components/sx1276/sx1276.c ****                 if( SX1276.Settings.LoRa.FreqHopOn == true )
1790:Drivers/BSP/Components/sx1276/sx1276.c ****                 {
1791:Drivers/BSP/Components/sx1276/sx1276.c ****                     // Clear Irq
1792:Drivers/BSP/Components/sx1276/sx1276.c ****                     SX1276Write( REG_LR_IRQFLAGS, RFLR_IRQFLAGS_FHSSCHANGEDCHANNEL );
1793:Drivers/BSP/Components/sx1276/sx1276.c **** 
ARM GAS  /var/folders/2m/zqg86yyd4hbf56w83tkxjpvr0000gn/T//ccRNesxV.s 			page 34


1794:Drivers/BSP/Components/sx1276/sx1276.c ****                     if( ( RadioEvents != NULL ) && ( RadioEvents->FhssChangeChannel != NULL ) )
1795:Drivers/BSP/Components/sx1276/sx1276.c ****                     {
1796:Drivers/BSP/Components/sx1276/sx1276.c ****                         RadioEvents->FhssChangeChannel( ( SX1276Read( REG_LR_HOPCHANNEL ) & RFLR_HO
1797:Drivers/BSP/Components/sx1276/sx1276.c ****                     }
1798:Drivers/BSP/Components/sx1276/sx1276.c ****                 }
1799:Drivers/BSP/Components/sx1276/sx1276.c ****                 break;
1800:Drivers/BSP/Components/sx1276/sx1276.c ****             default:
1801:Drivers/BSP/Components/sx1276/sx1276.c ****                 break;
1802:Drivers/BSP/Components/sx1276/sx1276.c ****             }
1803:Drivers/BSP/Components/sx1276/sx1276.c ****             break;
1804:Drivers/BSP/Components/sx1276/sx1276.c ****         case RF_TX_RUNNING:
1805:Drivers/BSP/Components/sx1276/sx1276.c ****             switch( SX1276.Settings.Modem )
1806:Drivers/BSP/Components/sx1276/sx1276.c ****             {
1807:Drivers/BSP/Components/sx1276/sx1276.c ****             case MODEM_FSK:
1808:Drivers/BSP/Components/sx1276/sx1276.c ****                 break;
1809:Drivers/BSP/Components/sx1276/sx1276.c ****             case MODEM_LORA:
1810:Drivers/BSP/Components/sx1276/sx1276.c ****                 if( SX1276.Settings.LoRa.FreqHopOn == true )
1811:Drivers/BSP/Components/sx1276/sx1276.c ****                 {
1812:Drivers/BSP/Components/sx1276/sx1276.c ****                     // Clear Irq
1813:Drivers/BSP/Components/sx1276/sx1276.c ****                     SX1276Write( REG_LR_IRQFLAGS, RFLR_IRQFLAGS_FHSSCHANGEDCHANNEL );
1814:Drivers/BSP/Components/sx1276/sx1276.c **** 
1815:Drivers/BSP/Components/sx1276/sx1276.c ****                     if( ( RadioEvents != NULL ) && ( RadioEvents->FhssChangeChannel != NULL ) )
1816:Drivers/BSP/Components/sx1276/sx1276.c ****                     {
1817:Drivers/BSP/Components/sx1276/sx1276.c ****                         RadioEvents->FhssChangeChannel( ( SX1276Read( REG_LR_HOPCHANNEL ) & RFLR_HO
1818:Drivers/BSP/Components/sx1276/sx1276.c ****                     }
1819:Drivers/BSP/Components/sx1276/sx1276.c ****                 }
1820:Drivers/BSP/Components/sx1276/sx1276.c ****                 break;
1821:Drivers/BSP/Components/sx1276/sx1276.c ****             default:
1822:Drivers/BSP/Components/sx1276/sx1276.c ****                 break;
1823:Drivers/BSP/Components/sx1276/sx1276.c ****             }
1824:Drivers/BSP/Components/sx1276/sx1276.c ****             break;
1825:Drivers/BSP/Components/sx1276/sx1276.c ****         default:
1826:Drivers/BSP/Components/sx1276/sx1276.c ****             break;
1827:Drivers/BSP/Components/sx1276/sx1276.c ****     }
1828:Drivers/BSP/Components/sx1276/sx1276.c **** }
1829:Drivers/BSP/Components/sx1276/sx1276.c **** 
1830:Drivers/BSP/Components/sx1276/sx1276.c **** void SX1276OnDio3Irq( void )
1831:Drivers/BSP/Components/sx1276/sx1276.c **** {
1832:Drivers/BSP/Components/sx1276/sx1276.c ****     switch( SX1276.Settings.Modem )
1833:Drivers/BSP/Components/sx1276/sx1276.c ****     {
1834:Drivers/BSP/Components/sx1276/sx1276.c ****     case MODEM_FSK:
1835:Drivers/BSP/Components/sx1276/sx1276.c ****         break;
1836:Drivers/BSP/Components/sx1276/sx1276.c ****     case MODEM_LORA:
1837:Drivers/BSP/Components/sx1276/sx1276.c ****         if( ( SX1276Read( REG_LR_IRQFLAGS ) & RFLR_IRQFLAGS_CADDETECTED ) == RFLR_IRQFLAGS_CADDETEC
1838:Drivers/BSP/Components/sx1276/sx1276.c ****         {
1839:Drivers/BSP/Components/sx1276/sx1276.c ****             // Clear Irq
1840:Drivers/BSP/Components/sx1276/sx1276.c ****             SX1276Write( REG_LR_IRQFLAGS, RFLR_IRQFLAGS_CADDETECTED | RFLR_IRQFLAGS_CADDONE );
1841:Drivers/BSP/Components/sx1276/sx1276.c ****             if( ( RadioEvents != NULL ) && ( RadioEvents->CadDone != NULL ) )
1842:Drivers/BSP/Components/sx1276/sx1276.c ****             {
1843:Drivers/BSP/Components/sx1276/sx1276.c ****                 RadioEvents->CadDone( true );
1844:Drivers/BSP/Components/sx1276/sx1276.c ****             }
1845:Drivers/BSP/Components/sx1276/sx1276.c ****         }
1846:Drivers/BSP/Components/sx1276/sx1276.c ****         else
1847:Drivers/BSP/Components/sx1276/sx1276.c ****         {
1848:Drivers/BSP/Components/sx1276/sx1276.c ****             // Clear Irq
1849:Drivers/BSP/Components/sx1276/sx1276.c ****             SX1276Write( REG_LR_IRQFLAGS, RFLR_IRQFLAGS_CADDONE );
1850:Drivers/BSP/Components/sx1276/sx1276.c ****             if( ( RadioEvents != NULL ) && ( RadioEvents->CadDone != NULL ) )
ARM GAS  /var/folders/2m/zqg86yyd4hbf56w83tkxjpvr0000gn/T//ccRNesxV.s 			page 35


1851:Drivers/BSP/Components/sx1276/sx1276.c ****             {
1852:Drivers/BSP/Components/sx1276/sx1276.c ****                 RadioEvents->CadDone( false );
1853:Drivers/BSP/Components/sx1276/sx1276.c ****             }
1854:Drivers/BSP/Components/sx1276/sx1276.c ****         }
1855:Drivers/BSP/Components/sx1276/sx1276.c ****         break;
1856:Drivers/BSP/Components/sx1276/sx1276.c ****     default:
1857:Drivers/BSP/Components/sx1276/sx1276.c ****         break;
1858:Drivers/BSP/Components/sx1276/sx1276.c ****     }
1859:Drivers/BSP/Components/sx1276/sx1276.c **** }
1860:Drivers/BSP/Components/sx1276/sx1276.c **** 
1861:Drivers/BSP/Components/sx1276/sx1276.c **** void SX1276OnDio4Irq( void )
1862:Drivers/BSP/Components/sx1276/sx1276.c **** {
  92              		.loc 1 1862 0
  93              		.cfi_startproc
  94              		@ args = 0, pretend = 0, frame = 0
  95              		@ frame_needed = 0, uses_anonymous_args = 0
  96              		@ link register save eliminated.
1863:Drivers/BSP/Components/sx1276/sx1276.c ****     switch( SX1276.Settings.Modem )
  97              		.loc 1 1863 0
  98 0000 064B     		ldr	r3, .L13
  99 0002 5B79     		ldrb	r3, [r3, #5]
 100 0004 002B     		cmp	r3, #0
 101 0006 07D1     		bne	.L10
1864:Drivers/BSP/Components/sx1276/sx1276.c ****     {
1865:Drivers/BSP/Components/sx1276/sx1276.c ****     case MODEM_FSK:
1866:Drivers/BSP/Components/sx1276/sx1276.c ****         {
1867:Drivers/BSP/Components/sx1276/sx1276.c ****             if( SX1276.Settings.FskPacketHandler.PreambleDetected == false )
 102              		.loc 1 1867 0
 103 0008 044A     		ldr	r2, .L13
 104 000a 3033     		adds	r3, r3, #48
 105 000c D35C     		ldrb	r3, [r2, r3]
 106 000e 002B     		cmp	r3, #0
 107 0010 02D1     		bne	.L10
1868:Drivers/BSP/Components/sx1276/sx1276.c ****             {
1869:Drivers/BSP/Components/sx1276/sx1276.c ****                 SX1276.Settings.FskPacketHandler.PreambleDetected = true;
 108              		.loc 1 1869 0
 109 0012 3033     		adds	r3, r3, #48
 110 0014 0121     		movs	r1, #1
 111 0016 D154     		strb	r1, [r2, r3]
 112              	.L10:
1870:Drivers/BSP/Components/sx1276/sx1276.c ****             }
1871:Drivers/BSP/Components/sx1276/sx1276.c ****         }
1872:Drivers/BSP/Components/sx1276/sx1276.c ****         break;
1873:Drivers/BSP/Components/sx1276/sx1276.c ****     case MODEM_LORA:
1874:Drivers/BSP/Components/sx1276/sx1276.c ****         break;
1875:Drivers/BSP/Components/sx1276/sx1276.c ****     default:
1876:Drivers/BSP/Components/sx1276/sx1276.c ****         break;
1877:Drivers/BSP/Components/sx1276/sx1276.c ****     }
1878:Drivers/BSP/Components/sx1276/sx1276.c **** }
 113              		.loc 1 1878 0
 114              		@ sp needed
 115 0018 7047     		bx	lr
 116              	.L14:
 117 001a C046     		.align	2
 118              	.L13:
 119 001c 00000000 		.word	SX1276
 120              		.cfi_endproc
ARM GAS  /var/folders/2m/zqg86yyd4hbf56w83tkxjpvr0000gn/T//ccRNesxV.s 			page 36


 121              	.LFE76:
 123              		.section	.text.SX1276BoardInit,"ax",%progbits
 124              		.align	1
 125              		.global	SX1276BoardInit
 126              		.syntax unified
 127              		.code	16
 128              		.thumb_func
 129              		.fpu softvfp
 131              	SX1276BoardInit:
 132              	.LFB40:
 254:Drivers/BSP/Components/sx1276/sx1276.c ****     LoRaBoardCallbacks =callbacks;
 133              		.loc 1 254 0
 134              		.cfi_startproc
 135              		@ args = 0, pretend = 0, frame = 0
 136              		@ frame_needed = 0, uses_anonymous_args = 0
 137              		@ link register save eliminated.
 138              	.LVL8:
 255:Drivers/BSP/Components/sx1276/sx1276.c **** }
 139              		.loc 1 255 0
 140 0000 014B     		ldr	r3, .L16
 141 0002 1860     		str	r0, [r3]
 256:Drivers/BSP/Components/sx1276/sx1276.c **** 
 142              		.loc 1 256 0
 143              		@ sp needed
 144 0004 7047     		bx	lr
 145              	.L17:
 146 0006 C046     		.align	2
 147              	.L16:
 148 0008 00000000 		.word	.LANCHOR0
 149              		.cfi_endproc
 150              	.LFE40:
 152              		.section	.text.SX1276GetStatus,"ax",%progbits
 153              		.align	1
 154              		.global	SX1276GetStatus
 155              		.syntax unified
 156              		.code	16
 157              		.thumb_func
 158              		.fpu softvfp
 160              	SX1276GetStatus:
 161              	.LFB42:
 293:Drivers/BSP/Components/sx1276/sx1276.c ****     return SX1276.Settings.State;
 162              		.loc 1 293 0
 163              		.cfi_startproc
 164              		@ args = 0, pretend = 0, frame = 0
 165              		@ frame_needed = 0, uses_anonymous_args = 0
 166              		@ link register save eliminated.
 294:Drivers/BSP/Components/sx1276/sx1276.c **** }
 167              		.loc 1 294 0
 168 0000 014B     		ldr	r3, .L19
 169 0002 1879     		ldrb	r0, [r3, #4]
 295:Drivers/BSP/Components/sx1276/sx1276.c **** 
 170              		.loc 1 295 0
 171              		@ sp needed
 172 0004 7047     		bx	lr
 173              	.L20:
 174 0006 C046     		.align	2
 175              	.L19:
ARM GAS  /var/folders/2m/zqg86yyd4hbf56w83tkxjpvr0000gn/T//ccRNesxV.s 			page 37


 176 0008 00000000 		.word	SX1276
 177              		.cfi_endproc
 178              	.LFE42:
 180              		.section	.text.SX1276Reset,"ax",%progbits
 181              		.align	1
 182              		.global	SX1276Reset
 183              		.syntax unified
 184              		.code	16
 185              		.thumb_func
 186              		.fpu softvfp
 188              	SX1276Reset:
 189              	.LFB59:
1224:Drivers/BSP/Components/sx1276/sx1276.c ****     GPIO_InitTypeDef initStruct = { 0 };
 190              		.loc 1 1224 0
 191              		.cfi_startproc
 192              		@ args = 0, pretend = 0, frame = 24
 193              		@ frame_needed = 0, uses_anonymous_args = 0
 194 0000 10B5     		push	{r4, lr}
 195              	.LCFI1:
 196              		.cfi_def_cfa_offset 8
 197              		.cfi_offset 4, -8
 198              		.cfi_offset 14, -4
 199 0002 86B0     		sub	sp, sp, #24
 200              	.LCFI2:
 201              		.cfi_def_cfa_offset 32
1225:Drivers/BSP/Components/sx1276/sx1276.c **** 
 202              		.loc 1 1225 0
 203 0004 1422     		movs	r2, #20
 204 0006 0021     		movs	r1, #0
 205 0008 01A8     		add	r0, sp, #4
 206 000a FFF7FEFF 		bl	memset
 207              	.LVL9:
1227:Drivers/BSP/Components/sx1276/sx1276.c ****     initStruct.Pull = GPIO_NOPULL;
 208              		.loc 1 1227 0
 209 000e 0123     		movs	r3, #1
 210 0010 0293     		str	r3, [sp, #8]
1229:Drivers/BSP/Components/sx1276/sx1276.c **** 
 211              		.loc 1 1229 0
 212 0012 0233     		adds	r3, r3, #2
 213 0014 0493     		str	r3, [sp, #16]
1232:Drivers/BSP/Components/sx1276/sx1276.c ****     HW_GPIO_Write( RADIO_RESET_PORT, RADIO_RESET_PIN, 0 );
 214              		.loc 1 1232 0
 215 0016 0D4C     		ldr	r4, .L22
 216 0018 01AA     		add	r2, sp, #4
 217 001a 0121     		movs	r1, #1
 218 001c 2000     		movs	r0, r4
 219 001e FFF7FEFF 		bl	HW_GPIO_Init
 220              	.LVL10:
1233:Drivers/BSP/Components/sx1276/sx1276.c **** 
 221              		.loc 1 1233 0
 222 0022 0022     		movs	r2, #0
 223 0024 0121     		movs	r1, #1
 224 0026 2000     		movs	r0, r4
 225 0028 FFF7FEFF 		bl	HW_GPIO_Write
 226              	.LVL11:
1236:Drivers/BSP/Components/sx1276/sx1276.c **** 
 227              		.loc 1 1236 0
ARM GAS  /var/folders/2m/zqg86yyd4hbf56w83tkxjpvr0000gn/T//ccRNesxV.s 			page 38


 228 002c 0120     		movs	r0, #1
 229 002e FFF7FEFF 		bl	DelayMs
 230              	.LVL12:
1239:Drivers/BSP/Components/sx1276/sx1276.c ****     HW_GPIO_Init( RADIO_RESET_PORT, RADIO_RESET_PIN, &initStruct );
 231              		.loc 1 1239 0
 232 0032 0023     		movs	r3, #0
 233 0034 0293     		str	r3, [sp, #8]
1240:Drivers/BSP/Components/sx1276/sx1276.c **** 
 234              		.loc 1 1240 0
 235 0036 01AA     		add	r2, sp, #4
 236 0038 0121     		movs	r1, #1
 237 003a 2000     		movs	r0, r4
 238 003c FFF7FEFF 		bl	HW_GPIO_Init
 239              	.LVL13:
1243:Drivers/BSP/Components/sx1276/sx1276.c **** }
 240              		.loc 1 1243 0
 241 0040 0620     		movs	r0, #6
 242 0042 FFF7FEFF 		bl	DelayMs
 243              	.LVL14:
1244:Drivers/BSP/Components/sx1276/sx1276.c **** 
 244              		.loc 1 1244 0
 245 0046 06B0     		add	sp, sp, #24
 246              		@ sp needed
 247 0048 10BD     		pop	{r4, pc}
 248              	.L23:
 249 004a C046     		.align	2
 250              	.L22:
 251 004c 00080050 		.word	1342179328
 252              		.cfi_endproc
 253              	.LFE59:
 255              		.section	.text.SX1276WriteBuffer,"ax",%progbits
 256              		.align	1
 257              		.global	SX1276WriteBuffer
 258              		.syntax unified
 259              		.code	16
 260              		.thumb_func
 261              		.fpu softvfp
 263              	SX1276WriteBuffer:
 264              	.LFB64:
1318:Drivers/BSP/Components/sx1276/sx1276.c ****     uint8_t i;
 265              		.loc 1 1318 0
 266              		.cfi_startproc
 267              		@ args = 0, pretend = 0, frame = 0
 268              		@ frame_needed = 0, uses_anonymous_args = 0
 269              	.LVL15:
 270 0000 70B5     		push	{r4, r5, r6, lr}
 271              	.LCFI3:
 272              		.cfi_def_cfa_offset 16
 273              		.cfi_offset 4, -16
 274              		.cfi_offset 5, -12
 275              		.cfi_offset 6, -8
 276              		.cfi_offset 14, -4
 277 0002 0400     		movs	r4, r0
 278 0004 0E00     		movs	r6, r1
 279 0006 1500     		movs	r5, r2
1322:Drivers/BSP/Components/sx1276/sx1276.c **** 
 280              		.loc 1 1322 0
ARM GAS  /var/folders/2m/zqg86yyd4hbf56w83tkxjpvr0000gn/T//ccRNesxV.s 			page 39


 281 0008 8021     		movs	r1, #128
 282              	.LVL16:
 283 000a A020     		movs	r0, #160
 284              	.LVL17:
 285 000c 0022     		movs	r2, #0
 286              	.LVL18:
 287 000e 0902     		lsls	r1, r1, #8
 288 0010 C005     		lsls	r0, r0, #23
 289 0012 FFF7FEFF 		bl	HW_GPIO_Write
 290              	.LVL19:
1324:Drivers/BSP/Components/sx1276/sx1276.c ****     for( i = 0; i < size; i++ )
 291              		.loc 1 1324 0
 292 0016 8020     		movs	r0, #128
 293 0018 2043     		orrs	r0, r4
 294 001a FFF7FEFF 		bl	HW_SPI_InOut
 295              	.LVL20:
1325:Drivers/BSP/Components/sx1276/sx1276.c ****     {
 296              		.loc 1 1325 0
 297 001e 0024     		movs	r4, #0
 298 0020 04E0     		b	.L25
 299              	.LVL21:
 300              	.L26:
1327:Drivers/BSP/Components/sx1276/sx1276.c ****     }
 301              		.loc 1 1327 0 discriminator 3
 302 0022 305D     		ldrb	r0, [r6, r4]
 303 0024 FFF7FEFF 		bl	HW_SPI_InOut
 304              	.LVL22:
1325:Drivers/BSP/Components/sx1276/sx1276.c ****     {
 305              		.loc 1 1325 0 discriminator 3
 306 0028 0134     		adds	r4, r4, #1
 307              	.LVL23:
 308 002a E4B2     		uxtb	r4, r4
 309              	.LVL24:
 310              	.L25:
1325:Drivers/BSP/Components/sx1276/sx1276.c ****     {
 311              		.loc 1 1325 0 is_stmt 0 discriminator 1
 312 002c AC42     		cmp	r4, r5
 313 002e F8D3     		bcc	.L26
1331:Drivers/BSP/Components/sx1276/sx1276.c **** }
 314              		.loc 1 1331 0 is_stmt 1
 315 0030 8021     		movs	r1, #128
 316 0032 A020     		movs	r0, #160
 317 0034 0122     		movs	r2, #1
 318 0036 0902     		lsls	r1, r1, #8
 319 0038 C005     		lsls	r0, r0, #23
 320 003a FFF7FEFF 		bl	HW_GPIO_Write
 321              	.LVL25:
1332:Drivers/BSP/Components/sx1276/sx1276.c **** 
 322              		.loc 1 1332 0
 323              		@ sp needed
 324              	.LVL26:
 325              	.LVL27:
 326 003e 70BD     		pop	{r4, r5, r6, pc}
 327              		.cfi_endproc
 328              	.LFE64:
 330              		.section	.text.SX1276Write,"ax",%progbits
 331              		.align	1
ARM GAS  /var/folders/2m/zqg86yyd4hbf56w83tkxjpvr0000gn/T//ccRNesxV.s 			page 40


 332              		.global	SX1276Write
 333              		.syntax unified
 334              		.code	16
 335              		.thumb_func
 336              		.fpu softvfp
 338              	SX1276Write:
 339              	.LFB62:
1306:Drivers/BSP/Components/sx1276/sx1276.c ****     SX1276WriteBuffer( addr, &data, 1 );
 340              		.loc 1 1306 0
 341              		.cfi_startproc
 342              		@ args = 0, pretend = 0, frame = 8
 343              		@ frame_needed = 0, uses_anonymous_args = 0
 344              	.LVL28:
 345 0000 00B5     		push	{lr}
 346              	.LCFI4:
 347              		.cfi_def_cfa_offset 4
 348              		.cfi_offset 14, -4
 349 0002 83B0     		sub	sp, sp, #12
 350              	.LCFI5:
 351              		.cfi_def_cfa_offset 16
 352 0004 6B46     		mov	r3, sp
 353 0006 D971     		strb	r1, [r3, #7]
 354 0008 0733     		adds	r3, r3, #7
1307:Drivers/BSP/Components/sx1276/sx1276.c **** }
 355              		.loc 1 1307 0
 356 000a 0122     		movs	r2, #1
 357 000c 1900     		movs	r1, r3
 358              	.LVL29:
 359 000e FFF7FEFF 		bl	SX1276WriteBuffer
 360              	.LVL30:
1308:Drivers/BSP/Components/sx1276/sx1276.c **** 
 361              		.loc 1 1308 0
 362 0012 03B0     		add	sp, sp, #12
 363              		@ sp needed
 364 0014 00BD     		pop	{pc}
 365              		.cfi_endproc
 366              	.LFE62:
 368              		.global	__aeabi_uidiv
 369              		.global	__aeabi_uidivmod
 370              		.section	.text.SX1276SetChannel,"ax",%progbits
 371              		.align	1
 372              		.global	SX1276SetChannel
 373              		.syntax unified
 374              		.code	16
 375              		.thumb_func
 376              		.fpu softvfp
 378              	SX1276SetChannel:
 379              	.LFB43:
 298:Drivers/BSP/Components/sx1276/sx1276.c ****     uint32_t channel;
 380              		.loc 1 298 0
 381              		.cfi_startproc
 382              		@ args = 0, pretend = 0, frame = 0
 383              		@ frame_needed = 0, uses_anonymous_args = 0
 384              	.LVL31:
 385 0000 70B5     		push	{r4, r5, r6, lr}
 386              	.LCFI6:
 387              		.cfi_def_cfa_offset 16
ARM GAS  /var/folders/2m/zqg86yyd4hbf56w83tkxjpvr0000gn/T//ccRNesxV.s 			page 41


 388              		.cfi_offset 4, -16
 389              		.cfi_offset 5, -12
 390              		.cfi_offset 6, -8
 391              		.cfi_offset 14, -4
 392 0002 0500     		movs	r5, r0
 301:Drivers/BSP/Components/sx1276/sx1276.c **** 
 393              		.loc 1 301 0
 394 0004 104B     		ldr	r3, .L29
 395 0006 9860     		str	r0, [r3, #8]
 396              	.LBB2:
 303:Drivers/BSP/Components/sx1276/sx1276.c **** 
 397              		.loc 1 303 0
 398 0008 1049     		ldr	r1, .L29+4
 399 000a FFF7FEFF 		bl	__aeabi_uidiv
 400              	.LVL32:
 401 000e 0402     		lsls	r4, r0, #8
 402 0010 0E49     		ldr	r1, .L29+4
 403 0012 2800     		movs	r0, r5
 404              	.LVL33:
 405 0014 FFF7FEFF 		bl	__aeabi_uidivmod
 406              	.LVL34:
 407 0018 0802     		lsls	r0, r1, #8
 408 001a 0D4B     		ldr	r3, .L29+8
 409 001c 9C46     		mov	ip, r3
 410 001e 6044     		add	r0, r0, ip
 411 0020 0A49     		ldr	r1, .L29+4
 412 0022 FFF7FEFF 		bl	__aeabi_uidiv
 413              	.LVL35:
 414 0026 2418     		adds	r4, r4, r0
 415              	.LVL36:
 416              	.LBE2:
 305:Drivers/BSP/Components/sx1276/sx1276.c ****     SX1276Write( REG_FRFMID, ( uint8_t )( ( channel >> 8 ) & 0xFF ) );
 417              		.loc 1 305 0
 418 0028 210C     		lsrs	r1, r4, #16
 419 002a C9B2     		uxtb	r1, r1
 420 002c 0620     		movs	r0, #6
 421 002e FFF7FEFF 		bl	SX1276Write
 422              	.LVL37:
 306:Drivers/BSP/Components/sx1276/sx1276.c ****     SX1276Write( REG_FRFLSB, ( uint8_t )( channel & 0xFF ) );
 423              		.loc 1 306 0
 424 0032 210A     		lsrs	r1, r4, #8
 425 0034 C9B2     		uxtb	r1, r1
 426 0036 0720     		movs	r0, #7
 427 0038 FFF7FEFF 		bl	SX1276Write
 428              	.LVL38:
 307:Drivers/BSP/Components/sx1276/sx1276.c **** }
 429              		.loc 1 307 0
 430 003c E1B2     		uxtb	r1, r4
 431 003e 0820     		movs	r0, #8
 432 0040 FFF7FEFF 		bl	SX1276Write
 433              	.LVL39:
 308:Drivers/BSP/Components/sx1276/sx1276.c **** 
 434              		.loc 1 308 0
 435              		@ sp needed
 436              	.LVL40:
 437              	.LVL41:
 438 0044 70BD     		pop	{r4, r5, r6, pc}
ARM GAS  /var/folders/2m/zqg86yyd4hbf56w83tkxjpvr0000gn/T//ccRNesxV.s 			page 42


 439              	.L30:
 440 0046 C046     		.align	2
 441              	.L29:
 442 0048 00000000 		.word	SX1276
 443 004c 093D0000 		.word	15625
 444 0050 841E0000 		.word	7812
 445              		.cfi_endproc
 446              	.LFE43:
 448              		.section	.text.SX1276ReadBuffer,"ax",%progbits
 449              		.align	1
 450              		.global	SX1276ReadBuffer
 451              		.syntax unified
 452              		.code	16
 453              		.thumb_func
 454              		.fpu softvfp
 456              	SX1276ReadBuffer:
 457              	.LFB65:
1335:Drivers/BSP/Components/sx1276/sx1276.c ****     uint8_t i;
 458              		.loc 1 1335 0
 459              		.cfi_startproc
 460              		@ args = 0, pretend = 0, frame = 0
 461              		@ frame_needed = 0, uses_anonymous_args = 0
 462              	.LVL42:
 463 0000 70B5     		push	{r4, r5, r6, lr}
 464              	.LCFI7:
 465              		.cfi_def_cfa_offset 16
 466              		.cfi_offset 4, -16
 467              		.cfi_offset 5, -12
 468              		.cfi_offset 6, -8
 469              		.cfi_offset 14, -4
 470 0002 0400     		movs	r4, r0
 471 0004 0E00     		movs	r6, r1
 472 0006 1500     		movs	r5, r2
1339:Drivers/BSP/Components/sx1276/sx1276.c **** 
 473              		.loc 1 1339 0
 474 0008 8021     		movs	r1, #128
 475              	.LVL43:
 476 000a A020     		movs	r0, #160
 477              	.LVL44:
 478 000c 0022     		movs	r2, #0
 479              	.LVL45:
 480 000e 0902     		lsls	r1, r1, #8
 481 0010 C005     		lsls	r0, r0, #23
 482 0012 FFF7FEFF 		bl	HW_GPIO_Write
 483              	.LVL46:
1341:Drivers/BSP/Components/sx1276/sx1276.c **** 
 484              		.loc 1 1341 0
 485 0016 7F20     		movs	r0, #127
 486 0018 2040     		ands	r0, r4
 487 001a FFF7FEFF 		bl	HW_SPI_InOut
 488              	.LVL47:
1343:Drivers/BSP/Components/sx1276/sx1276.c ****     {
 489              		.loc 1 1343 0
 490 001e 0024     		movs	r4, #0
 491 0020 05E0     		b	.L32
 492              	.LVL48:
 493              	.L33:
ARM GAS  /var/folders/2m/zqg86yyd4hbf56w83tkxjpvr0000gn/T//ccRNesxV.s 			page 43


1345:Drivers/BSP/Components/sx1276/sx1276.c ****     }
 494              		.loc 1 1345 0 discriminator 3
 495 0022 0020     		movs	r0, #0
 496 0024 FFF7FEFF 		bl	HW_SPI_InOut
 497              	.LVL49:
 498 0028 3055     		strb	r0, [r6, r4]
1343:Drivers/BSP/Components/sx1276/sx1276.c ****     {
 499              		.loc 1 1343 0 discriminator 3
 500 002a 0134     		adds	r4, r4, #1
 501              	.LVL50:
 502 002c E4B2     		uxtb	r4, r4
 503              	.LVL51:
 504              	.L32:
1343:Drivers/BSP/Components/sx1276/sx1276.c ****     {
 505              		.loc 1 1343 0 is_stmt 0 discriminator 1
 506 002e AC42     		cmp	r4, r5
 507 0030 F7D3     		bcc	.L33
1349:Drivers/BSP/Components/sx1276/sx1276.c **** }
 508              		.loc 1 1349 0 is_stmt 1
 509 0032 8021     		movs	r1, #128
 510 0034 A020     		movs	r0, #160
 511 0036 0122     		movs	r2, #1
 512 0038 0902     		lsls	r1, r1, #8
 513 003a C005     		lsls	r0, r0, #23
 514 003c FFF7FEFF 		bl	HW_GPIO_Write
 515              	.LVL52:
1350:Drivers/BSP/Components/sx1276/sx1276.c **** 
 516              		.loc 1 1350 0
 517              		@ sp needed
 518              	.LVL53:
 519              	.LVL54:
 520 0040 70BD     		pop	{r4, r5, r6, pc}
 521              		.cfi_endproc
 522              	.LFE65:
 524              		.section	.text.SX1276Read,"ax",%progbits
 525              		.align	1
 526              		.global	SX1276Read
 527              		.syntax unified
 528              		.code	16
 529              		.thumb_func
 530              		.fpu softvfp
 532              	SX1276Read:
 533              	.LFB63:
1311:Drivers/BSP/Components/sx1276/sx1276.c ****     uint8_t data;
 534              		.loc 1 1311 0
 535              		.cfi_startproc
 536              		@ args = 0, pretend = 0, frame = 8
 537              		@ frame_needed = 0, uses_anonymous_args = 0
 538              	.LVL55:
 539 0000 10B5     		push	{r4, lr}
 540              	.LCFI8:
 541              		.cfi_def_cfa_offset 8
 542              		.cfi_offset 4, -8
 543              		.cfi_offset 14, -4
 544 0002 82B0     		sub	sp, sp, #8
 545              	.LCFI9:
 546              		.cfi_def_cfa_offset 16
ARM GAS  /var/folders/2m/zqg86yyd4hbf56w83tkxjpvr0000gn/T//ccRNesxV.s 			page 44


1313:Drivers/BSP/Components/sx1276/sx1276.c ****     return data;
 547              		.loc 1 1313 0
 548 0004 6B46     		mov	r3, sp
 549 0006 DC1D     		adds	r4, r3, #7
 550 0008 0122     		movs	r2, #1
 551 000a 2100     		movs	r1, r4
 552 000c FFF7FEFF 		bl	SX1276ReadBuffer
 553              	.LVL56:
1314:Drivers/BSP/Components/sx1276/sx1276.c **** }
 554              		.loc 1 1314 0
 555 0010 2078     		ldrb	r0, [r4]
1315:Drivers/BSP/Components/sx1276/sx1276.c **** 
 556              		.loc 1 1315 0
 557 0012 02B0     		add	sp, sp, #8
 558              		@ sp needed
 559 0014 10BD     		pop	{r4, pc}
 560              		.cfi_endproc
 561              	.LFE63:
 563              		.section	.text.RxChainCalibration,"ax",%progbits
 564              		.align	1
 565              		.global	RxChainCalibration
 566              		.syntax unified
 567              		.code	16
 568              		.thumb_func
 569              		.fpu softvfp
 571              	RxChainCalibration:
 572              	.LFB46:
 383:Drivers/BSP/Components/sx1276/sx1276.c ****     uint8_t regPaConfigInitVal;
 573              		.loc 1 383 0
 574              		.cfi_startproc
 575              		@ args = 0, pretend = 0, frame = 0
 576              		@ frame_needed = 0, uses_anonymous_args = 0
 577 0000 70B5     		push	{r4, r5, r6, lr}
 578              	.LCFI10:
 579              		.cfi_def_cfa_offset 16
 580              		.cfi_offset 4, -16
 581              		.cfi_offset 5, -12
 582              		.cfi_offset 6, -8
 583              		.cfi_offset 14, -4
 389:Drivers/BSP/Components/sx1276/sx1276.c **** 
 584              		.loc 1 389 0
 585 0002 0920     		movs	r0, #9
 586 0004 FFF7FEFF 		bl	SX1276Read
 587              	.LVL57:
 588 0008 0400     		movs	r4, r0
 589              	.LVL58:
 391:Drivers/BSP/Components/sx1276/sx1276.c ****                 ( ( uint32_t )SX1276Read( REG_FRFMID ) << 8 ) |
 590              		.loc 1 391 0
 591 000a 0620     		movs	r0, #6
 592 000c FFF7FEFF 		bl	SX1276Read
 593              	.LVL59:
 594 0010 0504     		lsls	r5, r0, #16
 392:Drivers/BSP/Components/sx1276/sx1276.c ****                 ( ( uint32_t )SX1276Read( REG_FRFLSB ) ) );
 595              		.loc 1 392 0
 596 0012 0720     		movs	r0, #7
 597 0014 FFF7FEFF 		bl	SX1276Read
 598              	.LVL60:
ARM GAS  /var/folders/2m/zqg86yyd4hbf56w83tkxjpvr0000gn/T//ccRNesxV.s 			page 45


 599 0018 0002     		lsls	r0, r0, #8
 391:Drivers/BSP/Components/sx1276/sx1276.c ****                 ( ( uint32_t )SX1276Read( REG_FRFMID ) << 8 ) |
 600              		.loc 1 391 0
 601 001a 0543     		orrs	r5, r0
 393:Drivers/BSP/Components/sx1276/sx1276.c **** 
 602              		.loc 1 393 0
 603 001c 0820     		movs	r0, #8
 604 001e FFF7FEFF 		bl	SX1276Read
 605              	.LVL61:
 391:Drivers/BSP/Components/sx1276/sx1276.c ****                 ( ( uint32_t )SX1276Read( REG_FRFMID ) << 8 ) |
 606              		.loc 1 391 0
 607 0022 2843     		orrs	r0, r5
 608              	.LVL62:
 609              	.LBB3:
 395:Drivers/BSP/Components/sx1276/sx1276.c **** 
 610              		.loc 1 395 0
 611 0024 030A     		lsrs	r3, r0, #8
 612              	.LVL63:
 613 0026 5901     		lsls	r1, r3, #5
 614 0028 C91A     		subs	r1, r1, r3
 615 002a 8D01     		lsls	r5, r1, #6
 616 002c 6D1A     		subs	r5, r5, r1
 617 002e ED00     		lsls	r5, r5, #3
 618 0030 ED18     		adds	r5, r5, r3
 619 0032 FF23     		movs	r3, #255
 620              	.LVL64:
 621 0034 1840     		ands	r0, r3
 622              	.LVL65:
 623 0036 4301     		lsls	r3, r0, #5
 624 0038 1B1A     		subs	r3, r3, r0
 625 003a 9A01     		lsls	r2, r3, #6
 626 003c D31A     		subs	r3, r2, r3
 627 003e DB00     		lsls	r3, r3, #3
 628 0040 1B18     		adds	r3, r3, r0
 629 0042 8033     		adds	r3, r3, #128
 630 0044 1B0A     		lsrs	r3, r3, #8
 631 0046 ED18     		adds	r5, r5, r3
 632              	.LVL66:
 633              	.LBE3:
 398:Drivers/BSP/Components/sx1276/sx1276.c **** 
 634              		.loc 1 398 0
 635 0048 0021     		movs	r1, #0
 636 004a 0920     		movs	r0, #9
 637              	.LVL67:
 638 004c FFF7FEFF 		bl	SX1276Write
 639              	.LVL68:
 401:Drivers/BSP/Components/sx1276/sx1276.c ****     while( ( SX1276Read( REG_IMAGECAL ) & RF_IMAGECAL_IMAGECAL_RUNNING ) == RF_IMAGECAL_IMAGECAL_RU
 640              		.loc 1 401 0
 641 0050 3B20     		movs	r0, #59
 642 0052 FFF7FEFF 		bl	SX1276Read
 643              	.LVL69:
 644 0056 4021     		movs	r1, #64
 645 0058 0143     		orrs	r1, r0
 646 005a C9B2     		uxtb	r1, r1
 647 005c 3B20     		movs	r0, #59
 648 005e FFF7FEFF 		bl	SX1276Write
 649              	.LVL70:
ARM GAS  /var/folders/2m/zqg86yyd4hbf56w83tkxjpvr0000gn/T//ccRNesxV.s 			page 46


 650              	.L36:
 402:Drivers/BSP/Components/sx1276/sx1276.c ****     {
 651              		.loc 1 402 0 discriminator 1
 652 0062 3B20     		movs	r0, #59
 653 0064 FFF7FEFF 		bl	SX1276Read
 654              	.LVL71:
 655 0068 8306     		lsls	r3, r0, #26
 656 006a FAD4     		bmi	.L36
 407:Drivers/BSP/Components/sx1276/sx1276.c **** 
 657              		.loc 1 407 0
 658 006c 0C48     		ldr	r0, .L38
 659 006e FFF7FEFF 		bl	SX1276SetChannel
 660              	.LVL72:
 410:Drivers/BSP/Components/sx1276/sx1276.c ****     while( ( SX1276Read( REG_IMAGECAL ) & RF_IMAGECAL_IMAGECAL_RUNNING ) == RF_IMAGECAL_IMAGECAL_RU
 661              		.loc 1 410 0
 662 0072 3B20     		movs	r0, #59
 663 0074 FFF7FEFF 		bl	SX1276Read
 664              	.LVL73:
 665 0078 4021     		movs	r1, #64
 666 007a 0143     		orrs	r1, r0
 667 007c C9B2     		uxtb	r1, r1
 668 007e 3B20     		movs	r0, #59
 669 0080 FFF7FEFF 		bl	SX1276Write
 670              	.LVL74:
 671              	.L37:
 411:Drivers/BSP/Components/sx1276/sx1276.c ****     {
 672              		.loc 1 411 0 discriminator 1
 673 0084 3B20     		movs	r0, #59
 674 0086 FFF7FEFF 		bl	SX1276Read
 675              	.LVL75:
 676 008a 8306     		lsls	r3, r0, #26
 677 008c FAD4     		bmi	.L37
 416:Drivers/BSP/Components/sx1276/sx1276.c ****     SX1276SetChannel( initialFreq );
 678              		.loc 1 416 0
 679 008e 2100     		movs	r1, r4
 680 0090 0920     		movs	r0, #9
 681 0092 FFF7FEFF 		bl	SX1276Write
 682              	.LVL76:
 417:Drivers/BSP/Components/sx1276/sx1276.c **** }
 683              		.loc 1 417 0
 684 0096 2800     		movs	r0, r5
 685 0098 FFF7FEFF 		bl	SX1276SetChannel
 686              	.LVL77:
 418:Drivers/BSP/Components/sx1276/sx1276.c **** 
 687              		.loc 1 418 0
 688              		@ sp needed
 689              	.LVL78:
 690              	.LVL79:
 691 009c 70BD     		pop	{r4, r5, r6, pc}
 692              	.L39:
 693 009e C046     		.align	2
 694              	.L38:
 695 00a0 00A1BC33 		.word	868000000
 696              		.cfi_endproc
 697              	.LFE46:
 699              		.global	__aeabi_i2d
 700              		.global	__aeabi_dadd
ARM GAS  /var/folders/2m/zqg86yyd4hbf56w83tkxjpvr0000gn/T//ccRNesxV.s 			page 47


 701              		.global	__aeabi_dmul
 702              		.global	__aeabi_ui2d
 703              		.global	__aeabi_ddiv
 704              		.global	__aeabi_d2uiz
 705              		.global	__aeabi_dcmpgt
 706              		.section	.text.SX1276GetTimeOnAir,"ax",%progbits
 707              		.align	1
 708              		.global	SX1276GetTimeOnAir
 709              		.syntax unified
 710              		.code	16
 711              		.thumb_func
 712              		.fpu softvfp
 714              	SX1276GetTimeOnAir:
 715              	.LFB50:
 745:Drivers/BSP/Components/sx1276/sx1276.c ****     uint32_t airTime = 0;
 716              		.loc 1 745 0
 717              		.cfi_startproc
 718              		@ args = 0, pretend = 0, frame = 16
 719              		@ frame_needed = 0, uses_anonymous_args = 0
 720              	.LVL80:
 721 0000 F0B5     		push	{r4, r5, r6, r7, lr}
 722              	.LCFI11:
 723              		.cfi_def_cfa_offset 20
 724              		.cfi_offset 4, -20
 725              		.cfi_offset 5, -16
 726              		.cfi_offset 6, -12
 727              		.cfi_offset 7, -8
 728              		.cfi_offset 14, -4
 729 0002 85B0     		sub	sp, sp, #20
 730              	.LCFI12:
 731              		.cfi_def_cfa_offset 40
 732 0004 0C00     		movs	r4, r1
 733              	.LVL81:
 748:Drivers/BSP/Components/sx1276/sx1276.c ****     {
 734              		.loc 1 748 0
 735 0006 0028     		cmp	r0, #0
 736 0008 03D0     		beq	.L42
 737 000a 0128     		cmp	r0, #1
 738 000c 58D0     		beq	.L43
 746:Drivers/BSP/Components/sx1276/sx1276.c **** 
 739              		.loc 1 746 0
 740 000e 0020     		movs	r0, #0
 741              	.LVL82:
 820:Drivers/BSP/Components/sx1276/sx1276.c **** }
 742              		.loc 1 820 0
 743 0010 4AE0     		b	.L40
 744              	.LVL83:
 745              	.L42:
 752:Drivers/BSP/Components/sx1276/sx1276.c ****                                      ( ( SX1276Read( REG_SYNCCONFIG ) & ~RF_SYNCCONFIG_SYNCSIZE_MAS
 746              		.loc 1 752 0
 747 0012 7A4E     		ldr	r6, .L67
 748 0014 358C     		ldrh	r5, [r6, #32]
 753:Drivers/BSP/Components/sx1276/sx1276.c ****                                      ( ( SX1276.Settings.Fsk.FixLen == 0x01 ) ? 0.0 : 1.0 ) +
 749              		.loc 1 753 0
 750 0016 2720     		movs	r0, #39
 751              	.LVL84:
 752 0018 FFF7FEFF 		bl	SX1276Read
ARM GAS  /var/folders/2m/zqg86yyd4hbf56w83tkxjpvr0000gn/T//ccRNesxV.s 			page 48


 753              	.LVL85:
 754 001c F823     		movs	r3, #248
 755 001e 9843     		bics	r0, r3
 756 0020 0130     		adds	r0, r0, #1
 752:Drivers/BSP/Components/sx1276/sx1276.c ****                                      ( ( SX1276Read( REG_SYNCCONFIG ) & ~RF_SYNCCONFIG_SYNCSIZE_MAS
 757              		.loc 1 752 0
 758 0022 2818     		adds	r0, r5, r0
 753:Drivers/BSP/Components/sx1276/sx1276.c ****                                      ( ( SX1276.Settings.Fsk.FixLen == 0x01 ) ? 0.0 : 1.0 ) +
 759              		.loc 1 753 0
 760 0024 FFF7FEFF 		bl	__aeabi_i2d
 761              	.LVL86:
 754:Drivers/BSP/Components/sx1276/sx1276.c ****                                      ( ( ( SX1276Read( REG_PACKETCONFIG1 ) & ~RF_PACKETCONFIG1_ADDR
 762              		.loc 1 754 0
 763 0028 2223     		movs	r3, #34
 764 002a F35C     		ldrb	r3, [r6, r3]
 765 002c 002B     		cmp	r3, #0
 766 002e 3DD0     		beq	.L56
 767 0030 0022     		movs	r2, #0
 768 0032 0023     		movs	r3, #0
 769              	.L44:
 753:Drivers/BSP/Components/sx1276/sx1276.c ****                                      ( ( SX1276.Settings.Fsk.FixLen == 0x01 ) ? 0.0 : 1.0 ) +
 770              		.loc 1 753 0
 771 0034 FFF7FEFF 		bl	__aeabi_dadd
 772              	.LVL87:
 773 0038 0600     		movs	r6, r0
 774 003a 0F00     		movs	r7, r1
 755:Drivers/BSP/Components/sx1276/sx1276.c ****                                      pktLen +
 775              		.loc 1 755 0
 776 003c 3020     		movs	r0, #48
 777 003e FFF7FEFF 		bl	SX1276Read
 778              	.LVL88:
 779 0042 F923     		movs	r3, #249
 780 0044 9843     		bics	r0, r3
 781 0046 34D0     		beq	.L57
 782 0048 0022     		movs	r2, #0
 783 004a 6D4B     		ldr	r3, .L67+4
 784              	.L45:
 754:Drivers/BSP/Components/sx1276/sx1276.c ****                                      ( ( ( SX1276Read( REG_PACKETCONFIG1 ) & ~RF_PACKETCONFIG1_ADDR
 785              		.loc 1 754 0
 786 004c 3000     		movs	r0, r6
 787 004e 3900     		movs	r1, r7
 788 0050 FFF7FEFF 		bl	__aeabi_dadd
 789              	.LVL89:
 790 0054 0600     		movs	r6, r0
 791 0056 0F00     		movs	r7, r1
 755:Drivers/BSP/Components/sx1276/sx1276.c ****                                      pktLen +
 792              		.loc 1 755 0
 793 0058 2000     		movs	r0, r4
 794 005a FFF7FEFF 		bl	__aeabi_i2d
 795              	.LVL90:
 796 005e 3200     		movs	r2, r6
 797 0060 3B00     		movs	r3, r7
 798 0062 FFF7FEFF 		bl	__aeabi_dadd
 799              	.LVL91:
 757:Drivers/BSP/Components/sx1276/sx1276.c ****                                      SX1276.Settings.Fsk.Datarate ) * 1000 );
 800              		.loc 1 757 0
 801 0066 654A     		ldr	r2, .L67
ARM GAS  /var/folders/2m/zqg86yyd4hbf56w83tkxjpvr0000gn/T//ccRNesxV.s 			page 49


 802 0068 2423     		movs	r3, #36
 803 006a D35C     		ldrb	r3, [r2, r3]
 804 006c 002B     		cmp	r3, #0
 805 006e 23D1     		bne	.L66
 806 0070 0022     		movs	r2, #0
 807 0072 0023     		movs	r3, #0
 808              	.L46:
 756:Drivers/BSP/Components/sx1276/sx1276.c ****                                      ( ( SX1276.Settings.Fsk.CrcOn == 0x01 ) ? 2.0 : 0 ) ) /
 809              		.loc 1 756 0
 810 0074 FFF7FEFF 		bl	__aeabi_dadd
 811              	.LVL92:
 752:Drivers/BSP/Components/sx1276/sx1276.c ****                                      ( ( SX1276Read( REG_SYNCCONFIG ) & ~RF_SYNCCONFIG_SYNCSIZE_MAS
 812              		.loc 1 752 0
 813 0078 0022     		movs	r2, #0
 814 007a 624B     		ldr	r3, .L67+8
 815 007c FFF7FEFF 		bl	__aeabi_dmul
 816              	.LVL93:
 817 0080 0400     		movs	r4, r0
 818 0082 0D00     		movs	r5, r1
 758:Drivers/BSP/Components/sx1276/sx1276.c ****         }
 819              		.loc 1 758 0
 820 0084 5D4B     		ldr	r3, .L67
 821 0086 D869     		ldr	r0, [r3, #28]
 757:Drivers/BSP/Components/sx1276/sx1276.c ****                                      SX1276.Settings.Fsk.Datarate ) * 1000 );
 822              		.loc 1 757 0
 823 0088 FFF7FEFF 		bl	__aeabi_ui2d
 824              	.LVL94:
 825 008c 0200     		movs	r2, r0
 826 008e 0B00     		movs	r3, r1
 827 0090 2000     		movs	r0, r4
 828 0092 2900     		movs	r1, r5
 829 0094 FFF7FEFF 		bl	__aeabi_ddiv
 830              	.LVL95:
 752:Drivers/BSP/Components/sx1276/sx1276.c ****                                      ( ( SX1276Read( REG_SYNCCONFIG ) & ~RF_SYNCCONFIG_SYNCSIZE_MAS
 831              		.loc 1 752 0
 832 0098 0022     		movs	r2, #0
 833 009a 5B4B     		ldr	r3, .L67+12
 834 009c FFF7FEFF 		bl	__aeabi_dmul
 835              	.LVL96:
 836 00a0 FFF7FEFF 		bl	round
 837              	.LVL97:
 838 00a4 FFF7FEFF 		bl	__aeabi_d2uiz
 839              	.LVL98:
 840              	.L40:
 821:Drivers/BSP/Components/sx1276/sx1276.c **** 
 841              		.loc 1 821 0
 842 00a8 05B0     		add	sp, sp, #20
 843              		@ sp needed
 844 00aa F0BD     		pop	{r4, r5, r6, r7, pc}
 845              	.LVL99:
 846              	.L56:
 754:Drivers/BSP/Components/sx1276/sx1276.c ****                                      ( ( ( SX1276Read( REG_PACKETCONFIG1 ) & ~RF_PACKETCONFIG1_ADDR
 847              		.loc 1 754 0
 848 00ac 0022     		movs	r2, #0
 849 00ae 544B     		ldr	r3, .L67+4
 850 00b0 C0E7     		b	.L44
 851              	.L57:
ARM GAS  /var/folders/2m/zqg86yyd4hbf56w83tkxjpvr0000gn/T//ccRNesxV.s 			page 50


 755:Drivers/BSP/Components/sx1276/sx1276.c ****                                      pktLen +
 852              		.loc 1 755 0
 853 00b2 0022     		movs	r2, #0
 854 00b4 0023     		movs	r3, #0
 855 00b6 C9E7     		b	.L45
 856              	.L66:
 757:Drivers/BSP/Components/sx1276/sx1276.c ****                                      SX1276.Settings.Fsk.Datarate ) * 1000 );
 857              		.loc 1 757 0
 858 00b8 0022     		movs	r2, #0
 859 00ba 8023     		movs	r3, #128
 860 00bc DB05     		lsls	r3, r3, #23
 861 00be D9E7     		b	.L46
 862              	.LVL100:
 863              	.L43:
 864              	.LBB4:
 765:Drivers/BSP/Components/sx1276/sx1276.c ****             {
 865              		.loc 1 765 0
 866 00c0 4E4B     		ldr	r3, .L67
 867 00c2 5B6C     		ldr	r3, [r3, #68]
 868 00c4 082B     		cmp	r3, #8
 869 00c6 00D1     		bne	.LCB750
 870 00c8 82E0     		b	.L48	@long jump
 871              	.LCB750:
 872 00ca 092B     		cmp	r3, #9
 873 00cc 00D1     		bne	.LCB752
 874 00ce 84E0     		b	.L49	@long jump
 875              	.LCB752:
 876 00d0 072B     		cmp	r3, #7
 877 00d2 00D1     		bne	.LCB754
 878 00d4 86E0     		b	.L59	@long jump
 879              	.LCB754:
 763:Drivers/BSP/Components/sx1276/sx1276.c ****             // REMARK: When using LoRa modem only bandwidths 125, 250 and 500 kHz are supported
 880              		.loc 1 763 0
 881 00d6 0022     		movs	r2, #0
 882 00d8 0023     		movs	r3, #0
 883 00da 0092     		str	r2, [sp]
 884 00dc 0193     		str	r3, [sp, #4]
 885              	.LVL101:
 886              	.L50:
 800:Drivers/BSP/Components/sx1276/sx1276.c ****             double ts = 1 / rs;
 887              		.loc 1 800 0
 888 00de 474D     		ldr	r5, .L67
 889 00e0 AE6C     		ldr	r6, [r5, #72]
 890 00e2 0120     		movs	r0, #1
 891              	.LVL102:
 892 00e4 B040     		lsls	r0, r0, r6
 893 00e6 FFF7FEFF 		bl	__aeabi_i2d
 894              	.LVL103:
 895 00ea 0200     		movs	r2, r0
 896 00ec 0B00     		movs	r3, r1
 897 00ee 0098     		ldr	r0, [sp]
 898 00f0 0199     		ldr	r1, [sp, #4]
 899 00f2 FFF7FEFF 		bl	__aeabi_ddiv
 900              	.LVL104:
 901 00f6 0200     		movs	r2, r0
 902 00f8 0B00     		movs	r3, r1
 903              	.LVL105:
ARM GAS  /var/folders/2m/zqg86yyd4hbf56w83tkxjpvr0000gn/T//ccRNesxV.s 			page 51


 801:Drivers/BSP/Components/sx1276/sx1276.c ****             // time of preamble
 904              		.loc 1 801 0
 905 00fa 0020     		movs	r0, #0
 906 00fc 4049     		ldr	r1, .L67+4
 907 00fe FFF7FEFF 		bl	__aeabi_ddiv
 908              	.LVL106:
 909 0102 0090     		str	r0, [sp]
 910 0104 0191     		str	r1, [sp, #4]
 911              	.LVL107:
 803:Drivers/BSP/Components/sx1276/sx1276.c ****             // Symbol length of payload and time
 912              		.loc 1 803 0
 913 0106 4E23     		movs	r3, #78
 914 0108 E85A     		ldrh	r0, [r5, r3]
 915              	.LVL108:
 916 010a FFF7FEFF 		bl	__aeabi_i2d
 917              	.LVL109:
 918 010e 0022     		movs	r2, #0
 919 0110 3E4B     		ldr	r3, .L67+16
 920 0112 FFF7FEFF 		bl	__aeabi_dadd
 921              	.LVL110:
 922 0116 009A     		ldr	r2, [sp]
 923 0118 019B     		ldr	r3, [sp, #4]
 924 011a FFF7FEFF 		bl	__aeabi_dmul
 925              	.LVL111:
 926 011e 0290     		str	r0, [sp, #8]
 927 0120 0391     		str	r1, [sp, #12]
 928              	.LVL112:
 805:Drivers/BSP/Components/sx1276/sx1276.c ****                                  28 + 16 * SX1276.Settings.LoRa.CrcOn -
 929              		.loc 1 805 0
 930 0122 E400     		lsls	r4, r4, #3
 931 0124 B000     		lsls	r0, r6, #2
 932              	.LVL113:
 933 0126 241A     		subs	r4, r4, r0
 806:Drivers/BSP/Components/sx1276/sx1276.c ****                                  ( SX1276.Settings.LoRa.FixLen ? 20 : 0 ) ) /
 934              		.loc 1 806 0
 935 0128 5223     		movs	r3, #82
 936 012a E85C     		ldrb	r0, [r5, r3]
 937 012c 0001     		lsls	r0, r0, #4
 938 012e 0019     		adds	r0, r0, r4
 807:Drivers/BSP/Components/sx1276/sx1276.c ****                                  ( double )( 4 * ( SX1276.Settings.LoRa.Datarate -
 939              		.loc 1 807 0
 940 0130 023B     		subs	r3, r3, #2
 941 0132 EB5C     		ldrb	r3, [r5, r3]
 942 0134 002B     		cmp	r3, #0
 943 0136 5AD0     		beq	.L60
 944 0138 1424     		movs	r4, #20
 945              	.L51:
 806:Drivers/BSP/Components/sx1276/sx1276.c ****                                  ( SX1276.Settings.LoRa.FixLen ? 20 : 0 ) ) /
 946              		.loc 1 806 0
 947 013a 001B     		subs	r0, r0, r4
 948 013c 1C30     		adds	r0, r0, #28
 805:Drivers/BSP/Components/sx1276/sx1276.c ****                                  28 + 16 * SX1276.Settings.LoRa.CrcOn -
 949              		.loc 1 805 0
 950 013e FFF7FEFF 		bl	__aeabi_ui2d
 951              	.LVL114:
 952 0142 0400     		movs	r4, r0
 953 0144 0D00     		movs	r5, r1
ARM GAS  /var/folders/2m/zqg86yyd4hbf56w83tkxjpvr0000gn/T//ccRNesxV.s 			page 52


 809:Drivers/BSP/Components/sx1276/sx1276.c ****                                  ( SX1276.Settings.LoRa.Coderate + 4 );
 954              		.loc 1 809 0
 955 0146 2D4A     		ldr	r2, .L67
 956 0148 4C23     		movs	r3, #76
 957 014a D35C     		ldrb	r3, [r2, r3]
 958 014c 002B     		cmp	r3, #0
 959 014e 50D0     		beq	.L61
 960 0150 0220     		movs	r0, #2
 961              	.L52:
 808:Drivers/BSP/Components/sx1276/sx1276.c ****                                  ( ( SX1276.Settings.LoRa.LowDatarateOptimize > 0 ) ? 2 : 0 ) ) ) )
 962              		.loc 1 808 0
 963 0152 301A     		subs	r0, r6, r0
 964 0154 8000     		lsls	r0, r0, #2
 965 0156 FFF7FEFF 		bl	__aeabi_ui2d
 966              	.LVL115:
 967 015a 0200     		movs	r2, r0
 968 015c 0B00     		movs	r3, r1
 805:Drivers/BSP/Components/sx1276/sx1276.c ****                                  28 + 16 * SX1276.Settings.LoRa.CrcOn -
 969              		.loc 1 805 0
 970 015e 2000     		movs	r0, r4
 971 0160 2900     		movs	r1, r5
 972 0162 FFF7FEFF 		bl	__aeabi_ddiv
 973              	.LVL116:
 974 0166 FFF7FEFF 		bl	ceil
 975              	.LVL117:
 976 016a 0400     		movs	r4, r0
 977 016c 0D00     		movs	r5, r1
 810:Drivers/BSP/Components/sx1276/sx1276.c ****             double nPayload = 8 + ( ( tmp > 0 ) ? tmp : 0 );
 978              		.loc 1 810 0
 979 016e 234A     		ldr	r2, .L67
 980 0170 4D23     		movs	r3, #77
 981 0172 D05C     		ldrb	r0, [r2, r3]
 982 0174 0430     		adds	r0, r0, #4
 809:Drivers/BSP/Components/sx1276/sx1276.c ****                                  ( SX1276.Settings.LoRa.Coderate + 4 );
 983              		.loc 1 809 0
 984 0176 FFF7FEFF 		bl	__aeabi_i2d
 985              	.LVL118:
 986 017a 0200     		movs	r2, r0
 987 017c 0B00     		movs	r3, r1
 805:Drivers/BSP/Components/sx1276/sx1276.c ****                                  28 + 16 * SX1276.Settings.LoRa.CrcOn -
 988              		.loc 1 805 0
 989 017e 2000     		movs	r0, r4
 990 0180 2900     		movs	r1, r5
 991 0182 FFF7FEFF 		bl	__aeabi_dmul
 992              	.LVL119:
 993 0186 0400     		movs	r4, r0
 994 0188 0D00     		movs	r5, r1
 995              	.LVL120:
 811:Drivers/BSP/Components/sx1276/sx1276.c ****             double tPayload = nPayload * ts;
 996              		.loc 1 811 0
 997 018a 0022     		movs	r2, #0
 998 018c 0023     		movs	r3, #0
 999 018e FFF7FEFF 		bl	__aeabi_dcmpgt
 1000              	.LVL121:
 1001 0192 0028     		cmp	r0, #0
 1002 0194 2FD0     		beq	.L65
 811:Drivers/BSP/Components/sx1276/sx1276.c ****             double tPayload = nPayload * ts;
ARM GAS  /var/folders/2m/zqg86yyd4hbf56w83tkxjpvr0000gn/T//ccRNesxV.s 			page 53


 1003              		.loc 1 811 0 is_stmt 0 discriminator 1
 1004 0196 0022     		movs	r2, #0
 1005 0198 1A4B     		ldr	r3, .L67+8
 1006 019a 2000     		movs	r0, r4
 1007 019c 2900     		movs	r1, r5
 1008 019e FFF7FEFF 		bl	__aeabi_dadd
 1009              	.LVL122:
 1010              	.L53:
 812:Drivers/BSP/Components/sx1276/sx1276.c ****             // Time on air
 1011              		.loc 1 812 0 is_stmt 1 discriminator 4
 1012 01a2 009A     		ldr	r2, [sp]
 1013 01a4 019B     		ldr	r3, [sp, #4]
 1014 01a6 FFF7FEFF 		bl	__aeabi_dmul
 1015              	.LVL123:
 1016 01aa 0200     		movs	r2, r0
 1017 01ac 0B00     		movs	r3, r1
 1018              	.LVL124:
 814:Drivers/BSP/Components/sx1276/sx1276.c ****             // return ms secs
 1019              		.loc 1 814 0 discriminator 4
 1020 01ae 0298     		ldr	r0, [sp, #8]
 1021 01b0 0399     		ldr	r1, [sp, #12]
 1022 01b2 FFF7FEFF 		bl	__aeabi_dadd
 1023              	.LVL125:
 816:Drivers/BSP/Components/sx1276/sx1276.c ****         }
 1024              		.loc 1 816 0 discriminator 4
 1025 01b6 0022     		movs	r2, #0
 1026 01b8 134B     		ldr	r3, .L67+12
 1027 01ba FFF7FEFF 		bl	__aeabi_dmul
 1028              	.LVL126:
 1029 01be 144A     		ldr	r2, .L67+20
 1030 01c0 144B     		ldr	r3, .L67+24
 1031 01c2 FFF7FEFF 		bl	__aeabi_dadd
 1032              	.LVL127:
 1033 01c6 FFF7FEFF 		bl	floor
 1034              	.LVL128:
 1035 01ca FFF7FEFF 		bl	__aeabi_d2uiz
 1036              	.LVL129:
 1037              	.LBE4:
 818:Drivers/BSP/Components/sx1276/sx1276.c ****     }
 1038              		.loc 1 818 0 discriminator 4
 1039 01ce 6BE7     		b	.L40
 1040              	.LVL130:
 1041              	.L48:
 1042              	.LBB5:
 792:Drivers/BSP/Components/sx1276/sx1276.c ****                 break;
 1043              		.loc 1 792 0
 1044 01d0 0022     		movs	r2, #0
 1045 01d2 114B     		ldr	r3, .L67+28
 1046 01d4 0092     		str	r2, [sp]
 1047 01d6 0193     		str	r3, [sp, #4]
 793:Drivers/BSP/Components/sx1276/sx1276.c ****             case 9: // 500 kHz
 1048              		.loc 1 793 0
 1049 01d8 81E7     		b	.L50
 1050              	.LVL131:
 1051              	.L49:
 795:Drivers/BSP/Components/sx1276/sx1276.c ****                 break;
 1052              		.loc 1 795 0
ARM GAS  /var/folders/2m/zqg86yyd4hbf56w83tkxjpvr0000gn/T//ccRNesxV.s 			page 54


 1053 01da 0022     		movs	r2, #0
 1054 01dc 0F4B     		ldr	r3, .L67+32
 1055 01de 0092     		str	r2, [sp]
 1056 01e0 0193     		str	r3, [sp, #4]
 796:Drivers/BSP/Components/sx1276/sx1276.c ****             }
 1057              		.loc 1 796 0
 1058 01e2 7CE7     		b	.L50
 1059              	.LVL132:
 1060              	.L59:
 789:Drivers/BSP/Components/sx1276/sx1276.c ****                 break;
 1061              		.loc 1 789 0
 1062 01e4 0022     		movs	r2, #0
 1063 01e6 0E4B     		ldr	r3, .L67+36
 1064 01e8 0092     		str	r2, [sp]
 1065 01ea 0193     		str	r3, [sp, #4]
 1066 01ec 77E7     		b	.L50
 1067              	.LVL133:
 1068              	.L60:
 807:Drivers/BSP/Components/sx1276/sx1276.c ****                                  ( double )( 4 * ( SX1276.Settings.LoRa.Datarate -
 1069              		.loc 1 807 0
 1070 01ee 0024     		movs	r4, #0
 1071 01f0 A3E7     		b	.L51
 1072              	.L61:
 809:Drivers/BSP/Components/sx1276/sx1276.c ****                                  ( SX1276.Settings.LoRa.Coderate + 4 );
 1073              		.loc 1 809 0
 1074 01f2 0020     		movs	r0, #0
 1075 01f4 ADE7     		b	.L52
 1076              	.LVL134:
 1077              	.L65:
 811:Drivers/BSP/Components/sx1276/sx1276.c ****             double tPayload = nPayload * ts;
 1078              		.loc 1 811 0
 1079 01f6 0020     		movs	r0, #0
 1080 01f8 0249     		ldr	r1, .L67+8
 1081 01fa D2E7     		b	.L53
 1082              	.L68:
 1083              		.align	2
 1084              	.L67:
 1085 01fc 00000000 		.word	SX1276
 1086 0200 0000F03F 		.word	1072693248
 1087 0204 00002040 		.word	1075838976
 1088 0208 00408F40 		.word	1083129856
 1089 020c 00001140 		.word	1074855936
 1090 0210 2B8716D9 		.word	-652835029
 1091 0214 CEF7EF3F 		.word	1072691150
 1092 0218 80840E41 		.word	1091470464
 1093 021c 80841E41 		.word	1092519040
 1094 0220 8084FE40 		.word	1090421888
 1095              	.LBE5:
 1096              		.cfi_endproc
 1097              	.LFE50:
 1099              		.section	.text.SX1276ReadRssi,"ax",%progbits
 1100              		.align	1
 1101              		.global	SX1276ReadRssi
 1102              		.syntax unified
 1103              		.code	16
 1104              		.thumb_func
 1105              		.fpu softvfp
ARM GAS  /var/folders/2m/zqg86yyd4hbf56w83tkxjpvr0000gn/T//ccRNesxV.s 			page 55


 1107              	SX1276ReadRssi:
 1108              	.LFB58:
1198:Drivers/BSP/Components/sx1276/sx1276.c ****     int16_t rssi = 0;
 1109              		.loc 1 1198 0
 1110              		.cfi_startproc
 1111              		@ args = 0, pretend = 0, frame = 0
 1112              		@ frame_needed = 0, uses_anonymous_args = 0
 1113              	.LVL135:
 1114 0000 10B5     		push	{r4, lr}
 1115              	.LCFI13:
 1116              		.cfi_def_cfa_offset 8
 1117              		.cfi_offset 4, -8
 1118              		.cfi_offset 14, -4
 1119              	.LVL136:
1201:Drivers/BSP/Components/sx1276/sx1276.c ****     {
 1120              		.loc 1 1201 0
 1121 0002 0028     		cmp	r0, #0
 1122 0004 04D0     		beq	.L71
 1123 0006 0128     		cmp	r0, #1
 1124 0008 0AD0     		beq	.L72
1217:Drivers/BSP/Components/sx1276/sx1276.c ****         break;
 1125              		.loc 1 1217 0
 1126 000a 0120     		movs	r0, #1
 1127              	.LVL137:
 1128 000c 4042     		rsbs	r0, r0, #0
 1129 000e 06E0     		b	.L70
 1130              	.LVL138:
 1131              	.L71:
1204:Drivers/BSP/Components/sx1276/sx1276.c ****         break;
 1132              		.loc 1 1204 0
 1133 0010 1120     		movs	r0, #17
 1134              	.LVL139:
 1135 0012 FFF7FEFF 		bl	SX1276Read
 1136              	.LVL140:
 1137 0016 4008     		lsrs	r0, r0, #1
 1138 0018 C0B2     		uxtb	r0, r0
 1139 001a 4042     		rsbs	r0, r0, #0
 1140 001c 00B2     		sxth	r0, r0
 1141              	.LVL141:
 1142              	.L70:
1221:Drivers/BSP/Components/sx1276/sx1276.c **** 
 1143              		.loc 1 1221 0
 1144              		@ sp needed
 1145 001e 10BD     		pop	{r4, pc}
 1146              	.LVL142:
 1147              	.L72:
1207:Drivers/BSP/Components/sx1276/sx1276.c ****         {
 1148              		.loc 1 1207 0
 1149 0020 094B     		ldr	r3, .L77
 1150 0022 9A68     		ldr	r2, [r3, #8]
 1151 0024 094B     		ldr	r3, .L77+4
 1152 0026 9A42     		cmp	r2, r3
 1153 0028 06D8     		bhi	.L76
1213:Drivers/BSP/Components/sx1276/sx1276.c ****         }
 1154              		.loc 1 1213 0
 1155 002a 1B20     		movs	r0, #27
 1156              	.LVL143:
ARM GAS  /var/folders/2m/zqg86yyd4hbf56w83tkxjpvr0000gn/T//ccRNesxV.s 			page 56


 1157 002c FFF7FEFF 		bl	SX1276Read
 1158              	.LVL144:
 1159 0030 80B2     		uxth	r0, r0
 1160 0032 A438     		subs	r0, r0, #164
 1161 0034 00B2     		sxth	r0, r0
 1162              	.LVL145:
 1163 0036 F2E7     		b	.L70
 1164              	.LVL146:
 1165              	.L76:
1209:Drivers/BSP/Components/sx1276/sx1276.c ****         }
 1166              		.loc 1 1209 0
 1167 0038 1B20     		movs	r0, #27
 1168              	.LVL147:
 1169 003a FFF7FEFF 		bl	SX1276Read
 1170              	.LVL148:
 1171 003e 80B2     		uxth	r0, r0
 1172 0040 9D38     		subs	r0, r0, #157
 1173 0042 00B2     		sxth	r0, r0
 1174              	.LVL149:
 1175 0044 EBE7     		b	.L70
 1176              	.L78:
 1177 0046 C046     		.align	2
 1178              	.L77:
 1179 0048 00000000 		.word	SX1276
 1180 004c 40DD4A1F 		.word	525000000
 1181              		.cfi_endproc
 1182              	.LFE58:
 1184              		.section	.text.SX1276SetOpMode,"ax",%progbits
 1185              		.align	1
 1186              		.global	SX1276SetOpMode
 1187              		.syntax unified
 1188              		.code	16
 1189              		.thumb_func
 1190              		.fpu softvfp
 1192              	SX1276SetOpMode:
 1193              	.LFB60:
1247:Drivers/BSP/Components/sx1276/sx1276.c ****     if( opMode == RF_OPMODE_SLEEP )
 1194              		.loc 1 1247 0
 1195              		.cfi_startproc
 1196              		@ args = 0, pretend = 0, frame = 0
 1197              		@ frame_needed = 0, uses_anonymous_args = 0
 1198              	.LVL150:
 1199 0000 70B5     		push	{r4, r5, r6, lr}
 1200              	.LCFI14:
 1201              		.cfi_def_cfa_offset 16
 1202              		.cfi_offset 4, -16
 1203              		.cfi_offset 5, -12
 1204              		.cfi_offset 6, -8
 1205              		.cfi_offset 14, -4
 1206 0002 041E     		subs	r4, r0, #0
1248:Drivers/BSP/Components/sx1276/sx1276.c ****     {
 1207              		.loc 1 1248 0
 1208 0004 18D0     		beq	.L82
1258:Drivers/BSP/Components/sx1276/sx1276.c ****       
 1209              		.loc 1 1258 0
 1210 0006 174D     		ldr	r5, .L83
 1211 0008 2B68     		ldr	r3, [r5]
ARM GAS  /var/folders/2m/zqg86yyd4hbf56w83tkxjpvr0000gn/T//ccRNesxV.s 			page 57


 1212 000a 1B68     		ldr	r3, [r3]
 1213 000c 0120     		movs	r0, #1
 1214              	.LVL151:
 1215 000e 9847     		blx	r3
 1216              	.LVL152:
1260:Drivers/BSP/Components/sx1276/sx1276.c ****       
 1217              		.loc 1 1260 0
 1218 0010 2B68     		ldr	r3, [r5]
 1219 0012 1B69     		ldr	r3, [r3, #16]
 1220 0014 0020     		movs	r0, #0
 1221 0016 9847     		blx	r3
 1222              	.LVL153:
1262:Drivers/BSP/Components/sx1276/sx1276.c ****       
 1223              		.loc 1 1262 0
 1224 0018 2B68     		ldr	r3, [r5]
 1225 001a 5B69     		ldr	r3, [r3, #20]
 1226 001c 2000     		movs	r0, r4
 1227 001e 9847     		blx	r3
 1228              	.LVL154:
1264:Drivers/BSP/Components/sx1276/sx1276.c ****     }
 1229              		.loc 1 1264 0
 1230 0020 0120     		movs	r0, #1
 1231 0022 FFF7FEFF 		bl	SX1276Read
 1232              	.LVL155:
 1233 0026 41B2     		sxtb	r1, r0
 1234 0028 0723     		movs	r3, #7
 1235 002a 9943     		bics	r1, r3
 1236 002c 2143     		orrs	r1, r4
 1237 002e C9B2     		uxtb	r1, r1
 1238 0030 0120     		movs	r0, #1
 1239 0032 FFF7FEFF 		bl	SX1276Write
 1240              	.LVL156:
 1241              	.L79:
1266:Drivers/BSP/Components/sx1276/sx1276.c **** 
 1242              		.loc 1 1266 0
 1243              		@ sp needed
 1244 0036 70BD     		pop	{r4, r5, r6, pc}
 1245              	.LVL157:
 1246              	.L82:
1250:Drivers/BSP/Components/sx1276/sx1276.c ****       
 1247              		.loc 1 1250 0
 1248 0038 0120     		movs	r0, #1
 1249              	.LVL158:
 1250 003a FFF7FEFF 		bl	SX1276Read
 1251              	.LVL159:
 1252 003e 40B2     		sxtb	r0, r0
 1253 0040 0723     		movs	r3, #7
 1254 0042 9843     		bics	r0, r3
 1255 0044 2043     		orrs	r0, r4
 1256 0046 C1B2     		uxtb	r1, r0
 1257 0048 0120     		movs	r0, #1
 1258 004a FFF7FEFF 		bl	SX1276Write
 1259              	.LVL160:
1252:Drivers/BSP/Components/sx1276/sx1276.c ****       
 1260              		.loc 1 1252 0
 1261 004e 054C     		ldr	r4, .L83
 1262 0050 2368     		ldr	r3, [r4]
ARM GAS  /var/folders/2m/zqg86yyd4hbf56w83tkxjpvr0000gn/T//ccRNesxV.s 			page 58


 1263 0052 1B69     		ldr	r3, [r3, #16]
 1264 0054 0120     		movs	r0, #1
 1265 0056 9847     		blx	r3
 1266              	.LVL161:
1254:Drivers/BSP/Components/sx1276/sx1276.c ****     }
 1267              		.loc 1 1254 0
 1268 0058 2368     		ldr	r3, [r4]
 1269 005a 1B68     		ldr	r3, [r3]
 1270 005c 0020     		movs	r0, #0
 1271 005e 9847     		blx	r3
 1272              	.LVL162:
 1273 0060 E9E7     		b	.L79
 1274              	.L84:
 1275 0062 C046     		.align	2
 1276              	.L83:
 1277 0064 00000000 		.word	.LANCHOR0
 1278              		.cfi_endproc
 1279              	.LFE60:
 1281              		.section	.text.SX1276SetSleep,"ax",%progbits
 1282              		.align	1
 1283              		.global	SX1276SetSleep
 1284              		.syntax unified
 1285              		.code	16
 1286              		.thumb_func
 1287              		.fpu softvfp
 1289              	SX1276SetSleep:
 1290              	.LFB52:
 898:Drivers/BSP/Components/sx1276/sx1276.c ****     TimerStop( &RxTimeoutTimer );
 1291              		.loc 1 898 0
 1292              		.cfi_startproc
 1293              		@ args = 0, pretend = 0, frame = 0
 1294              		@ frame_needed = 0, uses_anonymous_args = 0
 1295 0000 10B5     		push	{r4, lr}
 1296              	.LCFI15:
 1297              		.cfi_def_cfa_offset 8
 1298              		.cfi_offset 4, -8
 1299              		.cfi_offset 14, -4
 899:Drivers/BSP/Components/sx1276/sx1276.c ****     TimerStop( &TxTimeoutTimer );
 1300              		.loc 1 899 0
 1301 0002 0648     		ldr	r0, .L86
 1302 0004 FFF7FEFF 		bl	TimerStop
 1303              	.LVL163:
 900:Drivers/BSP/Components/sx1276/sx1276.c **** 
 1304              		.loc 1 900 0
 1305 0008 0548     		ldr	r0, .L86+4
 1306 000a FFF7FEFF 		bl	TimerStop
 1307              	.LVL164:
 902:Drivers/BSP/Components/sx1276/sx1276.c ****     SX1276.Settings.State = RF_IDLE;
 1308              		.loc 1 902 0
 1309 000e 0020     		movs	r0, #0
 1310 0010 FFF7FEFF 		bl	SX1276SetOpMode
 1311              	.LVL165:
 903:Drivers/BSP/Components/sx1276/sx1276.c **** }
 1312              		.loc 1 903 0
 1313 0014 034B     		ldr	r3, .L86+8
 1314 0016 0022     		movs	r2, #0
 1315 0018 1A71     		strb	r2, [r3, #4]
ARM GAS  /var/folders/2m/zqg86yyd4hbf56w83tkxjpvr0000gn/T//ccRNesxV.s 			page 59


 904:Drivers/BSP/Components/sx1276/sx1276.c **** 
 1316              		.loc 1 904 0
 1317              		@ sp needed
 1318 001a 10BD     		pop	{r4, pc}
 1319              	.L87:
 1320              		.align	2
 1321              	.L86:
 1322 001c 00000000 		.word	RxTimeoutTimer
 1323 0020 00000000 		.word	TxTimeoutTimer
 1324 0024 00000000 		.word	SX1276
 1325              		.cfi_endproc
 1326              	.LFE52:
 1328              		.section	.text.SX1276SetStby,"ax",%progbits
 1329              		.align	1
 1330              		.global	SX1276SetStby
 1331              		.syntax unified
 1332              		.code	16
 1333              		.thumb_func
 1334              		.fpu softvfp
 1336              	SX1276SetStby:
 1337              	.LFB53:
 907:Drivers/BSP/Components/sx1276/sx1276.c ****     TimerStop( &RxTimeoutTimer );
 1338              		.loc 1 907 0
 1339              		.cfi_startproc
 1340              		@ args = 0, pretend = 0, frame = 0
 1341              		@ frame_needed = 0, uses_anonymous_args = 0
 1342 0000 10B5     		push	{r4, lr}
 1343              	.LCFI16:
 1344              		.cfi_def_cfa_offset 8
 1345              		.cfi_offset 4, -8
 1346              		.cfi_offset 14, -4
 908:Drivers/BSP/Components/sx1276/sx1276.c ****     TimerStop( &TxTimeoutTimer );
 1347              		.loc 1 908 0
 1348 0002 0648     		ldr	r0, .L89
 1349 0004 FFF7FEFF 		bl	TimerStop
 1350              	.LVL166:
 909:Drivers/BSP/Components/sx1276/sx1276.c **** 
 1351              		.loc 1 909 0
 1352 0008 0548     		ldr	r0, .L89+4
 1353 000a FFF7FEFF 		bl	TimerStop
 1354              	.LVL167:
 911:Drivers/BSP/Components/sx1276/sx1276.c ****     SX1276.Settings.State = RF_IDLE;
 1355              		.loc 1 911 0
 1356 000e 0120     		movs	r0, #1
 1357 0010 FFF7FEFF 		bl	SX1276SetOpMode
 1358              	.LVL168:
 912:Drivers/BSP/Components/sx1276/sx1276.c **** }
 1359              		.loc 1 912 0
 1360 0014 034B     		ldr	r3, .L89+8
 1361 0016 0022     		movs	r2, #0
 1362 0018 1A71     		strb	r2, [r3, #4]
 913:Drivers/BSP/Components/sx1276/sx1276.c **** 
 1363              		.loc 1 913 0
 1364              		@ sp needed
 1365 001a 10BD     		pop	{r4, pc}
 1366              	.L90:
 1367              		.align	2
ARM GAS  /var/folders/2m/zqg86yyd4hbf56w83tkxjpvr0000gn/T//ccRNesxV.s 			page 60


 1368              	.L89:
 1369 001c 00000000 		.word	RxTimeoutTimer
 1370 0020 00000000 		.word	TxTimeoutTimer
 1371 0024 00000000 		.word	SX1276
 1372              		.cfi_endproc
 1373              	.LFE53:
 1375              		.section	.text.SX1276SetRx,"ax",%progbits
 1376              		.align	1
 1377              		.global	SX1276SetRx
 1378              		.syntax unified
 1379              		.code	16
 1380              		.thumb_func
 1381              		.fpu softvfp
 1383              	SX1276SetRx:
 1384              	.LFB54:
 916:Drivers/BSP/Components/sx1276/sx1276.c ****     bool rxContinuous = false;
 1385              		.loc 1 916 0
 1386              		.cfi_startproc
 1387              		@ args = 0, pretend = 0, frame = 0
 1388              		@ frame_needed = 0, uses_anonymous_args = 0
 1389              	.LVL169:
 1390 0000 70B5     		push	{r4, r5, r6, lr}
 1391              	.LCFI17:
 1392              		.cfi_def_cfa_offset 16
 1393              		.cfi_offset 4, -16
 1394              		.cfi_offset 5, -12
 1395              		.cfi_offset 6, -8
 1396              		.cfi_offset 14, -4
 1397 0002 0500     		movs	r5, r0
 1398              	.LVL170:
 919:Drivers/BSP/Components/sx1276/sx1276.c ****     {
 1399              		.loc 1 919 0
 1400 0004 954B     		ldr	r3, .L120
 1401 0006 5B79     		ldrb	r3, [r3, #5]
 1402 0008 002B     		cmp	r3, #0
 1403 000a 03D0     		beq	.L93
 1404 000c 012B     		cmp	r3, #1
 1405 000e 43D0     		beq	.L94
 917:Drivers/BSP/Components/sx1276/sx1276.c **** 
 1406              		.loc 1 917 0
 1407 0010 0026     		movs	r6, #0
 1408 0012 29E0     		b	.L92
 1409              	.L93:
 923:Drivers/BSP/Components/sx1276/sx1276.c **** 
 1410              		.loc 1 923 0
 1411 0014 914C     		ldr	r4, .L120
 1412 0016 2623     		movs	r3, #38
 1413 0018 E65C     		ldrb	r6, [r4, r3]
 1414              	.LVL171:
 931:Drivers/BSP/Components/sx1276/sx1276.c ****                                                                             RF_DIOMAPPING1_DIO1_MAS
 1415              		.loc 1 931 0
 1416 001a 4020     		movs	r0, #64
 1417              	.LVL172:
 1418 001c FFF7FEFF 		bl	SX1276Read
 1419              	.LVL173:
 1420 0020 40B2     		sxtb	r0, r0
 934:Drivers/BSP/Components/sx1276/sx1276.c ****                                                                             RF_DIOMAPPING1_DIO1_00 
ARM GAS  /var/folders/2m/zqg86yyd4hbf56w83tkxjpvr0000gn/T//ccRNesxV.s 			page 61


 1421              		.loc 1 934 0
 1422 0022 0321     		movs	r1, #3
 1423 0024 0140     		ands	r1, r0
 931:Drivers/BSP/Components/sx1276/sx1276.c ****                                                                             RF_DIOMAPPING1_DIO1_MAS
 1424              		.loc 1 931 0
 1425 0026 0C20     		movs	r0, #12
 1426 0028 0143     		orrs	r1, r0
 1427 002a 4020     		movs	r0, #64
 1428 002c FFF7FEFF 		bl	SX1276Write
 1429              	.LVL174:
 938:Drivers/BSP/Components/sx1276/sx1276.c ****                                                                             RF_DIOMAPPING2_MAP_MASK
 1430              		.loc 1 938 0
 1431 0030 4120     		movs	r0, #65
 1432 0032 FFF7FEFF 		bl	SX1276Read
 1433              	.LVL175:
 1434 0036 3F21     		movs	r1, #63
 1435 0038 4942     		rsbs	r1, r1, #0
 1436 003a 0143     		orrs	r1, r0
 1437 003c C9B2     		uxtb	r1, r1
 1438 003e 4120     		movs	r0, #65
 1439 0040 FFF7FEFF 		bl	SX1276Write
 1440              	.LVL176:
 943:Drivers/BSP/Components/sx1276/sx1276.c **** 
 1441              		.loc 1 943 0
 1442 0044 3520     		movs	r0, #53
 1443 0046 FFF7FEFF 		bl	SX1276Read
 1444              	.LVL177:
 1445 004a 3F23     		movs	r3, #63
 1446 004c 1840     		ands	r0, r3
 1447 004e 013B     		subs	r3, r3, #1
 1448 0050 E054     		strb	r0, [r4, r3]
 945:Drivers/BSP/Components/sx1276/sx1276.c **** 
 1449              		.loc 1 945 0
 1450 0052 1E21     		movs	r1, #30
 1451 0054 0D20     		movs	r0, #13
 1452 0056 FFF7FEFF 		bl	SX1276Write
 1453              	.LVL178:
 947:Drivers/BSP/Components/sx1276/sx1276.c ****             SX1276.Settings.FskPacketHandler.SyncWordDetected = false;
 1454              		.loc 1 947 0
 1455 005a 0023     		movs	r3, #0
 1456 005c 3022     		movs	r2, #48
 1457 005e A354     		strb	r3, [r4, r2]
 948:Drivers/BSP/Components/sx1276/sx1276.c ****             SX1276.Settings.FskPacketHandler.NbBytes = 0;
 1458              		.loc 1 948 0
 1459 0060 0132     		adds	r2, r2, #1
 1460 0062 A354     		strb	r3, [r4, r2]
 949:Drivers/BSP/Components/sx1276/sx1276.c ****             SX1276.Settings.FskPacketHandler.Size = 0;
 1461              		.loc 1 949 0
 1462 0064 A387     		strh	r3, [r4, #60]
 950:Drivers/BSP/Components/sx1276/sx1276.c ****         }
 1463              		.loc 1 950 0
 1464 0066 6387     		strh	r3, [r4, #58]
 1465              	.LVL179:
 1466              	.L92:
1049:Drivers/BSP/Components/sx1276/sx1276.c **** 
 1467              		.loc 1 1049 0
 1468 0068 8022     		movs	r2, #128
ARM GAS  /var/folders/2m/zqg86yyd4hbf56w83tkxjpvr0000gn/T//ccRNesxV.s 			page 62


 1469 006a 5200     		lsls	r2, r2, #1
 1470 006c 0021     		movs	r1, #0
 1471 006e 7C48     		ldr	r0, .L120+4
 1472 0070 FFF7FEFF 		bl	memset
 1473              	.LVL180:
1051:Drivers/BSP/Components/sx1276/sx1276.c ****     if( timeout != 0 )
 1474              		.loc 1 1051 0
 1475 0074 794B     		ldr	r3, .L120
 1476 0076 0122     		movs	r2, #1
 1477 0078 1A71     		strb	r2, [r3, #4]
1052:Drivers/BSP/Components/sx1276/sx1276.c ****     {
 1478              		.loc 1 1052 0
 1479 007a 002D     		cmp	r5, #0
 1480 007c 00D0     		beq	.LCB1309
 1481 007e D0E0     		b	.L117	@long jump
 1482              	.LCB1309:
 1483              	.L111:
1058:Drivers/BSP/Components/sx1276/sx1276.c ****     {
 1484              		.loc 1 1058 0
 1485 0080 764B     		ldr	r3, .L120
 1486 0082 5B79     		ldrb	r3, [r3, #5]
 1487 0084 002B     		cmp	r3, #0
 1488 0086 00D1     		bne	.LCB1314
 1489 0088 D4E0     		b	.L118	@long jump
 1490              	.LCB1314:
1070:Drivers/BSP/Components/sx1276/sx1276.c ****         {
 1491              		.loc 1 1070 0
 1492 008a 002E     		cmp	r6, #0
 1493 008c 00D0     		beq	.LCB1316
 1494 008e E1E0     		b	.L119	@long jump
 1495              	.LCB1316:
1076:Drivers/BSP/Components/sx1276/sx1276.c ****         }
 1496              		.loc 1 1076 0
 1497 0090 0620     		movs	r0, #6
 1498 0092 FFF7FEFF 		bl	SX1276SetOpMode
 1499              	.LVL181:
 1500              	.L91:
1079:Drivers/BSP/Components/sx1276/sx1276.c **** 
 1501              		.loc 1 1079 0
 1502              		@ sp needed
 1503              	.LVL182:
 1504              	.LVL183:
 1505 0096 70BD     		pop	{r4, r5, r6, pc}
 1506              	.LVL184:
 1507              	.L94:
 955:Drivers/BSP/Components/sx1276/sx1276.c ****             {
 1508              		.loc 1 955 0
 1509 0098 704A     		ldr	r2, .L120
 1510 009a 5523     		movs	r3, #85
 1511 009c D35C     		ldrb	r3, [r2, r3]
 1512 009e 002B     		cmp	r3, #0
 1513 00a0 24D0     		beq	.L95
 957:Drivers/BSP/Components/sx1276/sx1276.c ****                 SX1276Write( REG_LR_INVERTIQ2, RFLR_INVERTIQ2_ON );
 1514              		.loc 1 957 0
 1515 00a2 3320     		movs	r0, #51
 1516              	.LVL185:
 1517 00a4 FFF7FEFF 		bl	SX1276Read
ARM GAS  /var/folders/2m/zqg86yyd4hbf56w83tkxjpvr0000gn/T//ccRNesxV.s 			page 63


 1518              	.LVL186:
 1519 00a8 4121     		movs	r1, #65
 1520 00aa 0143     		orrs	r1, r0
 1521 00ac C9B2     		uxtb	r1, r1
 1522 00ae 3320     		movs	r0, #51
 1523 00b0 FFF7FEFF 		bl	SX1276Write
 1524              	.LVL187:
 958:Drivers/BSP/Components/sx1276/sx1276.c ****             }
 1525              		.loc 1 958 0
 1526 00b4 1921     		movs	r1, #25
 1527 00b6 3B20     		movs	r0, #59
 1528 00b8 FFF7FEFF 		bl	SX1276Write
 1529              	.LVL188:
 1530              	.L96:
 967:Drivers/BSP/Components/sx1276/sx1276.c ****             {
 1531              		.loc 1 967 0
 1532 00bc 674B     		ldr	r3, .L120
 1533 00be 5B6C     		ldr	r3, [r3, #68]
 1534 00c0 082B     		cmp	r3, #8
 1535 00c2 7BD8     		bhi	.L97
 969:Drivers/BSP/Components/sx1276/sx1276.c ****                 SX1276Write( REG_LR_TEST30, 0x00 );
 1536              		.loc 1 969 0
 1537 00c4 3120     		movs	r0, #49
 1538 00c6 FFF7FEFF 		bl	SX1276Read
 1539              	.LVL189:
 1540 00ca 7F21     		movs	r1, #127
 1541 00cc 0140     		ands	r1, r0
 1542 00ce 3120     		movs	r0, #49
 1543 00d0 FFF7FEFF 		bl	SX1276Write
 1544              	.LVL190:
 970:Drivers/BSP/Components/sx1276/sx1276.c ****                 switch( SX1276.Settings.LoRa.Bandwidth )
 1545              		.loc 1 970 0
 1546 00d4 0021     		movs	r1, #0
 1547 00d6 3020     		movs	r0, #48
 1548 00d8 FFF7FEFF 		bl	SX1276Write
 1549              	.LVL191:
 971:Drivers/BSP/Components/sx1276/sx1276.c ****                 {
 1550              		.loc 1 971 0
 1551 00dc 5F4B     		ldr	r3, .L120
 1552 00de 5B6C     		ldr	r3, [r3, #68]
 1553 00e0 082B     		cmp	r3, #8
 1554 00e2 75D8     		bhi	.L98
 1555 00e4 9B00     		lsls	r3, r3, #2
 1556 00e6 5F4A     		ldr	r2, .L120+8
 1557 00e8 D358     		ldr	r3, [r2, r3]
 1558 00ea 9F46     		mov	pc, r3
 1559              		.section	.rodata
 1560              		.align	2
 1561              	.L100:
 1562 0000 0E010000 		.word	.L99
 1563 0004 26010000 		.word	.L101
 1564 0008 3E010000 		.word	.L102
 1565 000c 56010000 		.word	.L103
 1566 0010 6E010000 		.word	.L104
 1567 0014 86010000 		.word	.L105
 1568 0018 9E010000 		.word	.L106
 1569 001c A8010000 		.word	.L107
ARM GAS  /var/folders/2m/zqg86yyd4hbf56w83tkxjpvr0000gn/T//ccRNesxV.s 			page 64


 1570 0020 B2010000 		.word	.L108
 1571              		.section	.text.SX1276SetRx
 1572              	.LVL192:
 1573              	.L95:
 962:Drivers/BSP/Components/sx1276/sx1276.c ****                 SX1276Write( REG_LR_INVERTIQ2, RFLR_INVERTIQ2_OFF );
 1574              		.loc 1 962 0
 1575 00ec 3320     		movs	r0, #51
 1576              	.LVL193:
 1577 00ee FFF7FEFF 		bl	SX1276Read
 1578              	.LVL194:
 1579 00f2 41B2     		sxtb	r1, r0
 1580 00f4 4123     		movs	r3, #65
 1581 00f6 9943     		bics	r1, r3
 1582 00f8 0120     		movs	r0, #1
 1583 00fa 0143     		orrs	r1, r0
 1584 00fc C9B2     		uxtb	r1, r1
 1585 00fe 3320     		movs	r0, #51
 1586 0100 FFF7FEFF 		bl	SX1276Write
 1587              	.LVL195:
 963:Drivers/BSP/Components/sx1276/sx1276.c ****             }
 1588              		.loc 1 963 0
 1589 0104 1D21     		movs	r1, #29
 1590 0106 3B20     		movs	r0, #59
 1591 0108 FFF7FEFF 		bl	SX1276Write
 1592              	.LVL196:
 1593 010c D6E7     		b	.L96
 1594              	.L99:
 974:Drivers/BSP/Components/sx1276/sx1276.c ****                     SX1276SetChannel(SX1276.Settings.Channel + 7810 );
 1595              		.loc 1 974 0
 1596 010e 4821     		movs	r1, #72
 1597 0110 2F20     		movs	r0, #47
 1598 0112 FFF7FEFF 		bl	SX1276Write
 1599              	.LVL197:
 975:Drivers/BSP/Components/sx1276/sx1276.c ****                     break;
 1600              		.loc 1 975 0
 1601 0116 514B     		ldr	r3, .L120
 1602 0118 9868     		ldr	r0, [r3, #8]
 1603 011a 534B     		ldr	r3, .L120+12
 1604 011c 9C46     		mov	ip, r3
 1605 011e 6044     		add	r0, r0, ip
 1606 0120 FFF7FEFF 		bl	SX1276SetChannel
 1607              	.LVL198:
 976:Drivers/BSP/Components/sx1276/sx1276.c ****                 case 1: // 10.4 kHz
 1608              		.loc 1 976 0
 1609 0124 54E0     		b	.L98
 1610              	.L101:
 978:Drivers/BSP/Components/sx1276/sx1276.c ****                     SX1276SetChannel(SX1276.Settings.Channel + 10420 );
 1611              		.loc 1 978 0
 1612 0126 4421     		movs	r1, #68
 1613 0128 2F20     		movs	r0, #47
 1614 012a FFF7FEFF 		bl	SX1276Write
 1615              	.LVL199:
 979:Drivers/BSP/Components/sx1276/sx1276.c ****                     break;
 1616              		.loc 1 979 0
 1617 012e 4B4B     		ldr	r3, .L120
 1618 0130 9868     		ldr	r0, [r3, #8]
 1619 0132 4E4B     		ldr	r3, .L120+16
ARM GAS  /var/folders/2m/zqg86yyd4hbf56w83tkxjpvr0000gn/T//ccRNesxV.s 			page 65


 1620 0134 9C46     		mov	ip, r3
 1621 0136 6044     		add	r0, r0, ip
 1622 0138 FFF7FEFF 		bl	SX1276SetChannel
 1623              	.LVL200:
 980:Drivers/BSP/Components/sx1276/sx1276.c ****                 case 2: // 15.6 kHz
 1624              		.loc 1 980 0
 1625 013c 48E0     		b	.L98
 1626              	.L102:
 982:Drivers/BSP/Components/sx1276/sx1276.c ****                     SX1276SetChannel(SX1276.Settings.Channel + 15620 );
 1627              		.loc 1 982 0
 1628 013e 4421     		movs	r1, #68
 1629 0140 2F20     		movs	r0, #47
 1630 0142 FFF7FEFF 		bl	SX1276Write
 1631              	.LVL201:
 983:Drivers/BSP/Components/sx1276/sx1276.c ****                     break;
 1632              		.loc 1 983 0
 1633 0146 454B     		ldr	r3, .L120
 1634 0148 9868     		ldr	r0, [r3, #8]
 1635 014a 494B     		ldr	r3, .L120+20
 1636 014c 9C46     		mov	ip, r3
 1637 014e 6044     		add	r0, r0, ip
 1638 0150 FFF7FEFF 		bl	SX1276SetChannel
 1639              	.LVL202:
 984:Drivers/BSP/Components/sx1276/sx1276.c ****                 case 3: // 20.8 kHz
 1640              		.loc 1 984 0
 1641 0154 3CE0     		b	.L98
 1642              	.L103:
 986:Drivers/BSP/Components/sx1276/sx1276.c ****                     SX1276SetChannel(SX1276.Settings.Channel + 20830 );
 1643              		.loc 1 986 0
 1644 0156 4421     		movs	r1, #68
 1645 0158 2F20     		movs	r0, #47
 1646 015a FFF7FEFF 		bl	SX1276Write
 1647              	.LVL203:
 987:Drivers/BSP/Components/sx1276/sx1276.c ****                     break;
 1648              		.loc 1 987 0
 1649 015e 3F4B     		ldr	r3, .L120
 1650 0160 9868     		ldr	r0, [r3, #8]
 1651 0162 444B     		ldr	r3, .L120+24
 1652 0164 9C46     		mov	ip, r3
 1653 0166 6044     		add	r0, r0, ip
 1654 0168 FFF7FEFF 		bl	SX1276SetChannel
 1655              	.LVL204:
 988:Drivers/BSP/Components/sx1276/sx1276.c ****                 case 4: // 31.2 kHz
 1656              		.loc 1 988 0
 1657 016c 30E0     		b	.L98
 1658              	.L104:
 990:Drivers/BSP/Components/sx1276/sx1276.c ****                     SX1276SetChannel(SX1276.Settings.Channel + 31250 );
 1659              		.loc 1 990 0
 1660 016e 4421     		movs	r1, #68
 1661 0170 2F20     		movs	r0, #47
 1662 0172 FFF7FEFF 		bl	SX1276Write
 1663              	.LVL205:
 991:Drivers/BSP/Components/sx1276/sx1276.c ****                     break;
 1664              		.loc 1 991 0
 1665 0176 394B     		ldr	r3, .L120
 1666 0178 9868     		ldr	r0, [r3, #8]
 1667 017a 3F4B     		ldr	r3, .L120+28
ARM GAS  /var/folders/2m/zqg86yyd4hbf56w83tkxjpvr0000gn/T//ccRNesxV.s 			page 66


 1668 017c 9C46     		mov	ip, r3
 1669 017e 6044     		add	r0, r0, ip
 1670 0180 FFF7FEFF 		bl	SX1276SetChannel
 1671              	.LVL206:
 992:Drivers/BSP/Components/sx1276/sx1276.c ****                 case 5: // 41.4 kHz
 1672              		.loc 1 992 0
 1673 0184 24E0     		b	.L98
 1674              	.L105:
 994:Drivers/BSP/Components/sx1276/sx1276.c ****                     SX1276SetChannel(SX1276.Settings.Channel + 41670 );
 1675              		.loc 1 994 0
 1676 0186 4421     		movs	r1, #68
 1677 0188 2F20     		movs	r0, #47
 1678 018a FFF7FEFF 		bl	SX1276Write
 1679              	.LVL207:
 995:Drivers/BSP/Components/sx1276/sx1276.c ****                     break;
 1680              		.loc 1 995 0
 1681 018e 334B     		ldr	r3, .L120
 1682 0190 9868     		ldr	r0, [r3, #8]
 1683 0192 3A4B     		ldr	r3, .L120+32
 1684 0194 9C46     		mov	ip, r3
 1685 0196 6044     		add	r0, r0, ip
 1686 0198 FFF7FEFF 		bl	SX1276SetChannel
 1687              	.LVL208:
 996:Drivers/BSP/Components/sx1276/sx1276.c ****                 case 6: // 62.5 kHz
 1688              		.loc 1 996 0
 1689 019c 18E0     		b	.L98
 1690              	.L106:
 998:Drivers/BSP/Components/sx1276/sx1276.c ****                     break;
 1691              		.loc 1 998 0
 1692 019e 4021     		movs	r1, #64
 1693 01a0 2F20     		movs	r0, #47
 1694 01a2 FFF7FEFF 		bl	SX1276Write
 1695              	.LVL209:
 999:Drivers/BSP/Components/sx1276/sx1276.c ****                 case 7: // 125 kHz
 1696              		.loc 1 999 0
 1697 01a6 13E0     		b	.L98
 1698              	.L107:
1001:Drivers/BSP/Components/sx1276/sx1276.c ****                     break;
 1699              		.loc 1 1001 0
 1700 01a8 4021     		movs	r1, #64
 1701 01aa 2F20     		movs	r0, #47
 1702 01ac FFF7FEFF 		bl	SX1276Write
 1703              	.LVL210:
1002:Drivers/BSP/Components/sx1276/sx1276.c ****                 case 8: // 250 kHz
 1704              		.loc 1 1002 0
 1705 01b0 0EE0     		b	.L98
 1706              	.L108:
1004:Drivers/BSP/Components/sx1276/sx1276.c ****                     break;
 1707              		.loc 1 1004 0
 1708 01b2 4021     		movs	r1, #64
 1709 01b4 2F20     		movs	r0, #47
 1710 01b6 FFF7FEFF 		bl	SX1276Write
 1711              	.LVL211:
1005:Drivers/BSP/Components/sx1276/sx1276.c ****                 }
 1712              		.loc 1 1005 0
 1713 01ba 09E0     		b	.L98
 1714              	.L97:
ARM GAS  /var/folders/2m/zqg86yyd4hbf56w83tkxjpvr0000gn/T//ccRNesxV.s 			page 67


1010:Drivers/BSP/Components/sx1276/sx1276.c ****             }
 1715              		.loc 1 1010 0
 1716 01bc 3120     		movs	r0, #49
 1717 01be FFF7FEFF 		bl	SX1276Read
 1718              	.LVL212:
 1719 01c2 8021     		movs	r1, #128
 1720 01c4 4942     		rsbs	r1, r1, #0
 1721 01c6 0143     		orrs	r1, r0
 1722 01c8 C9B2     		uxtb	r1, r1
 1723 01ca 3120     		movs	r0, #49
 1724 01cc FFF7FEFF 		bl	SX1276Write
 1725              	.LVL213:
 1726              	.L98:
1013:Drivers/BSP/Components/sx1276/sx1276.c **** 
 1727              		.loc 1 1013 0
 1728 01d0 224B     		ldr	r3, .L120
 1729 01d2 5622     		movs	r2, #86
 1730 01d4 9E5C     		ldrb	r6, [r3, r2]
 1731              	.LVL214:
1015:Drivers/BSP/Components/sx1276/sx1276.c ****             {
 1732              		.loc 1 1015 0
 1733 01d6 033A     		subs	r2, r2, #3
 1734 01d8 9B5C     		ldrb	r3, [r3, r2]
 1735 01da 002B     		cmp	r3, #0
 1736 01dc 14D0     		beq	.L109
1017:Drivers/BSP/Components/sx1276/sx1276.c ****                                                   //RFLR_IRQFLAGS_RXDONE |
 1737              		.loc 1 1017 0
 1738 01de 1D21     		movs	r1, #29
 1739 01e0 1120     		movs	r0, #17
 1740 01e2 FFF7FEFF 		bl	SX1276Write
 1741              	.LVL215:
1027:Drivers/BSP/Components/sx1276/sx1276.c ****             }
 1742              		.loc 1 1027 0
 1743 01e6 4020     		movs	r0, #64
 1744 01e8 FFF7FEFF 		bl	SX1276Read
 1745              	.LVL216:
 1746 01ec 3321     		movs	r1, #51
 1747 01ee 0140     		ands	r1, r0
 1748 01f0 4020     		movs	r0, #64
 1749 01f2 FFF7FEFF 		bl	SX1276Write
 1750              	.LVL217:
 1751              	.L110:
1043:Drivers/BSP/Components/sx1276/sx1276.c ****             SX1276Write( REG_LR_FIFOADDRPTR, 0 );
 1752              		.loc 1 1043 0
 1753 01f6 0021     		movs	r1, #0
 1754 01f8 0F20     		movs	r0, #15
 1755 01fa FFF7FEFF 		bl	SX1276Write
 1756              	.LVL218:
1044:Drivers/BSP/Components/sx1276/sx1276.c ****         }
 1757              		.loc 1 1044 0
 1758 01fe 0021     		movs	r1, #0
 1759 0200 0D20     		movs	r0, #13
 1760 0202 FFF7FEFF 		bl	SX1276Write
 1761              	.LVL219:
1046:Drivers/BSP/Components/sx1276/sx1276.c ****     }
 1762              		.loc 1 1046 0
 1763 0206 2FE7     		b	.L92
ARM GAS  /var/folders/2m/zqg86yyd4hbf56w83tkxjpvr0000gn/T//ccRNesxV.s 			page 68


 1764              	.L109:
1031:Drivers/BSP/Components/sx1276/sx1276.c ****                                                   //RFLR_IRQFLAGS_RXDONE |
 1765              		.loc 1 1031 0
 1766 0208 1F21     		movs	r1, #31
 1767 020a 1120     		movs	r0, #17
 1768 020c FFF7FEFF 		bl	SX1276Write
 1769              	.LVL220:
1041:Drivers/BSP/Components/sx1276/sx1276.c ****             }
 1770              		.loc 1 1041 0
 1771 0210 4020     		movs	r0, #64
 1772 0212 FFF7FEFF 		bl	SX1276Read
 1773              	.LVL221:
 1774 0216 3F21     		movs	r1, #63
 1775 0218 0140     		ands	r1, r0
 1776 021a 4020     		movs	r0, #64
 1777 021c FFF7FEFF 		bl	SX1276Write
 1778              	.LVL222:
 1779 0220 E9E7     		b	.L110
 1780              	.L117:
1054:Drivers/BSP/Components/sx1276/sx1276.c ****         TimerStart( &RxTimeoutTimer );
 1781              		.loc 1 1054 0
 1782 0222 174C     		ldr	r4, .L120+36
 1783 0224 2900     		movs	r1, r5
 1784 0226 2000     		movs	r0, r4
 1785 0228 FFF7FEFF 		bl	TimerSetValue
 1786              	.LVL223:
1055:Drivers/BSP/Components/sx1276/sx1276.c ****     }
 1787              		.loc 1 1055 0
 1788 022c 2000     		movs	r0, r4
 1789 022e FFF7FEFF 		bl	TimerStart
 1790              	.LVL224:
 1791 0232 25E7     		b	.L111
 1792              	.L118:
1060:Drivers/BSP/Components/sx1276/sx1276.c **** 
 1793              		.loc 1 1060 0
 1794 0234 0520     		movs	r0, #5
 1795 0236 FFF7FEFF 		bl	SX1276SetOpMode
 1796              	.LVL225:
1062:Drivers/BSP/Components/sx1276/sx1276.c ****         {
 1797              		.loc 1 1062 0
 1798 023a 002E     		cmp	r6, #0
 1799 023c 00D0     		beq	.LCB1608
 1800 023e 2AE7     		b	.L91	@long jump
 1801              	.LCB1608:
1064:Drivers/BSP/Components/sx1276/sx1276.c ****             TimerStart( &RxTimeoutSyncWord );
 1802              		.loc 1 1064 0
 1803 0240 064B     		ldr	r3, .L120
 1804 0242 D96A     		ldr	r1, [r3, #44]
 1805 0244 0F4C     		ldr	r4, .L120+40
 1806 0246 2000     		movs	r0, r4
 1807 0248 FFF7FEFF 		bl	TimerSetValue
 1808              	.LVL226:
1065:Drivers/BSP/Components/sx1276/sx1276.c ****         }
 1809              		.loc 1 1065 0
 1810 024c 2000     		movs	r0, r4
 1811 024e FFF7FEFF 		bl	TimerStart
 1812              	.LVL227:
ARM GAS  /var/folders/2m/zqg86yyd4hbf56w83tkxjpvr0000gn/T//ccRNesxV.s 			page 69


 1813 0252 20E7     		b	.L91
 1814              	.L119:
1072:Drivers/BSP/Components/sx1276/sx1276.c ****         }
 1815              		.loc 1 1072 0
 1816 0254 0520     		movs	r0, #5
 1817 0256 FFF7FEFF 		bl	SX1276SetOpMode
 1818              	.LVL228:
 1819 025a 1CE7     		b	.L91
 1820              	.L121:
 1821              		.align	2
 1822              	.L120:
 1823 025c 00000000 		.word	SX1276
 1824 0260 08000000 		.word	RxTxBuffer
 1825 0264 00000000 		.word	.L100
 1826 0268 821E0000 		.word	7810
 1827 026c B4280000 		.word	10420
 1828 0270 043D0000 		.word	15620
 1829 0274 5E510000 		.word	20830
 1830 0278 127A0000 		.word	31250
 1831 027c C6A20000 		.word	41670
 1832 0280 00000000 		.word	RxTimeoutTimer
 1833 0284 00000000 		.word	RxTimeoutSyncWord
 1834              		.cfi_endproc
 1835              	.LFE54:
 1837              		.section	.text.SX1276SetTx,"ax",%progbits
 1838              		.align	1
 1839              		.global	SX1276SetTx
 1840              		.syntax unified
 1841              		.code	16
 1842              		.thumb_func
 1843              		.fpu softvfp
 1845              	SX1276SetTx:
 1846              	.LFB55:
1082:Drivers/BSP/Components/sx1276/sx1276.c ****     TimerSetValue( &TxTimeoutTimer, timeout );
 1847              		.loc 1 1082 0
 1848              		.cfi_startproc
 1849              		@ args = 0, pretend = 0, frame = 0
 1850              		@ frame_needed = 0, uses_anonymous_args = 0
 1851              	.LVL229:
 1852 0000 10B5     		push	{r4, lr}
 1853              	.LCFI18:
 1854              		.cfi_def_cfa_offset 8
 1855              		.cfi_offset 4, -8
 1856              		.cfi_offset 14, -4
 1857 0002 0100     		movs	r1, r0
1083:Drivers/BSP/Components/sx1276/sx1276.c **** 
 1858              		.loc 1 1083 0
 1859 0004 2948     		ldr	r0, .L128
 1860              	.LVL230:
 1861 0006 FFF7FEFF 		bl	TimerSetValue
 1862              	.LVL231:
1085:Drivers/BSP/Components/sx1276/sx1276.c ****     {
 1863              		.loc 1 1085 0
 1864 000a 294B     		ldr	r3, .L128+4
 1865 000c 5B79     		ldrb	r3, [r3, #5]
 1866 000e 002B     		cmp	r3, #0
 1867 0010 0BD0     		beq	.L124
ARM GAS  /var/folders/2m/zqg86yyd4hbf56w83tkxjpvr0000gn/T//ccRNesxV.s 			page 70


 1868 0012 012B     		cmp	r3, #1
 1869 0014 25D0     		beq	.L125
 1870              	.L123:
1139:Drivers/BSP/Components/sx1276/sx1276.c ****     TimerStart( &TxTimeoutTimer );
 1871              		.loc 1 1139 0
 1872 0016 264B     		ldr	r3, .L128+4
 1873 0018 0222     		movs	r2, #2
 1874 001a 1A71     		strb	r2, [r3, #4]
1140:Drivers/BSP/Components/sx1276/sx1276.c ****     SX1276SetOpMode( RF_OPMODE_TRANSMITTER );
 1875              		.loc 1 1140 0
 1876 001c 2348     		ldr	r0, .L128
 1877 001e FFF7FEFF 		bl	TimerStart
 1878              	.LVL232:
1141:Drivers/BSP/Components/sx1276/sx1276.c **** }
 1879              		.loc 1 1141 0
 1880 0022 0320     		movs	r0, #3
 1881 0024 FFF7FEFF 		bl	SX1276SetOpMode
 1882              	.LVL233:
1142:Drivers/BSP/Components/sx1276/sx1276.c **** 
 1883              		.loc 1 1142 0
 1884              		@ sp needed
 1885 0028 10BD     		pop	{r4, pc}
 1886              	.L124:
1095:Drivers/BSP/Components/sx1276/sx1276.c ****                                                                             RF_DIOMAPPING1_DIO1_MAS
 1887              		.loc 1 1095 0
 1888 002a 4020     		movs	r0, #64
 1889 002c FFF7FEFF 		bl	SX1276Read
 1890              	.LVL234:
 1891 0030 40B2     		sxtb	r0, r0
1096:Drivers/BSP/Components/sx1276/sx1276.c ****                                                                             RF_DIOMAPPING1_DIO2_MAS
 1892              		.loc 1 1096 0
 1893 0032 0321     		movs	r1, #3
 1894 0034 0140     		ands	r1, r0
1095:Drivers/BSP/Components/sx1276/sx1276.c ****                                                                             RF_DIOMAPPING1_DIO1_MAS
 1895              		.loc 1 1095 0
 1896 0036 1020     		movs	r0, #16
 1897 0038 0143     		orrs	r1, r0
 1898 003a 4020     		movs	r0, #64
 1899 003c FFF7FEFF 		bl	SX1276Write
 1900              	.LVL235:
1100:Drivers/BSP/Components/sx1276/sx1276.c ****                                                                             RF_DIOMAPPING2_MAP_MASK
 1901              		.loc 1 1100 0
 1902 0040 4120     		movs	r0, #65
 1903 0042 FFF7FEFF 		bl	SX1276Read
 1904              	.LVL236:
 1905 0046 3E21     		movs	r1, #62
 1906 0048 0140     		ands	r1, r0
 1907 004a 4120     		movs	r0, #65
 1908 004c FFF7FEFF 		bl	SX1276Write
 1909              	.LVL237:
1102:Drivers/BSP/Components/sx1276/sx1276.c ****         }
 1910              		.loc 1 1102 0
 1911 0050 3520     		movs	r0, #53
 1912 0052 FFF7FEFF 		bl	SX1276Read
 1913              	.LVL238:
 1914 0056 3F23     		movs	r3, #63
 1915 0058 1840     		ands	r0, r3
ARM GAS  /var/folders/2m/zqg86yyd4hbf56w83tkxjpvr0000gn/T//ccRNesxV.s 			page 71


 1916 005a 013B     		subs	r3, r3, #1
 1917 005c 144A     		ldr	r2, .L128+4
 1918 005e D054     		strb	r0, [r2, r3]
1104:Drivers/BSP/Components/sx1276/sx1276.c ****     case MODEM_LORA:
 1919              		.loc 1 1104 0
 1920 0060 D9E7     		b	.L123
 1921              	.L125:
1107:Drivers/BSP/Components/sx1276/sx1276.c ****             {
 1922              		.loc 1 1107 0
 1923 0062 134A     		ldr	r2, .L128+4
 1924 0064 5323     		movs	r3, #83
 1925 0066 D35C     		ldrb	r3, [r2, r3]
 1926 0068 002B     		cmp	r3, #0
 1927 006a 0FD1     		bne	.L127
1123:Drivers/BSP/Components/sx1276/sx1276.c ****                                                   RFLR_IRQFLAGS_RXDONE |
 1928              		.loc 1 1123 0
 1929 006c F721     		movs	r1, #247
 1930 006e 1120     		movs	r0, #17
 1931 0070 FFF7FEFF 		bl	SX1276Write
 1932              	.LVL239:
1133:Drivers/BSP/Components/sx1276/sx1276.c ****             }
 1933              		.loc 1 1133 0
 1934 0074 4020     		movs	r0, #64
 1935 0076 FFF7FEFF 		bl	SX1276Read
 1936              	.LVL240:
 1937 007a 40B2     		sxtb	r0, r0
 1938 007c 3F21     		movs	r1, #63
 1939 007e 0140     		ands	r1, r0
 1940 0080 4020     		movs	r0, #64
 1941 0082 0143     		orrs	r1, r0
 1942 0084 4020     		movs	r0, #64
 1943 0086 FFF7FEFF 		bl	SX1276Write
 1944              	.LVL241:
 1945 008a C4E7     		b	.L123
 1946              	.L127:
1109:Drivers/BSP/Components/sx1276/sx1276.c ****                                                   RFLR_IRQFLAGS_RXDONE |
 1947              		.loc 1 1109 0
 1948 008c F521     		movs	r1, #245
 1949 008e 1120     		movs	r0, #17
 1950 0090 FFF7FEFF 		bl	SX1276Write
 1951              	.LVL242:
1119:Drivers/BSP/Components/sx1276/sx1276.c ****             }
 1952              		.loc 1 1119 0
 1953 0094 4020     		movs	r0, #64
 1954 0096 FFF7FEFF 		bl	SX1276Read
 1955              	.LVL243:
 1956 009a 40B2     		sxtb	r0, r0
 1957 009c 3321     		movs	r1, #51
 1958 009e 0140     		ands	r1, r0
 1959 00a0 4020     		movs	r0, #64
 1960 00a2 0143     		orrs	r1, r0
 1961 00a4 4020     		movs	r0, #64
 1962 00a6 FFF7FEFF 		bl	SX1276Write
 1963              	.LVL244:
 1964 00aa B4E7     		b	.L123
 1965              	.L129:
 1966              		.align	2
ARM GAS  /var/folders/2m/zqg86yyd4hbf56w83tkxjpvr0000gn/T//ccRNesxV.s 			page 72


 1967              	.L128:
 1968 00ac 00000000 		.word	TxTimeoutTimer
 1969 00b0 00000000 		.word	SX1276
 1970              		.cfi_endproc
 1971              	.LFE55:
 1973              		.section	.text.SX1276StartCad,"ax",%progbits
 1974              		.align	1
 1975              		.global	SX1276StartCad
 1976              		.syntax unified
 1977              		.code	16
 1978              		.thumb_func
 1979              		.fpu softvfp
 1981              	SX1276StartCad:
 1982              	.LFB56:
1145:Drivers/BSP/Components/sx1276/sx1276.c ****     switch( SX1276.Settings.Modem )
 1983              		.loc 1 1145 0
 1984              		.cfi_startproc
 1985              		@ args = 0, pretend = 0, frame = 0
 1986              		@ frame_needed = 0, uses_anonymous_args = 0
 1987 0000 10B5     		push	{r4, lr}
 1988              	.LCFI19:
 1989              		.cfi_def_cfa_offset 8
 1990              		.cfi_offset 4, -8
 1991              		.cfi_offset 14, -4
1146:Drivers/BSP/Components/sx1276/sx1276.c ****     {
 1992              		.loc 1 1146 0
 1993 0002 0B4B     		ldr	r3, .L133
 1994 0004 5B79     		ldrb	r3, [r3, #5]
 1995 0006 012B     		cmp	r3, #1
 1996 0008 11D1     		bne	.L130
1155:Drivers/BSP/Components/sx1276/sx1276.c ****                                         RFLR_IRQFLAGS_RXDONE |
 1997              		.loc 1 1155 0
 1998 000a FA21     		movs	r1, #250
 1999 000c 1120     		movs	r0, #17
 2000 000e FFF7FEFF 		bl	SX1276Write
 2001              	.LVL245:
1166:Drivers/BSP/Components/sx1276/sx1276.c **** 
 2002              		.loc 1 1166 0
 2003 0012 4020     		movs	r0, #64
 2004 0014 FFF7FEFF 		bl	SX1276Read
 2005              	.LVL246:
 2006 0018 0324     		movs	r4, #3
 2007 001a A043     		bics	r0, r4
 2008 001c C1B2     		uxtb	r1, r0
 2009 001e 4020     		movs	r0, #64
 2010 0020 FFF7FEFF 		bl	SX1276Write
 2011              	.LVL247:
1168:Drivers/BSP/Components/sx1276/sx1276.c ****             SX1276SetOpMode( RFLR_OPMODE_CAD );
 2012              		.loc 1 1168 0
 2013 0024 024B     		ldr	r3, .L133
 2014 0026 1C71     		strb	r4, [r3, #4]
1169:Drivers/BSP/Components/sx1276/sx1276.c ****         }
 2015              		.loc 1 1169 0
 2016 0028 0720     		movs	r0, #7
 2017 002a FFF7FEFF 		bl	SX1276SetOpMode
 2018              	.LVL248:
 2019              	.L130:
ARM GAS  /var/folders/2m/zqg86yyd4hbf56w83tkxjpvr0000gn/T//ccRNesxV.s 			page 73


1175:Drivers/BSP/Components/sx1276/sx1276.c **** 
 2020              		.loc 1 1175 0
 2021              		@ sp needed
 2022 002e 10BD     		pop	{r4, pc}
 2023              	.L134:
 2024              		.align	2
 2025              	.L133:
 2026 0030 00000000 		.word	SX1276
 2027              		.cfi_endproc
 2028              	.LFE56:
 2030              		.section	.text.SX1276SetModem,"ax",%progbits
 2031              		.align	1
 2032              		.global	SX1276SetModem
 2033              		.syntax unified
 2034              		.code	16
 2035              		.thumb_func
 2036              		.fpu softvfp
 2038              	SX1276SetModem:
 2039              	.LFB61:
1269:Drivers/BSP/Components/sx1276/sx1276.c ****     if( ( SX1276Read( REG_OPMODE ) & RFLR_OPMODE_LONGRANGEMODE_ON ) != 0 )
 2040              		.loc 1 1269 0
 2041              		.cfi_startproc
 2042              		@ args = 0, pretend = 0, frame = 0
 2043              		@ frame_needed = 0, uses_anonymous_args = 0
 2044              	.LVL249:
 2045 0000 10B5     		push	{r4, lr}
 2046              	.LCFI20:
 2047              		.cfi_def_cfa_offset 8
 2048              		.cfi_offset 4, -8
 2049              		.cfi_offset 14, -4
 2050 0002 0400     		movs	r4, r0
1270:Drivers/BSP/Components/sx1276/sx1276.c ****     {
 2051              		.loc 1 1270 0
 2052 0004 0120     		movs	r0, #1
 2053              	.LVL250:
 2054 0006 FFF7FEFF 		bl	SX1276Read
 2055              	.LVL251:
 2056 000a 0306     		lsls	r3, r0, #24
 2057 000c 1FD4     		bmi	.L141
1276:Drivers/BSP/Components/sx1276/sx1276.c ****     }
 2058              		.loc 1 1276 0
 2059 000e 1B4B     		ldr	r3, .L143
 2060 0010 0022     		movs	r2, #0
 2061 0012 5A71     		strb	r2, [r3, #5]
 2062              	.L137:
1279:Drivers/BSP/Components/sx1276/sx1276.c ****     {
 2063              		.loc 1 1279 0
 2064 0014 194B     		ldr	r3, .L143
 2065 0016 5B79     		ldrb	r3, [r3, #5]
 2066 0018 A342     		cmp	r3, r4
 2067 001a 17D0     		beq	.L135
1284:Drivers/BSP/Components/sx1276/sx1276.c ****     switch( SX1276.Settings.Modem )
 2068              		.loc 1 1284 0
 2069 001c 174B     		ldr	r3, .L143
 2070 001e 5C71     		strb	r4, [r3, #5]
1285:Drivers/BSP/Components/sx1276/sx1276.c ****     {
 2071              		.loc 1 1285 0
ARM GAS  /var/folders/2m/zqg86yyd4hbf56w83tkxjpvr0000gn/T//ccRNesxV.s 			page 74


 2072 0020 012C     		cmp	r4, #1
 2073 0022 18D1     		bne	.L142
1296:Drivers/BSP/Components/sx1276/sx1276.c ****         SX1276Write( REG_OPMODE, ( SX1276Read( REG_OPMODE ) & RFLR_OPMODE_LONGRANGEMODE_MASK ) | RF
 2074              		.loc 1 1296 0
 2075 0024 FFF7FEFF 		bl	SX1276SetSleep
 2076              	.LVL252:
1297:Drivers/BSP/Components/sx1276/sx1276.c **** 
 2077              		.loc 1 1297 0
 2078 0028 0120     		movs	r0, #1
 2079 002a FFF7FEFF 		bl	SX1276Read
 2080              	.LVL253:
 2081 002e 8021     		movs	r1, #128
 2082 0030 4942     		rsbs	r1, r1, #0
 2083 0032 0143     		orrs	r1, r0
 2084 0034 C9B2     		uxtb	r1, r1
 2085 0036 0120     		movs	r0, #1
 2086 0038 FFF7FEFF 		bl	SX1276Write
 2087              	.LVL254:
1299:Drivers/BSP/Components/sx1276/sx1276.c ****         SX1276Write( REG_DIOMAPPING2, 0x00 );
 2088              		.loc 1 1299 0
 2089 003c 0021     		movs	r1, #0
 2090 003e 4020     		movs	r0, #64
 2091 0040 FFF7FEFF 		bl	SX1276Write
 2092              	.LVL255:
1300:Drivers/BSP/Components/sx1276/sx1276.c ****         break;
 2093              		.loc 1 1300 0
 2094 0044 0021     		movs	r1, #0
 2095 0046 4120     		movs	r0, #65
 2096 0048 FFF7FEFF 		bl	SX1276Write
 2097              	.LVL256:
 2098              	.L135:
1303:Drivers/BSP/Components/sx1276/sx1276.c **** 
 2099              		.loc 1 1303 0
 2100              		@ sp needed
 2101 004c 10BD     		pop	{r4, pc}
 2102              	.L141:
1272:Drivers/BSP/Components/sx1276/sx1276.c ****     }
 2103              		.loc 1 1272 0
 2104 004e 0B4B     		ldr	r3, .L143
 2105 0050 0122     		movs	r2, #1
 2106 0052 5A71     		strb	r2, [r3, #5]
 2107 0054 DEE7     		b	.L137
 2108              	.L142:
1289:Drivers/BSP/Components/sx1276/sx1276.c ****         SX1276Write( REG_OPMODE, ( SX1276Read( REG_OPMODE ) & RFLR_OPMODE_LONGRANGEMODE_MASK ) | RF
 2109              		.loc 1 1289 0
 2110 0056 FFF7FEFF 		bl	SX1276SetSleep
 2111              	.LVL257:
1290:Drivers/BSP/Components/sx1276/sx1276.c **** 
 2112              		.loc 1 1290 0
 2113 005a 0120     		movs	r0, #1
 2114 005c FFF7FEFF 		bl	SX1276Read
 2115              	.LVL258:
 2116 0060 7F21     		movs	r1, #127
 2117 0062 0140     		ands	r1, r0
 2118 0064 0120     		movs	r0, #1
 2119 0066 FFF7FEFF 		bl	SX1276Write
 2120              	.LVL259:
ARM GAS  /var/folders/2m/zqg86yyd4hbf56w83tkxjpvr0000gn/T//ccRNesxV.s 			page 75


1292:Drivers/BSP/Components/sx1276/sx1276.c ****         SX1276Write( REG_DIOMAPPING2, 0x30 ); // DIO5=ModeReady
 2121              		.loc 1 1292 0
 2122 006a 0021     		movs	r1, #0
 2123 006c 4020     		movs	r0, #64
 2124 006e FFF7FEFF 		bl	SX1276Write
 2125              	.LVL260:
1293:Drivers/BSP/Components/sx1276/sx1276.c ****         break;
 2126              		.loc 1 1293 0
 2127 0072 3021     		movs	r1, #48
 2128 0074 4120     		movs	r0, #65
 2129 0076 FFF7FEFF 		bl	SX1276Write
 2130              	.LVL261:
1294:Drivers/BSP/Components/sx1276/sx1276.c ****     case MODEM_LORA:
 2131              		.loc 1 1294 0
 2132 007a E7E7     		b	.L135
 2133              	.L144:
 2134              		.align	2
 2135              	.L143:
 2136 007c 00000000 		.word	SX1276
 2137              		.cfi_endproc
 2138              	.LFE61:
 2140              		.section	.text.SX1276Init,"ax",%progbits
 2141              		.align	1
 2142              		.global	SX1276Init
 2143              		.syntax unified
 2144              		.code	16
 2145              		.thumb_func
 2146              		.fpu softvfp
 2148              	SX1276Init:
 2149              	.LFB41:
 259:Drivers/BSP/Components/sx1276/sx1276.c ****     uint8_t i;
 2150              		.loc 1 259 0
 2151              		.cfi_startproc
 2152              		@ args = 0, pretend = 0, frame = 0
 2153              		@ frame_needed = 0, uses_anonymous_args = 0
 2154              	.LVL262:
 2155 0000 70B5     		push	{r4, r5, r6, lr}
 2156              	.LCFI21:
 2157              		.cfi_def_cfa_offset 16
 2158              		.cfi_offset 4, -16
 2159              		.cfi_offset 5, -12
 2160              		.cfi_offset 6, -8
 2161              		.cfi_offset 14, -4
 262:Drivers/BSP/Components/sx1276/sx1276.c **** 
 2162              		.loc 1 262 0
 2163 0002 1D4C     		ldr	r4, .L148
 2164 0004 6060     		str	r0, [r4, #4]
 265:Drivers/BSP/Components/sx1276/sx1276.c ****     TimerInit( &RxTimeoutTimer, SX1276OnTimeoutIrq );
 2165              		.loc 1 265 0
 2166 0006 1D4D     		ldr	r5, .L148+4
 2167 0008 2900     		movs	r1, r5
 2168 000a 1D48     		ldr	r0, .L148+8
 2169              	.LVL263:
 2170 000c FFF7FEFF 		bl	TimerInit
 2171              	.LVL264:
 266:Drivers/BSP/Components/sx1276/sx1276.c ****     TimerInit( &RxTimeoutSyncWord, SX1276OnTimeoutIrq );
 2172              		.loc 1 266 0
ARM GAS  /var/folders/2m/zqg86yyd4hbf56w83tkxjpvr0000gn/T//ccRNesxV.s 			page 76


 2173 0010 2900     		movs	r1, r5
 2174 0012 1C48     		ldr	r0, .L148+12
 2175 0014 FFF7FEFF 		bl	TimerInit
 2176              	.LVL265:
 267:Drivers/BSP/Components/sx1276/sx1276.c **** 
 2177              		.loc 1 267 0
 2178 0018 2900     		movs	r1, r5
 2179 001a 1B48     		ldr	r0, .L148+16
 2180 001c FFF7FEFF 		bl	TimerInit
 2181              	.LVL266:
 269:Drivers/BSP/Components/sx1276/sx1276.c **** 
 2182              		.loc 1 269 0
 2183 0020 2368     		ldr	r3, [r4]
 2184 0022 1B68     		ldr	r3, [r3]
 2185 0024 0120     		movs	r0, #1
 2186 0026 9847     		blx	r3
 2187              	.LVL267:
 271:Drivers/BSP/Components/sx1276/sx1276.c **** 
 2188              		.loc 1 271 0
 2189 0028 FFF7FEFF 		bl	SX1276Reset
 2190              	.LVL268:
 273:Drivers/BSP/Components/sx1276/sx1276.c **** 
 2191              		.loc 1 273 0
 2192 002c FFF7FEFF 		bl	RxChainCalibration
 2193              	.LVL269:
 275:Drivers/BSP/Components/sx1276/sx1276.c **** 
 2194              		.loc 1 275 0
 2195 0030 0020     		movs	r0, #0
 2196 0032 FFF7FEFF 		bl	SX1276SetOpMode
 2197              	.LVL270:
 277:Drivers/BSP/Components/sx1276/sx1276.c **** 
 2198              		.loc 1 277 0
 2199 0036 2368     		ldr	r3, [r4]
 2200 0038 9B68     		ldr	r3, [r3, #8]
 2201 003a 1448     		ldr	r0, .L148+20
 2202 003c 9847     		blx	r3
 2203              	.LVL271:
 279:Drivers/BSP/Components/sx1276/sx1276.c ****     {
 2204              		.loc 1 279 0
 2205 003e 0024     		movs	r4, #0
 2206 0040 0CE0     		b	.L146
 2207              	.LVL272:
 2208              	.L147:
 281:Drivers/BSP/Components/sx1276/sx1276.c ****         SX1276Write( RadioRegsInit[i].Addr, RadioRegsInit[i].Value );
 2209              		.loc 1 281 0 discriminator 3
 2210 0042 134D     		ldr	r5, .L148+24
 2211 0044 6600     		lsls	r6, r4, #1
 2212 0046 3619     		adds	r6, r6, r4
 2213 0048 705D     		ldrb	r0, [r6, r5]
 2214 004a FFF7FEFF 		bl	SX1276SetModem
 2215              	.LVL273:
 282:Drivers/BSP/Components/sx1276/sx1276.c ****     }
 2216              		.loc 1 282 0 discriminator 3
 2217 004e AD19     		adds	r5, r5, r6
 2218 0050 A978     		ldrb	r1, [r5, #2]
 2219 0052 6878     		ldrb	r0, [r5, #1]
 2220 0054 FFF7FEFF 		bl	SX1276Write
ARM GAS  /var/folders/2m/zqg86yyd4hbf56w83tkxjpvr0000gn/T//ccRNesxV.s 			page 77


 2221              	.LVL274:
 279:Drivers/BSP/Components/sx1276/sx1276.c ****     {
 2222              		.loc 1 279 0 discriminator 3
 2223 0058 0134     		adds	r4, r4, #1
 2224              	.LVL275:
 2225 005a E4B2     		uxtb	r4, r4
 2226              	.LVL276:
 2227              	.L146:
 279:Drivers/BSP/Components/sx1276/sx1276.c ****     {
 2228              		.loc 1 279 0 is_stmt 0 discriminator 1
 2229 005c 0F2C     		cmp	r4, #15
 2230 005e F0D9     		bls	.L147
 285:Drivers/BSP/Components/sx1276/sx1276.c **** 
 2231              		.loc 1 285 0 is_stmt 1
 2232 0060 0020     		movs	r0, #0
 2233 0062 FFF7FEFF 		bl	SX1276SetModem
 2234              	.LVL277:
 287:Drivers/BSP/Components/sx1276/sx1276.c **** 
 2235              		.loc 1 287 0
 2236 0066 0B4B     		ldr	r3, .L148+28
 2237 0068 0022     		movs	r2, #0
 2238 006a 1A71     		strb	r2, [r3, #4]
 289:Drivers/BSP/Components/sx1276/sx1276.c **** }
 2239              		.loc 1 289 0
 2240 006c 024B     		ldr	r3, .L148
 2241 006e 1B68     		ldr	r3, [r3]
 2242 0070 5B68     		ldr	r3, [r3, #4]
 2243 0072 9847     		blx	r3
 2244              	.LVL278:
 2245 0074 0230     		adds	r0, r0, #2
 290:Drivers/BSP/Components/sx1276/sx1276.c **** 
 2246              		.loc 1 290 0
 2247              		@ sp needed
 2248              	.LVL279:
 2249 0076 70BD     		pop	{r4, r5, r6, pc}
 2250              	.L149:
 2251              		.align	2
 2252              	.L148:
 2253 0078 00000000 		.word	.LANCHOR0
 2254 007c 00000000 		.word	SX1276OnTimeoutIrq
 2255 0080 00000000 		.word	TxTimeoutTimer
 2256 0084 00000000 		.word	RxTimeoutTimer
 2257 0088 00000000 		.word	RxTimeoutSyncWord
 2258 008c 00000000 		.word	.LANCHOR1
 2259 0090 D4000000 		.word	.LANCHOR2
 2260 0094 00000000 		.word	SX1276
 2261              		.cfi_endproc
 2262              	.LFE41:
 2264              		.section	.text.SX1276IsChannelFree,"ax",%progbits
 2265              		.align	1
 2266              		.global	SX1276IsChannelFree
 2267              		.syntax unified
 2268              		.code	16
 2269              		.thumb_func
 2270              		.fpu softvfp
 2272              	SX1276IsChannelFree:
 2273              	.LFB44:
ARM GAS  /var/folders/2m/zqg86yyd4hbf56w83tkxjpvr0000gn/T//ccRNesxV.s 			page 78


 311:Drivers/BSP/Components/sx1276/sx1276.c ****     bool status = true;
 2274              		.loc 1 311 0
 2275              		.cfi_startproc
 2276              		@ args = 0, pretend = 0, frame = 0
 2277              		@ frame_needed = 0, uses_anonymous_args = 0
 2278              	.LVL280:
 2279 0000 F8B5     		push	{r3, r4, r5, r6, r7, lr}
 2280              	.LCFI22:
 2281              		.cfi_def_cfa_offset 24
 2282              		.cfi_offset 3, -24
 2283              		.cfi_offset 4, -20
 2284              		.cfi_offset 5, -16
 2285              		.cfi_offset 6, -12
 2286              		.cfi_offset 7, -8
 2287              		.cfi_offset 14, -4
 2288 0002 0400     		movs	r4, r0
 2289 0004 0D00     		movs	r5, r1
 2290 0006 1700     		movs	r7, r2
 2291 0008 1E00     		movs	r6, r3
 2292              	.LVL281:
 316:Drivers/BSP/Components/sx1276/sx1276.c **** 
 2293              		.loc 1 316 0
 2294 000a FFF7FEFF 		bl	SX1276SetModem
 2295              	.LVL282:
 318:Drivers/BSP/Components/sx1276/sx1276.c **** 
 2296              		.loc 1 318 0
 2297 000e 2800     		movs	r0, r5
 2298 0010 FFF7FEFF 		bl	SX1276SetChannel
 2299              	.LVL283:
 320:Drivers/BSP/Components/sx1276/sx1276.c **** 
 2300              		.loc 1 320 0
 2301 0014 0520     		movs	r0, #5
 2302 0016 FFF7FEFF 		bl	SX1276SetOpMode
 2303              	.LVL284:
 322:Drivers/BSP/Components/sx1276/sx1276.c **** 
 2304              		.loc 1 322 0
 2305 001a 0120     		movs	r0, #1
 2306 001c FFF7FEFF 		bl	DelayMs
 2307              	.LVL285:
 324:Drivers/BSP/Components/sx1276/sx1276.c **** 
 2308              		.loc 1 324 0
 2309 0020 FFF7FEFF 		bl	TimerGetCurrentTime
 2310              	.LVL286:
 2311 0024 0500     		movs	r5, r0
 2312              	.LVL287:
 2313              	.L151:
 327:Drivers/BSP/Components/sx1276/sx1276.c ****     {
 2314              		.loc 1 327 0
 2315 0026 2800     		movs	r0, r5
 2316 0028 FFF7FEFF 		bl	TimerGetElapsedTime
 2317              	.LVL288:
 2318 002c B042     		cmp	r0, r6
 2319 002e 06D2     		bcs	.L155
 329:Drivers/BSP/Components/sx1276/sx1276.c **** 
 2320              		.loc 1 329 0
 2321 0030 2000     		movs	r0, r4
 2322 0032 FFF7FEFF 		bl	SX1276ReadRssi
ARM GAS  /var/folders/2m/zqg86yyd4hbf56w83tkxjpvr0000gn/T//ccRNesxV.s 			page 79


 2323              	.LVL289:
 331:Drivers/BSP/Components/sx1276/sx1276.c ****         {
 2324              		.loc 1 331 0
 2325 0036 B842     		cmp	r0, r7
 2326 0038 F5DD     		ble	.L151
 333:Drivers/BSP/Components/sx1276/sx1276.c ****             break;
 2327              		.loc 1 333 0
 2328 003a 0024     		movs	r4, #0
 2329 003c 00E0     		b	.L152
 2330              	.LVL290:
 2331              	.L155:
 312:Drivers/BSP/Components/sx1276/sx1276.c ****     int16_t rssi = 0;
 2332              		.loc 1 312 0
 2333 003e 0124     		movs	r4, #1
 2334              	.L152:
 2335              	.LVL291:
 337:Drivers/BSP/Components/sx1276/sx1276.c ****     return status;
 2336              		.loc 1 337 0
 2337 0040 FFF7FEFF 		bl	SX1276SetSleep
 2338              	.LVL292:
 339:Drivers/BSP/Components/sx1276/sx1276.c **** 
 2339              		.loc 1 339 0
 2340 0044 2000     		movs	r0, r4
 2341              		@ sp needed
 2342              	.LVL293:
 2343              	.LVL294:
 2344              	.LVL295:
 2345 0046 F8BD     		pop	{r3, r4, r5, r6, r7, pc}
 2346              		.cfi_endproc
 2347              	.LFE44:
 2349              		.section	.text.SX1276Random,"ax",%progbits
 2350              		.align	1
 2351              		.global	SX1276Random
 2352              		.syntax unified
 2353              		.code	16
 2354              		.thumb_func
 2355              		.fpu softvfp
 2357              	SX1276Random:
 2358              	.LFB45:
 342:Drivers/BSP/Components/sx1276/sx1276.c ****     uint8_t i;
 2359              		.loc 1 342 0
 2360              		.cfi_startproc
 2361              		@ args = 0, pretend = 0, frame = 0
 2362              		@ frame_needed = 0, uses_anonymous_args = 0
 2363 0000 70B5     		push	{r4, r5, r6, lr}
 2364              	.LCFI23:
 2365              		.cfi_def_cfa_offset 16
 2366              		.cfi_offset 4, -16
 2367              		.cfi_offset 5, -12
 2368              		.cfi_offset 6, -8
 2369              		.cfi_offset 14, -4
 2370              	.LVL296:
 350:Drivers/BSP/Components/sx1276/sx1276.c **** 
 2371              		.loc 1 350 0
 2372 0002 0120     		movs	r0, #1
 2373 0004 FFF7FEFF 		bl	SX1276SetModem
 2374              	.LVL297:
ARM GAS  /var/folders/2m/zqg86yyd4hbf56w83tkxjpvr0000gn/T//ccRNesxV.s 			page 80


 353:Drivers/BSP/Components/sx1276/sx1276.c ****                   RFLR_IRQFLAGS_RXDONE |
 2375              		.loc 1 353 0
 2376 0008 FF21     		movs	r1, #255
 2377 000a 1120     		movs	r0, #17
 2378 000c FFF7FEFF 		bl	SX1276Write
 2379              	.LVL298:
 363:Drivers/BSP/Components/sx1276/sx1276.c **** 
 2380              		.loc 1 363 0
 2381 0010 0520     		movs	r0, #5
 2382 0012 FFF7FEFF 		bl	SX1276SetOpMode
 2383              	.LVL299:
 344:Drivers/BSP/Components/sx1276/sx1276.c **** 
 2384              		.loc 1 344 0
 2385 0016 0025     		movs	r5, #0
 365:Drivers/BSP/Components/sx1276/sx1276.c ****     {
 2386              		.loc 1 365 0
 2387 0018 0024     		movs	r4, #0
 2388 001a 0BE0     		b	.L157
 2389              	.LVL300:
 2390              	.L158:
 367:Drivers/BSP/Components/sx1276/sx1276.c ****         // Unfiltered RSSI value reading. Only takes the LSB value
 2391              		.loc 1 367 0 discriminator 3
 2392 001c 0120     		movs	r0, #1
 2393 001e FFF7FEFF 		bl	DelayMs
 2394              	.LVL301:
 369:Drivers/BSP/Components/sx1276/sx1276.c ****     }
 2395              		.loc 1 369 0 discriminator 3
 2396 0022 2C20     		movs	r0, #44
 2397 0024 FFF7FEFF 		bl	SX1276Read
 2398              	.LVL302:
 2399 0028 0123     		movs	r3, #1
 2400 002a 1840     		ands	r0, r3
 2401 002c A040     		lsls	r0, r0, r4
 2402 002e 0543     		orrs	r5, r0
 2403              	.LVL303:
 365:Drivers/BSP/Components/sx1276/sx1276.c ****     {
 2404              		.loc 1 365 0 discriminator 3
 2405 0030 0134     		adds	r4, r4, #1
 2406              	.LVL304:
 2407 0032 E4B2     		uxtb	r4, r4
 2408              	.LVL305:
 2409              	.L157:
 365:Drivers/BSP/Components/sx1276/sx1276.c ****     {
 2410              		.loc 1 365 0 is_stmt 0 discriminator 1
 2411 0034 1F2C     		cmp	r4, #31
 2412 0036 F1D9     		bls	.L158
 372:Drivers/BSP/Components/sx1276/sx1276.c **** 
 2413              		.loc 1 372 0 is_stmt 1
 2414 0038 FFF7FEFF 		bl	SX1276SetSleep
 2415              	.LVL306:
 375:Drivers/BSP/Components/sx1276/sx1276.c **** 
 2416              		.loc 1 375 0
 2417 003c 2800     		movs	r0, r5
 2418              		@ sp needed
 2419              	.LVL307:
 2420              	.LVL308:
 2421 003e 70BD     		pop	{r4, r5, r6, pc}
ARM GAS  /var/folders/2m/zqg86yyd4hbf56w83tkxjpvr0000gn/T//ccRNesxV.s 			page 81


 2422              		.cfi_endproc
 2423              	.LFE45:
 2425              		.section	.text.SX1276SetRxConfig,"ax",%progbits
 2426              		.align	1
 2427              		.global	SX1276SetRxConfig
 2428              		.syntax unified
 2429              		.code	16
 2430              		.thumb_func
 2431              		.fpu softvfp
 2433              	SX1276SetRxConfig:
 2434              	.LFB48:
 448:Drivers/BSP/Components/sx1276/sx1276.c ****     SX1276SetModem( modem );
 2435              		.loc 1 448 0
 2436              		.cfi_startproc
 2437              		@ args = 40, pretend = 0, frame = 32
 2438              		@ frame_needed = 0, uses_anonymous_args = 0
 2439              	.LVL309:
 2440 0000 F0B5     		push	{r4, r5, r6, r7, lr}
 2441              	.LCFI24:
 2442              		.cfi_def_cfa_offset 20
 2443              		.cfi_offset 4, -20
 2444              		.cfi_offset 5, -16
 2445              		.cfi_offset 6, -12
 2446              		.cfi_offset 7, -8
 2447              		.cfi_offset 14, -4
 2448 0002 DE46     		mov	lr, fp
 2449 0004 5746     		mov	r7, r10
 2450 0006 4E46     		mov	r6, r9
 2451 0008 4546     		mov	r5, r8
 2452 000a E0B5     		push	{r5, r6, r7, lr}
 2453              	.LCFI25:
 2454              		.cfi_def_cfa_offset 36
 2455              		.cfi_offset 8, -36
 2456              		.cfi_offset 9, -32
 2457              		.cfi_offset 10, -28
 2458              		.cfi_offset 11, -24
 2459 000c 89B0     		sub	sp, sp, #36
 2460              	.LCFI26:
 2461              		.cfi_def_cfa_offset 72
 2462 000e 0500     		movs	r5, r0
 2463 0010 0491     		str	r1, [sp, #16]
 2464 0012 1400     		movs	r4, r2
 2465 0014 0293     		str	r3, [sp, #8]
 2466 0016 12AB     		add	r3, sp, #72
 2467              	.LVL310:
 2468 0018 04CB     		ldmia	r3!, {r2}
 2469              	.LVL311:
 2470 001a 0592     		str	r2, [sp, #20]
 2471 001c 1E88     		ldrh	r6, [r3]
 2472 001e 14AB     		add	r3, sp, #80
 2473              	.LVL312:
 2474 0020 1B88     		ldrh	r3, [r3]
 2475              	.LVL313:
 2476 0022 0693     		str	r3, [sp, #24]
 2477 0024 15AB     		add	r3, sp, #84
 2478              	.LVL314:
 2479 0026 1B78     		ldrb	r3, [r3]
ARM GAS  /var/folders/2m/zqg86yyd4hbf56w83tkxjpvr0000gn/T//ccRNesxV.s 			page 82


 2480              	.LVL315:
 2481 0028 9946     		mov	r9, r3
 2482 002a 16AB     		add	r3, sp, #88
 2483              	.LVL316:
 2484 002c 1B78     		ldrb	r3, [r3]
 2485              	.LVL317:
 2486 002e 0093     		str	r3, [sp]
 2487 0030 17AB     		add	r3, sp, #92
 2488              	.LVL318:
 2489 0032 1F78     		ldrb	r7, [r3]
 2490 0034 18AB     		add	r3, sp, #96
 2491              	.LVL319:
 2492 0036 1B78     		ldrb	r3, [r3]
 2493              	.LVL320:
 2494 0038 0793     		str	r3, [sp, #28]
 2495 003a 19AB     		add	r3, sp, #100
 2496              	.LVL321:
 2497 003c 1B78     		ldrb	r3, [r3]
 2498              	.LVL322:
 2499 003e 9846     		mov	r8, r3
 2500 0040 1AAB     		add	r3, sp, #104
 2501              	.LVL323:
 2502 0042 1B78     		ldrb	r3, [r3]
 2503              	.LVL324:
 2504 0044 9A46     		mov	r10, r3
 2505 0046 1BAB     		add	r3, sp, #108
 2506              	.LVL325:
 2507 0048 1B78     		ldrb	r3, [r3]
 2508              	.LVL326:
 2509 004a 9B46     		mov	fp, r3
 449:Drivers/BSP/Components/sx1276/sx1276.c **** 
 2510              		.loc 1 449 0
 2511 004c FFF7FEFF 		bl	SX1276SetModem
 2512              	.LVL327:
 451:Drivers/BSP/Components/sx1276/sx1276.c ****     {
 2513              		.loc 1 451 0
 2514 0050 002D     		cmp	r5, #0
 2515 0052 09D0     		beq	.L161
 2516 0054 012D     		cmp	r5, #1
 2517 0056 00D1     		bne	.LCB2302
 2518 0058 8EE0     		b	.L162	@long jump
 2519              	.LCB2302:
 2520              	.LVL328:
 2521              	.L159:
 609:Drivers/BSP/Components/sx1276/sx1276.c **** 
 2522              		.loc 1 609 0
 2523 005a 09B0     		add	sp, sp, #36
 2524              		@ sp needed
 2525              	.LVL329:
 2526 005c 3CBC     		pop	{r2, r3, r4, r5}
 2527 005e 9046     		mov	r8, r2
 2528 0060 9946     		mov	r9, r3
 2529 0062 A246     		mov	r10, r4
 2530 0064 AB46     		mov	fp, r5
 2531 0066 F0BD     		pop	{r4, r5, r6, r7, pc}
 2532              	.LVL330:
 2533              	.L161:
ARM GAS  /var/folders/2m/zqg86yyd4hbf56w83tkxjpvr0000gn/T//ccRNesxV.s 			page 83


 455:Drivers/BSP/Components/sx1276/sx1276.c ****             SX1276.Settings.Fsk.Datarate = datarate;
 2534              		.loc 1 455 0
 2535 0068 B24D     		ldr	r5, .L189
 2536 006a 049B     		ldr	r3, [sp, #16]
 2537 006c 6B61     		str	r3, [r5, #20]
 456:Drivers/BSP/Components/sx1276/sx1276.c ****             SX1276.Settings.Fsk.BandwidthAfc = bandwidthAfc;
 2538              		.loc 1 456 0
 2539 006e EC61     		str	r4, [r5, #28]
 457:Drivers/BSP/Components/sx1276/sx1276.c ****             SX1276.Settings.Fsk.FixLen = fixLen;
 2540              		.loc 1 457 0
 2541 0070 059A     		ldr	r2, [sp, #20]
 2542 0072 AA61     		str	r2, [r5, #24]
 458:Drivers/BSP/Components/sx1276/sx1276.c ****             SX1276.Settings.Fsk.PayloadLen = payloadLen;
 2543              		.loc 1 458 0
 2544 0074 2223     		movs	r3, #34
 2545 0076 4946     		mov	r1, r9
 2546 0078 E954     		strb	r1, [r5, r3]
 459:Drivers/BSP/Components/sx1276/sx1276.c ****             SX1276.Settings.Fsk.CrcOn = crcOn;
 2547              		.loc 1 459 0
 2548 007a 0133     		adds	r3, r3, #1
 2549 007c 009A     		ldr	r2, [sp]
 2550 007e 9046     		mov	r8, r2
 2551 0080 EA54     		strb	r2, [r5, r3]
 460:Drivers/BSP/Components/sx1276/sx1276.c ****             SX1276.Settings.Fsk.IqInverted = iqInverted;
 2552              		.loc 1 460 0
 2553 0082 0133     		adds	r3, r3, #1
 2554 0084 EF54     		strb	r7, [r5, r3]
 461:Drivers/BSP/Components/sx1276/sx1276.c ****             SX1276.Settings.Fsk.RxContinuous = rxContinuous;
 2555              		.loc 1 461 0
 2556 0086 0133     		adds	r3, r3, #1
 2557 0088 5246     		mov	r2, r10
 2558 008a EA54     		strb	r2, [r5, r3]
 462:Drivers/BSP/Components/sx1276/sx1276.c ****             SX1276.Settings.Fsk.PreambleLen = preambleLen;
 2559              		.loc 1 462 0
 2560 008c 0133     		adds	r3, r3, #1
 2561 008e 5A46     		mov	r2, fp
 2562 0090 EA54     		strb	r2, [r5, r3]
 463:Drivers/BSP/Components/sx1276/sx1276.c ****             SX1276.Settings.Fsk.RxSingleTimeout = ( uint32_t )( symbTimeout * ( ( 1.0 / ( double )d
 2563              		.loc 1 463 0
 2564 0092 2E84     		strh	r6, [r5, #32]
 464:Drivers/BSP/Components/sx1276/sx1276.c **** 
 2565              		.loc 1 464 0
 2566 0094 2000     		movs	r0, r4
 2567 0096 FFF7FEFF 		bl	__aeabi_ui2d
 2568              	.LVL331:
 2569 009a 0300     		movs	r3, r0
 2570 009c 0C00     		movs	r4, r1
 2571              	.LVL332:
 2572 009e 0093     		str	r3, [sp]
 2573 00a0 0194     		str	r4, [sp, #4]
 2574 00a2 0200     		movs	r2, r0
 2575 00a4 0B00     		movs	r3, r1
 2576 00a6 0020     		movs	r0, #0
 2577 00a8 A349     		ldr	r1, .L189+4
 2578 00aa FFF7FEFF 		bl	__aeabi_ddiv
 2579              	.LVL333:
 2580 00ae 0022     		movs	r2, #0
ARM GAS  /var/folders/2m/zqg86yyd4hbf56w83tkxjpvr0000gn/T//ccRNesxV.s 			page 84


 2581 00b0 A24B     		ldr	r3, .L189+8
 2582 00b2 FFF7FEFF 		bl	__aeabi_dmul
 2583              	.LVL334:
 2584 00b6 0290     		str	r0, [sp, #8]
 2585 00b8 0391     		str	r1, [sp, #12]
 2586 00ba 0698     		ldr	r0, [sp, #24]
 2587 00bc FFF7FEFF 		bl	__aeabi_i2d
 2588              	.LVL335:
 2589 00c0 029A     		ldr	r2, [sp, #8]
 2590 00c2 039B     		ldr	r3, [sp, #12]
 2591 00c4 FFF7FEFF 		bl	__aeabi_dmul
 2592              	.LVL336:
 2593 00c8 0022     		movs	r2, #0
 2594 00ca 9D4B     		ldr	r3, .L189+12
 2595 00cc FFF7FEFF 		bl	__aeabi_dmul
 2596              	.LVL337:
 2597 00d0 FFF7FEFF 		bl	__aeabi_d2uiz
 2598              	.LVL338:
 2599 00d4 E862     		str	r0, [r5, #44]
 466:Drivers/BSP/Components/sx1276/sx1276.c ****             SX1276Write( REG_BITRATEMSB, ( uint8_t )( datarate >> 8 ) );
 2600              		.loc 1 466 0
 2601 00d6 009A     		ldr	r2, [sp]
 2602 00d8 019B     		ldr	r3, [sp, #4]
 2603 00da 0020     		movs	r0, #0
 2604 00dc 9949     		ldr	r1, .L189+16
 2605 00de FFF7FEFF 		bl	__aeabi_ddiv
 2606              	.LVL339:
 2607 00e2 FFF7FEFF 		bl	__aeabi_d2uiz
 2608              	.LVL340:
 2609 00e6 84B2     		uxth	r4, r0
 2610              	.LVL341:
 467:Drivers/BSP/Components/sx1276/sx1276.c ****             SX1276Write( REG_BITRATELSB, ( uint8_t )( datarate & 0xFF ) );
 2611              		.loc 1 467 0
 2612 00e8 210A     		lsrs	r1, r4, #8
 2613 00ea 0220     		movs	r0, #2
 2614 00ec FFF7FEFF 		bl	SX1276Write
 2615              	.LVL342:
 468:Drivers/BSP/Components/sx1276/sx1276.c **** 
 2616              		.loc 1 468 0
 2617 00f0 E1B2     		uxtb	r1, r4
 2618 00f2 0320     		movs	r0, #3
 2619 00f4 FFF7FEFF 		bl	SX1276Write
 2620              	.LVL343:
 470:Drivers/BSP/Components/sx1276/sx1276.c ****             SX1276Write( REG_AFCBW, GetFskBandwidthRegValue( bandwidthAfc ) );
 2621              		.loc 1 470 0
 2622 00f8 0498     		ldr	r0, [sp, #16]
 2623 00fa FFF7FEFF 		bl	GetFskBandwidthRegValue
 2624              	.LVL344:
 2625 00fe 0100     		movs	r1, r0
 2626 0100 1220     		movs	r0, #18
 2627 0102 FFF7FEFF 		bl	SX1276Write
 2628              	.LVL345:
 471:Drivers/BSP/Components/sx1276/sx1276.c **** 
 2629              		.loc 1 471 0
 2630 0106 0598     		ldr	r0, [sp, #20]
 2631 0108 FFF7FEFF 		bl	GetFskBandwidthRegValue
 2632              	.LVL346:
ARM GAS  /var/folders/2m/zqg86yyd4hbf56w83tkxjpvr0000gn/T//ccRNesxV.s 			page 85


 2633 010c 0100     		movs	r1, r0
 2634 010e 1320     		movs	r0, #19
 2635 0110 FFF7FEFF 		bl	SX1276Write
 2636              	.LVL347:
 473:Drivers/BSP/Components/sx1276/sx1276.c ****             SX1276Write( REG_PREAMBLELSB, ( uint8_t )( preambleLen & 0xFF ) );
 2637              		.loc 1 473 0
 2638 0114 310A     		lsrs	r1, r6, #8
 2639 0116 2520     		movs	r0, #37
 2640 0118 FFF7FEFF 		bl	SX1276Write
 2641              	.LVL348:
 474:Drivers/BSP/Components/sx1276/sx1276.c **** 
 2642              		.loc 1 474 0
 2643 011c F1B2     		uxtb	r1, r6
 2644 011e 2620     		movs	r0, #38
 2645 0120 FFF7FEFF 		bl	SX1276Write
 2646              	.LVL349:
 476:Drivers/BSP/Components/sx1276/sx1276.c ****             {
 2647              		.loc 1 476 0
 2648 0124 4B46     		mov	r3, r9
 2649 0126 002B     		cmp	r3, #0
 2650 0128 1ED0     		beq	.L163
 478:Drivers/BSP/Components/sx1276/sx1276.c ****             }
 2651              		.loc 1 478 0
 2652 012a 4146     		mov	r1, r8
 2653 012c 3220     		movs	r0, #50
 2654 012e FFF7FEFF 		bl	SX1276Write
 2655              	.LVL350:
 2656              	.L164:
 486:Drivers/BSP/Components/sx1276/sx1276.c ****                            RF_PACKETCONFIG1_CRC_MASK &
 2657              		.loc 1 486 0
 2658 0132 3020     		movs	r0, #48
 2659 0134 FFF7FEFF 		bl	SX1276Read
 2660              	.LVL351:
 2661 0138 40B2     		sxtb	r0, r0
 487:Drivers/BSP/Components/sx1276/sx1276.c ****                            RF_PACKETCONFIG1_PACKETFORMAT_MASK ) |
 2662              		.loc 1 487 0
 2663 013a 6F21     		movs	r1, #111
 2664 013c 0140     		ands	r1, r0
 488:Drivers/BSP/Components/sx1276/sx1276.c ****                            ( ( fixLen == 1 ) ? RF_PACKETCONFIG1_PACKETFORMAT_FIXED : RF_PACKETCONFI
 2665              		.loc 1 488 0
 2666 013e 4B46     		mov	r3, r9
 2667 0140 002B     		cmp	r3, #0
 2668 0142 16D0     		beq	.L179
 2669 0144 0023     		movs	r3, #0
 2670              	.L165:
 488:Drivers/BSP/Components/sx1276/sx1276.c ****                            ( ( fixLen == 1 ) ? RF_PACKETCONFIG1_PACKETFORMAT_FIXED : RF_PACKETCONFI
 2671              		.loc 1 488 0 is_stmt 0 discriminator 4
 2672 0146 1943     		orrs	r1, r3
 490:Drivers/BSP/Components/sx1276/sx1276.c ****             SX1276Write( REG_PACKETCONFIG2, ( SX1276Read( REG_PACKETCONFIG2 ) | RF_PACKETCONFIG2_DA
 2673              		.loc 1 490 0 is_stmt 1 discriminator 4
 2674 0148 3F01     		lsls	r7, r7, #4
 489:Drivers/BSP/Components/sx1276/sx1276.c ****                            ( crcOn << 4 ) );
 2675              		.loc 1 489 0 discriminator 4
 2676 014a 3943     		orrs	r1, r7
 485:Drivers/BSP/Components/sx1276/sx1276.c ****                          ( SX1276Read( REG_PACKETCONFIG1 ) &
 2677              		.loc 1 485 0 discriminator 4
 2678 014c C9B2     		uxtb	r1, r1
ARM GAS  /var/folders/2m/zqg86yyd4hbf56w83tkxjpvr0000gn/T//ccRNesxV.s 			page 86


 2679 014e 3020     		movs	r0, #48
 2680 0150 FFF7FEFF 		bl	SX1276Write
 2681              	.LVL352:
 491:Drivers/BSP/Components/sx1276/sx1276.c ****         }
 2682              		.loc 1 491 0 discriminator 4
 2683 0154 3120     		movs	r0, #49
 2684 0156 FFF7FEFF 		bl	SX1276Read
 2685              	.LVL353:
 2686 015a 4021     		movs	r1, #64
 2687 015c 0143     		orrs	r1, r0
 2688 015e C9B2     		uxtb	r1, r1
 2689 0160 3120     		movs	r0, #49
 2690 0162 FFF7FEFF 		bl	SX1276Write
 2691              	.LVL354:
 493:Drivers/BSP/Components/sx1276/sx1276.c ****     case MODEM_LORA:
 2692              		.loc 1 493 0 discriminator 4
 2693 0166 78E7     		b	.L159
 2694              	.L163:
 482:Drivers/BSP/Components/sx1276/sx1276.c ****             }
 2695              		.loc 1 482 0
 2696 0168 FF21     		movs	r1, #255
 2697 016a 3220     		movs	r0, #50
 2698 016c FFF7FEFF 		bl	SX1276Write
 2699              	.LVL355:
 2700 0170 DFE7     		b	.L164
 2701              	.L179:
 488:Drivers/BSP/Components/sx1276/sx1276.c ****                            ( ( fixLen == 1 ) ? RF_PACKETCONFIG1_PACKETFORMAT_FIXED : RF_PACKETCONFI
 2702              		.loc 1 488 0
 2703 0172 8023     		movs	r3, #128
 2704 0174 5B42     		rsbs	r3, r3, #0
 2705 0176 E6E7     		b	.L165
 2706              	.L162:
 496:Drivers/BSP/Components/sx1276/sx1276.c ****             {
 2707              		.loc 1 496 0
 2708 0178 049B     		ldr	r3, [sp, #16]
 2709 017a 022B     		cmp	r3, #2
 2710 017c 00D9     		bls	.L166
 2711              	.L167:
 2712 017e FEE7     		b	.L167
 2713              	.L166:
 501:Drivers/BSP/Components/sx1276/sx1276.c ****             SX1276.Settings.LoRa.Bandwidth = bandwidth;
 2714              		.loc 1 501 0
 2715 0180 049D     		ldr	r5, [sp, #16]
 2716 0182 0735     		adds	r5, r5, #7
 2717              	.LVL356:
 502:Drivers/BSP/Components/sx1276/sx1276.c ****             SX1276.Settings.LoRa.Datarate = datarate;
 2718              		.loc 1 502 0
 2719 0184 6B4B     		ldr	r3, .L189
 2720 0186 5D64     		str	r5, [r3, #68]
 503:Drivers/BSP/Components/sx1276/sx1276.c ****             SX1276.Settings.LoRa.Coderate = coderate;
 2721              		.loc 1 503 0
 2722 0188 9C64     		str	r4, [r3, #72]
 504:Drivers/BSP/Components/sx1276/sx1276.c ****             SX1276.Settings.LoRa.PreambleLen = preambleLen;
 2723              		.loc 1 504 0
 2724 018a 4D22     		movs	r2, #77
 2725 018c 6946     		mov	r1, sp
 2726 018e 097A     		ldrb	r1, [r1, #8]
ARM GAS  /var/folders/2m/zqg86yyd4hbf56w83tkxjpvr0000gn/T//ccRNesxV.s 			page 87


 2727 0190 9954     		strb	r1, [r3, r2]
 505:Drivers/BSP/Components/sx1276/sx1276.c ****             SX1276.Settings.LoRa.FixLen = fixLen;
 2728              		.loc 1 505 0
 2729 0192 0132     		adds	r2, r2, #1
 2730 0194 9E52     		strh	r6, [r3, r2]
 506:Drivers/BSP/Components/sx1276/sx1276.c ****             SX1276.Settings.LoRa.PayloadLen = payloadLen;
 2731              		.loc 1 506 0
 2732 0196 0232     		adds	r2, r2, #2
 2733 0198 4946     		mov	r1, r9
 2734 019a 9954     		strb	r1, [r3, r2]
 507:Drivers/BSP/Components/sx1276/sx1276.c ****             SX1276.Settings.LoRa.CrcOn = crcOn;
 2735              		.loc 1 507 0
 2736 019c 0132     		adds	r2, r2, #1
 2737 019e 6946     		mov	r1, sp
 2738 01a0 0978     		ldrb	r1, [r1]
 2739 01a2 9954     		strb	r1, [r3, r2]
 508:Drivers/BSP/Components/sx1276/sx1276.c ****             SX1276.Settings.LoRa.FreqHopOn = freqHopOn;
 2740              		.loc 1 508 0
 2741 01a4 0132     		adds	r2, r2, #1
 2742 01a6 9F54     		strb	r7, [r3, r2]
 509:Drivers/BSP/Components/sx1276/sx1276.c ****             SX1276.Settings.LoRa.HopPeriod = hopPeriod;
 2743              		.loc 1 509 0
 2744 01a8 0132     		adds	r2, r2, #1
 2745 01aa 6946     		mov	r1, sp
 2746 01ac 097F     		ldrb	r1, [r1, #28]
 2747 01ae 9954     		strb	r1, [r3, r2]
 510:Drivers/BSP/Components/sx1276/sx1276.c ****             SX1276.Settings.LoRa.IqInverted = iqInverted;
 2748              		.loc 1 510 0
 2749 01b0 0132     		adds	r2, r2, #1
 2750 01b2 4146     		mov	r1, r8
 2751 01b4 9954     		strb	r1, [r3, r2]
 511:Drivers/BSP/Components/sx1276/sx1276.c ****             SX1276.Settings.LoRa.RxContinuous = rxContinuous;
 2752              		.loc 1 511 0
 2753 01b6 0132     		adds	r2, r2, #1
 2754 01b8 5146     		mov	r1, r10
 2755 01ba 9954     		strb	r1, [r3, r2]
 512:Drivers/BSP/Components/sx1276/sx1276.c **** 
 2756              		.loc 1 512 0
 2757 01bc 0132     		adds	r2, r2, #1
 2758 01be 5946     		mov	r1, fp
 2759 01c0 9954     		strb	r1, [r3, r2]
 514:Drivers/BSP/Components/sx1276/sx1276.c ****             {
 2760              		.loc 1 514 0
 2761 01c2 0C2C     		cmp	r4, #12
 2762 01c4 03D8     		bhi	.L180
 518:Drivers/BSP/Components/sx1276/sx1276.c ****             {
 2763              		.loc 1 518 0
 2764 01c6 052C     		cmp	r4, #5
 2765 01c8 02D8     		bhi	.L168
 520:Drivers/BSP/Components/sx1276/sx1276.c ****             }
 2766              		.loc 1 520 0
 2767 01ca 0624     		movs	r4, #6
 2768              	.LVL357:
 2769 01cc 00E0     		b	.L168
 2770              	.LVL358:
 2771              	.L180:
 516:Drivers/BSP/Components/sx1276/sx1276.c ****             }
ARM GAS  /var/folders/2m/zqg86yyd4hbf56w83tkxjpvr0000gn/T//ccRNesxV.s 			page 88


 2772              		.loc 1 516 0
 2773 01ce 0C24     		movs	r4, #12
 2774              	.LVL359:
 2775              	.L168:
 523:Drivers/BSP/Components/sx1276/sx1276.c ****                 ( ( bandwidth == 8 ) && ( datarate == 12 ) ) )
 2776              		.loc 1 523 0
 2777 01d0 072D     		cmp	r5, #7
 2778 01d2 64D0     		beq	.L182
 2779              	.L169:
 523:Drivers/BSP/Components/sx1276/sx1276.c ****                 ( ( bandwidth == 8 ) && ( datarate == 12 ) ) )
 2780              		.loc 1 523 0 is_stmt 0 discriminator 3
 2781 01d4 082D     		cmp	r5, #8
 2782 01d6 6BD0     		beq	.L183
 2783              	.L171:
 530:Drivers/BSP/Components/sx1276/sx1276.c ****             }
 2784              		.loc 1 530 0 is_stmt 1
 2785 01d8 564A     		ldr	r2, .L189
 2786 01da 4C23     		movs	r3, #76
 2787 01dc 0021     		movs	r1, #0
 2788 01de D154     		strb	r1, [r2, r3]
 2789              	.L172:
 534:Drivers/BSP/Components/sx1276/sx1276.c ****                            RFLR_MODEMCONFIG1_BW_MASK &
 2790              		.loc 1 534 0
 2791 01e0 1D20     		movs	r0, #29
 2792 01e2 FFF7FEFF 		bl	SX1276Read
 2793              	.LVL360:
 538:Drivers/BSP/Components/sx1276/sx1276.c ****                            fixLen );
 2794              		.loc 1 538 0
 2795 01e6 2901     		lsls	r1, r5, #4
 2796 01e8 C9B2     		uxtb	r1, r1
 2797 01ea 029B     		ldr	r3, [sp, #8]
 2798 01ec 5B00     		lsls	r3, r3, #1
 2799 01ee DBB2     		uxtb	r3, r3
 2800 01f0 1943     		orrs	r1, r3
 2801 01f2 4B46     		mov	r3, r9
 2802 01f4 1943     		orrs	r1, r3
 533:Drivers/BSP/Components/sx1276/sx1276.c ****                          ( SX1276Read( REG_LR_MODEMCONFIG1 ) &
 2803              		.loc 1 533 0
 2804 01f6 1D20     		movs	r0, #29
 2805 01f8 FFF7FEFF 		bl	SX1276Write
 2806              	.LVL361:
 542:Drivers/BSP/Components/sx1276/sx1276.c ****                            RFLR_MODEMCONFIG2_SF_MASK &
 2807              		.loc 1 542 0
 2808 01fc 1E20     		movs	r0, #30
 2809 01fe FFF7FEFF 		bl	SX1276Read
 2810              	.LVL362:
 544:Drivers/BSP/Components/sx1276/sx1276.c ****                            RFLR_MODEMCONFIG2_SYMBTIMEOUTMSB_MASK ) |
 2811              		.loc 1 544 0
 2812 0202 0821     		movs	r1, #8
 2813 0204 0140     		ands	r1, r0
 546:Drivers/BSP/Components/sx1276/sx1276.c ****                            ( ( symbTimeout >> 8 ) & ~RFLR_MODEMCONFIG2_SYMBTIMEOUTMSB_MASK ) );
 2814              		.loc 1 546 0
 2815 0206 2301     		lsls	r3, r4, #4
 2816 0208 DBB2     		uxtb	r3, r3
 545:Drivers/BSP/Components/sx1276/sx1276.c ****                            ( datarate << 4 ) | ( crcOn << 2 ) |
 2817              		.loc 1 545 0
 2818 020a 1943     		orrs	r1, r3
ARM GAS  /var/folders/2m/zqg86yyd4hbf56w83tkxjpvr0000gn/T//ccRNesxV.s 			page 89


 546:Drivers/BSP/Components/sx1276/sx1276.c ****                            ( ( symbTimeout >> 8 ) & ~RFLR_MODEMCONFIG2_SYMBTIMEOUTMSB_MASK ) );
 2819              		.loc 1 546 0
 2820 020c BF00     		lsls	r7, r7, #2
 2821 020e FFB2     		uxtb	r7, r7
 2822 0210 3943     		orrs	r1, r7
 547:Drivers/BSP/Components/sx1276/sx1276.c **** 
 2823              		.loc 1 547 0
 2824 0212 069F     		ldr	r7, [sp, #24]
 2825 0214 3A0A     		lsrs	r2, r7, #8
 2826 0216 0323     		movs	r3, #3
 2827 0218 1340     		ands	r3, r2
 541:Drivers/BSP/Components/sx1276/sx1276.c ****                          ( SX1276Read( REG_LR_MODEMCONFIG2 ) &
 2828              		.loc 1 541 0
 2829 021a 1943     		orrs	r1, r3
 2830 021c 1E20     		movs	r0, #30
 2831 021e FFF7FEFF 		bl	SX1276Write
 2832              	.LVL363:
 550:Drivers/BSP/Components/sx1276/sx1276.c ****                            RFLR_MODEMCONFIG3_LOWDATARATEOPTIMIZE_MASK ) |
 2833              		.loc 1 550 0
 2834 0222 2620     		movs	r0, #38
 2835 0224 FFF7FEFF 		bl	SX1276Read
 2836              	.LVL364:
 2837 0228 41B2     		sxtb	r1, r0
 2838 022a 0823     		movs	r3, #8
 2839 022c 9943     		bics	r1, r3
 552:Drivers/BSP/Components/sx1276/sx1276.c **** 
 2840              		.loc 1 552 0
 2841 022e 414A     		ldr	r2, .L189
 2842 0230 4433     		adds	r3, r3, #68
 2843 0232 D35C     		ldrb	r3, [r2, r3]
 2844 0234 DB00     		lsls	r3, r3, #3
 551:Drivers/BSP/Components/sx1276/sx1276.c ****                            ( SX1276.Settings.LoRa.LowDatarateOptimize << 3 ) );
 2845              		.loc 1 551 0
 2846 0236 1943     		orrs	r1, r3
 549:Drivers/BSP/Components/sx1276/sx1276.c ****                          ( SX1276Read( REG_LR_MODEMCONFIG3 ) &
 2847              		.loc 1 549 0
 2848 0238 C9B2     		uxtb	r1, r1
 2849 023a 2620     		movs	r0, #38
 2850 023c FFF7FEFF 		bl	SX1276Write
 2851              	.LVL365:
 554:Drivers/BSP/Components/sx1276/sx1276.c **** 
 2852              		.loc 1 554 0
 2853 0240 F9B2     		uxtb	r1, r7
 2854 0242 1F20     		movs	r0, #31
 2855 0244 FFF7FEFF 		bl	SX1276Write
 2856              	.LVL366:
 556:Drivers/BSP/Components/sx1276/sx1276.c ****             SX1276Write( REG_LR_PREAMBLELSB, ( uint8_t )( preambleLen & 0xFF ) );
 2857              		.loc 1 556 0
 2858 0248 310A     		lsrs	r1, r6, #8
 2859 024a 2020     		movs	r0, #32
 2860 024c FFF7FEFF 		bl	SX1276Write
 2861              	.LVL367:
 557:Drivers/BSP/Components/sx1276/sx1276.c **** 
 2862              		.loc 1 557 0
 2863 0250 F1B2     		uxtb	r1, r6
 2864 0252 2120     		movs	r0, #33
 2865 0254 FFF7FEFF 		bl	SX1276Write
ARM GAS  /var/folders/2m/zqg86yyd4hbf56w83tkxjpvr0000gn/T//ccRNesxV.s 			page 90


 2866              	.LVL368:
 559:Drivers/BSP/Components/sx1276/sx1276.c ****             {
 2867              		.loc 1 559 0
 2868 0258 4B46     		mov	r3, r9
 2869 025a 002B     		cmp	r3, #0
 2870 025c 2BD1     		bne	.L184
 2871              	.L173:
 564:Drivers/BSP/Components/sx1276/sx1276.c ****             {
 2872              		.loc 1 564 0
 2873 025e 354A     		ldr	r2, .L189
 2874 0260 5323     		movs	r3, #83
 2875 0262 D35C     		ldrb	r3, [r2, r3]
 2876 0264 002B     		cmp	r3, #0
 2877 0266 2BD1     		bne	.L185
 2878              	.L174:
 570:Drivers/BSP/Components/sx1276/sx1276.c ****             {
 2879              		.loc 1 570 0
 2880 0268 092D     		cmp	r5, #9
 2881 026a 3AD0     		beq	.L186
 2882              	.L175:
 576:Drivers/BSP/Components/sx1276/sx1276.c ****             {
 2883              		.loc 1 576 0
 2884 026c 092D     		cmp	r5, #9
 2885 026e 46D0     		beq	.L187
 585:Drivers/BSP/Components/sx1276/sx1276.c ****             }
 2886              		.loc 1 585 0
 2887 0270 0321     		movs	r1, #3
 2888 0272 3620     		movs	r0, #54
 2889 0274 FFF7FEFF 		bl	SX1276Write
 2890              	.LVL369:
 2891              	.L176:
 588:Drivers/BSP/Components/sx1276/sx1276.c ****             {
 2892              		.loc 1 588 0
 2893 0278 062C     		cmp	r4, #6
 2894 027a 49D0     		beq	.L188
 600:Drivers/BSP/Components/sx1276/sx1276.c ****                              RFLR_DETECTIONOPTIMIZE_MASK ) |
 2895              		.loc 1 600 0
 2896 027c 3120     		movs	r0, #49
 2897 027e FFF7FEFF 		bl	SX1276Read
 2898              	.LVL370:
 2899 0282 41B2     		sxtb	r1, r0
 2900 0284 0723     		movs	r3, #7
 2901 0286 9943     		bics	r1, r3
 601:Drivers/BSP/Components/sx1276/sx1276.c ****                              RFLR_DETECTIONOPTIMIZE_SF7_TO_SF12 );
 2902              		.loc 1 601 0
 2903 0288 0323     		movs	r3, #3
 2904 028a 1943     		orrs	r1, r3
 599:Drivers/BSP/Components/sx1276/sx1276.c ****                              ( SX1276Read( REG_LR_DETECTOPTIMIZE ) &
 2905              		.loc 1 599 0
 2906 028c C9B2     		uxtb	r1, r1
 2907 028e 3120     		movs	r0, #49
 2908 0290 FFF7FEFF 		bl	SX1276Write
 2909              	.LVL371:
 603:Drivers/BSP/Components/sx1276/sx1276.c ****                              RFLR_DETECTIONTHRESH_SF7_TO_SF12 );
 2910              		.loc 1 603 0
 2911 0294 0A21     		movs	r1, #10
 2912 0296 3720     		movs	r0, #55
ARM GAS  /var/folders/2m/zqg86yyd4hbf56w83tkxjpvr0000gn/T//ccRNesxV.s 			page 91


 2913 0298 FFF7FEFF 		bl	SX1276Write
 2914              	.LVL372:
 609:Drivers/BSP/Components/sx1276/sx1276.c **** 
 2915              		.loc 1 609 0
 2916 029c DDE6     		b	.L159
 2917              	.L182:
 523:Drivers/BSP/Components/sx1276/sx1276.c ****                 ( ( bandwidth == 8 ) && ( datarate == 12 ) ) )
 2918              		.loc 1 523 0 discriminator 1
 2919 029e 2300     		movs	r3, r4
 2920 02a0 0B3B     		subs	r3, r3, #11
 2921 02a2 012B     		cmp	r3, #1
 2922 02a4 96D8     		bhi	.L169
 2923              	.L170:
 526:Drivers/BSP/Components/sx1276/sx1276.c ****             }
 2924              		.loc 1 526 0
 2925 02a6 234A     		ldr	r2, .L189
 2926 02a8 4C23     		movs	r3, #76
 2927 02aa 0121     		movs	r1, #1
 2928 02ac D154     		strb	r1, [r2, r3]
 2929 02ae 97E7     		b	.L172
 2930              	.L183:
 524:Drivers/BSP/Components/sx1276/sx1276.c ****             {
 2931              		.loc 1 524 0
 2932 02b0 0C2C     		cmp	r4, #12
 2933 02b2 91D1     		bne	.L171
 2934 02b4 F7E7     		b	.L170
 2935              	.L184:
 561:Drivers/BSP/Components/sx1276/sx1276.c ****             }
 2936              		.loc 1 561 0
 2937 02b6 0099     		ldr	r1, [sp]
 2938 02b8 2220     		movs	r0, #34
 2939 02ba FFF7FEFF 		bl	SX1276Write
 2940              	.LVL373:
 2941 02be CEE7     		b	.L173
 2942              	.L185:
 566:Drivers/BSP/Components/sx1276/sx1276.c ****                 SX1276Write( REG_LR_HOPPERIOD, SX1276.Settings.LoRa.HopPeriod );
 2943              		.loc 1 566 0
 2944 02c0 4420     		movs	r0, #68
 2945 02c2 FFF7FEFF 		bl	SX1276Read
 2946              	.LVL374:
 2947 02c6 8021     		movs	r1, #128
 2948 02c8 4942     		rsbs	r1, r1, #0
 2949 02ca 0143     		orrs	r1, r0
 2950 02cc C9B2     		uxtb	r1, r1
 2951 02ce 4420     		movs	r0, #68
 2952 02d0 FFF7FEFF 		bl	SX1276Write
 2953              	.LVL375:
 567:Drivers/BSP/Components/sx1276/sx1276.c ****             }
 2954              		.loc 1 567 0
 2955 02d4 174A     		ldr	r2, .L189
 2956 02d6 5423     		movs	r3, #84
 2957 02d8 D15C     		ldrb	r1, [r2, r3]
 2958 02da 2420     		movs	r0, #36
 2959 02dc FFF7FEFF 		bl	SX1276Write
 2960              	.LVL376:
 2961 02e0 C2E7     		b	.L174
 2962              	.L186:
ARM GAS  /var/folders/2m/zqg86yyd4hbf56w83tkxjpvr0000gn/T//ccRNesxV.s 			page 92


 570:Drivers/BSP/Components/sx1276/sx1276.c ****             {
 2963              		.loc 1 570 0 discriminator 1
 2964 02e2 144B     		ldr	r3, .L189
 2965 02e4 9A68     		ldr	r2, [r3, #8]
 2966 02e6 184B     		ldr	r3, .L189+20
 2967 02e8 9A42     		cmp	r2, r3
 2968 02ea BFD9     		bls	.L175
 573:Drivers/BSP/Components/sx1276/sx1276.c ****                 SX1276Write( REG_LR_TEST3A, 0x64 );
 2969              		.loc 1 573 0
 2970 02ec 0221     		movs	r1, #2
 2971 02ee 3620     		movs	r0, #54
 2972 02f0 FFF7FEFF 		bl	SX1276Write
 2973              	.LVL377:
 574:Drivers/BSP/Components/sx1276/sx1276.c ****             }
 2974              		.loc 1 574 0
 2975 02f4 6421     		movs	r1, #100
 2976 02f6 3A20     		movs	r0, #58
 2977 02f8 FFF7FEFF 		bl	SX1276Write
 2978              	.LVL378:
 2979 02fc BCE7     		b	.L176
 2980              	.L187:
 579:Drivers/BSP/Components/sx1276/sx1276.c ****                 SX1276Write( REG_LR_TEST3A, 0x7F );
 2981              		.loc 1 579 0
 2982 02fe 0221     		movs	r1, #2
 2983 0300 3620     		movs	r0, #54
 2984 0302 FFF7FEFF 		bl	SX1276Write
 2985              	.LVL379:
 580:Drivers/BSP/Components/sx1276/sx1276.c ****             }
 2986              		.loc 1 580 0
 2987 0306 7F21     		movs	r1, #127
 2988 0308 3A20     		movs	r0, #58
 2989 030a FFF7FEFF 		bl	SX1276Write
 2990              	.LVL380:
 2991 030e B3E7     		b	.L176
 2992              	.L188:
 591:Drivers/BSP/Components/sx1276/sx1276.c ****                                RFLR_DETECTIONOPTIMIZE_MASK ) |
 2993              		.loc 1 591 0
 2994 0310 3120     		movs	r0, #49
 2995 0312 FFF7FEFF 		bl	SX1276Read
 2996              	.LVL381:
 2997 0316 40B2     		sxtb	r0, r0
 2998 0318 0723     		movs	r3, #7
 2999 031a 9843     		bics	r0, r3
 592:Drivers/BSP/Components/sx1276/sx1276.c ****                                RFLR_DETECTIONOPTIMIZE_SF6 );
 3000              		.loc 1 592 0
 3001 031c 0521     		movs	r1, #5
 3002 031e 0143     		orrs	r1, r0
 590:Drivers/BSP/Components/sx1276/sx1276.c ****                              ( SX1276Read( REG_LR_DETECTOPTIMIZE ) &
 3003              		.loc 1 590 0
 3004 0320 C9B2     		uxtb	r1, r1
 3005 0322 3120     		movs	r0, #49
 3006 0324 FFF7FEFF 		bl	SX1276Write
 3007              	.LVL382:
 594:Drivers/BSP/Components/sx1276/sx1276.c ****                              RFLR_DETECTIONTHRESH_SF6 );
 3008              		.loc 1 594 0
 3009 0328 0C21     		movs	r1, #12
 3010 032a 3720     		movs	r0, #55
ARM GAS  /var/folders/2m/zqg86yyd4hbf56w83tkxjpvr0000gn/T//ccRNesxV.s 			page 93


 3011 032c FFF7FEFF 		bl	SX1276Write
 3012              	.LVL383:
 3013 0330 93E6     		b	.L159
 3014              	.L190:
 3015 0332 C046     		.align	2
 3016              	.L189:
 3017 0334 00000000 		.word	SX1276
 3018 0338 0000F03F 		.word	1072693248
 3019 033c 00002040 		.word	1075838976
 3020 0340 00408F40 		.word	1083129856
 3021 0344 80847E41 		.word	1098810496
 3022 0348 40DD4A1F 		.word	525000000
 3023              		.cfi_endproc
 3024              	.LFE48:
 3026              		.section	.text.SX1276SetTxConfig,"ax",%progbits
 3027              		.align	1
 3028              		.global	SX1276SetTxConfig
 3029              		.syntax unified
 3030              		.code	16
 3031              		.thumb_func
 3032              		.fpu softvfp
 3034              	SX1276SetTxConfig:
 3035              	.LFB49:
 616:Drivers/BSP/Components/sx1276/sx1276.c ****     SX1276SetModem( modem );
 3036              		.loc 1 616 0
 3037              		.cfi_startproc
 3038              		@ args = 36, pretend = 0, frame = 16
 3039              		@ frame_needed = 0, uses_anonymous_args = 0
 3040              	.LVL384:
 3041 0000 F0B5     		push	{r4, r5, r6, r7, lr}
 3042              	.LCFI27:
 3043              		.cfi_def_cfa_offset 20
 3044              		.cfi_offset 4, -20
 3045              		.cfi_offset 5, -16
 3046              		.cfi_offset 6, -12
 3047              		.cfi_offset 7, -8
 3048              		.cfi_offset 14, -4
 3049 0002 DE46     		mov	lr, fp
 3050 0004 5746     		mov	r7, r10
 3051 0006 4E46     		mov	r6, r9
 3052 0008 4546     		mov	r5, r8
 3053 000a E0B5     		push	{r5, r6, r7, lr}
 3054              	.LCFI28:
 3055              		.cfi_def_cfa_offset 36
 3056              		.cfi_offset 8, -36
 3057              		.cfi_offset 9, -32
 3058              		.cfi_offset 10, -28
 3059              		.cfi_offset 11, -24
 3060 000c 85B0     		sub	sp, sp, #20
 3061              	.LCFI29:
 3062              		.cfi_def_cfa_offset 56
 3063 000e 0091     		str	r1, [sp]
 3064 0010 0292     		str	r2, [sp, #8]
 3065 0012 1C00     		movs	r4, r3
 3066 0014 0EAB     		add	r3, sp, #56
 3067              	.LVL385:
 3068 0016 20CB     		ldmia	r3!, {r5}
ARM GAS  /var/folders/2m/zqg86yyd4hbf56w83tkxjpvr0000gn/T//ccRNesxV.s 			page 94


 3069              	.LVL386:
 3070 0018 1A78     		ldrb	r2, [r3]
 3071              	.LVL387:
 3072 001a 9146     		mov	r9, r2
 3073 001c 10AB     		add	r3, sp, #64
 3074              	.LVL388:
 3075 001e 1E88     		ldrh	r6, [r3]
 3076 0020 11AB     		add	r3, sp, #68
 3077              	.LVL389:
 3078 0022 1A78     		ldrb	r2, [r3]
 3079 0024 9046     		mov	r8, r2
 3080 0026 12AB     		add	r3, sp, #72
 3081              	.LVL390:
 3082 0028 1F78     		ldrb	r7, [r3]
 3083 002a 13AB     		add	r3, sp, #76
 3084              	.LVL391:
 3085 002c 1A78     		ldrb	r2, [r3]
 3086 002e 9246     		mov	r10, r2
 3087 0030 14AB     		add	r3, sp, #80
 3088              	.LVL392:
 3089 0032 1A78     		ldrb	r2, [r3]
 3090 0034 0392     		str	r2, [sp, #12]
 3091 0036 15AB     		add	r3, sp, #84
 3092              	.LVL393:
 3093 0038 1A78     		ldrb	r2, [r3]
 3094 003a 9346     		mov	fp, r2
 617:Drivers/BSP/Components/sx1276/sx1276.c **** 
 3095              		.loc 1 617 0
 3096 003c 0190     		str	r0, [sp, #4]
 3097 003e FFF7FEFF 		bl	SX1276SetModem
 3098              	.LVL394:
 619:Drivers/BSP/Components/sx1276/sx1276.c **** 
 3099              		.loc 1 619 0
 3100 0042 8B4B     		ldr	r3, .L212
 3101 0044 1B68     		ldr	r3, [r3]
 3102 0046 DB68     		ldr	r3, [r3, #12]
 3103 0048 0098     		ldr	r0, [sp]
 3104 004a 9847     		blx	r3
 3105              	.LVL395:
 621:Drivers/BSP/Components/sx1276/sx1276.c ****     {
 3106              		.loc 1 621 0
 3107 004c 019B     		ldr	r3, [sp, #4]
 3108 004e 002B     		cmp	r3, #0
 3109 0050 08D0     		beq	.L193
 3110 0052 012B     		cmp	r3, #1
 3111 0054 64D0     		beq	.L194
 3112              	.LVL396:
 3113              	.L191:
 742:Drivers/BSP/Components/sx1276/sx1276.c **** 
 3114              		.loc 1 742 0
 3115 0056 05B0     		add	sp, sp, #20
 3116              		@ sp needed
 3117 0058 3CBC     		pop	{r2, r3, r4, r5}
 3118 005a 9046     		mov	r8, r2
 3119 005c 9946     		mov	r9, r3
 3120 005e A246     		mov	r10, r4
 3121 0060 AB46     		mov	fp, r5
ARM GAS  /var/folders/2m/zqg86yyd4hbf56w83tkxjpvr0000gn/T//ccRNesxV.s 			page 95


 3122 0062 F0BD     		pop	{r4, r5, r6, r7, pc}
 3123              	.LVL397:
 3124              	.L193:
 625:Drivers/BSP/Components/sx1276/sx1276.c ****             SX1276.Settings.Fsk.Fdev = fdev;
 3125              		.loc 1 625 0
 3126 0064 834B     		ldr	r3, .L212+4
 3127 0066 6A46     		mov	r2, sp
 3128 0068 1278     		ldrb	r2, [r2]
 3129 006a 1A73     		strb	r2, [r3, #12]
 626:Drivers/BSP/Components/sx1276/sx1276.c ****             SX1276.Settings.Fsk.Bandwidth = bandwidth;
 3130              		.loc 1 626 0
 3131 006c 0298     		ldr	r0, [sp, #8]
 3132 006e 1861     		str	r0, [r3, #16]
 627:Drivers/BSP/Components/sx1276/sx1276.c ****             SX1276.Settings.Fsk.Datarate = datarate;
 3133              		.loc 1 627 0
 3134 0070 5C61     		str	r4, [r3, #20]
 628:Drivers/BSP/Components/sx1276/sx1276.c ****             SX1276.Settings.Fsk.PreambleLen = preambleLen;
 3135              		.loc 1 628 0
 3136 0072 DD61     		str	r5, [r3, #28]
 629:Drivers/BSP/Components/sx1276/sx1276.c ****             SX1276.Settings.Fsk.FixLen = fixLen;
 3137              		.loc 1 629 0
 3138 0074 1E84     		strh	r6, [r3, #32]
 630:Drivers/BSP/Components/sx1276/sx1276.c ****             SX1276.Settings.Fsk.CrcOn = crcOn;
 3139              		.loc 1 630 0
 3140 0076 2222     		movs	r2, #34
 3141 0078 4146     		mov	r1, r8
 3142 007a 9954     		strb	r1, [r3, r2]
 631:Drivers/BSP/Components/sx1276/sx1276.c ****             SX1276.Settings.Fsk.IqInverted = iqInverted;
 3143              		.loc 1 631 0
 3144 007c 0232     		adds	r2, r2, #2
 3145 007e 9F54     		strb	r7, [r3, r2]
 632:Drivers/BSP/Components/sx1276/sx1276.c ****             SX1276.Settings.Fsk.TxTimeout = timeout;
 3146              		.loc 1 632 0
 3147 0080 0132     		adds	r2, r2, #1
 3148 0082 5946     		mov	r1, fp
 3149 0084 9954     		strb	r1, [r3, r2]
 633:Drivers/BSP/Components/sx1276/sx1276.c **** 
 3150              		.loc 1 633 0
 3151 0086 169A     		ldr	r2, [sp, #88]
 3152 0088 9A62     		str	r2, [r3, #40]
 635:Drivers/BSP/Components/sx1276/sx1276.c ****             SX1276Write( REG_FDEVMSB, ( uint8_t )( fdev >> 8 ) );
 3153              		.loc 1 635 0
 3154 008a FFF7FEFF 		bl	__aeabi_ui2d
 3155              	.LVL398:
 3156 008e 0022     		movs	r2, #0
 3157 0090 794B     		ldr	r3, .L212+8
 3158 0092 FFF7FEFF 		bl	__aeabi_ddiv
 3159              	.LVL399:
 3160 0096 FFF7FEFF 		bl	__aeabi_d2uiz
 3161              	.LVL400:
 3162 009a 84B2     		uxth	r4, r0
 3163              	.LVL401:
 636:Drivers/BSP/Components/sx1276/sx1276.c ****             SX1276Write( REG_FDEVLSB, ( uint8_t )( fdev & 0xFF ) );
 3164              		.loc 1 636 0
 3165 009c 210A     		lsrs	r1, r4, #8
 3166 009e 0420     		movs	r0, #4
 3167 00a0 FFF7FEFF 		bl	SX1276Write
ARM GAS  /var/folders/2m/zqg86yyd4hbf56w83tkxjpvr0000gn/T//ccRNesxV.s 			page 96


 3168              	.LVL402:
 637:Drivers/BSP/Components/sx1276/sx1276.c **** 
 3169              		.loc 1 637 0
 3170 00a4 E1B2     		uxtb	r1, r4
 3171 00a6 0520     		movs	r0, #5
 3172 00a8 FFF7FEFF 		bl	SX1276Write
 3173              	.LVL403:
 639:Drivers/BSP/Components/sx1276/sx1276.c ****             SX1276Write( REG_BITRATEMSB, ( uint8_t )( datarate >> 8 ) );
 3174              		.loc 1 639 0
 3175 00ac 2800     		movs	r0, r5
 3176 00ae FFF7FEFF 		bl	__aeabi_ui2d
 3177              	.LVL404:
 3178 00b2 0200     		movs	r2, r0
 3179 00b4 0B00     		movs	r3, r1
 3180 00b6 0020     		movs	r0, #0
 3181 00b8 7049     		ldr	r1, .L212+12
 3182 00ba FFF7FEFF 		bl	__aeabi_ddiv
 3183              	.LVL405:
 3184 00be FFF7FEFF 		bl	__aeabi_d2uiz
 3185              	.LVL406:
 3186 00c2 84B2     		uxth	r4, r0
 3187              	.LVL407:
 640:Drivers/BSP/Components/sx1276/sx1276.c ****             SX1276Write( REG_BITRATELSB, ( uint8_t )( datarate & 0xFF ) );
 3188              		.loc 1 640 0
 3189 00c4 210A     		lsrs	r1, r4, #8
 3190 00c6 0220     		movs	r0, #2
 3191 00c8 FFF7FEFF 		bl	SX1276Write
 3192              	.LVL408:
 641:Drivers/BSP/Components/sx1276/sx1276.c **** 
 3193              		.loc 1 641 0
 3194 00cc E1B2     		uxtb	r1, r4
 3195 00ce 0320     		movs	r0, #3
 3196 00d0 FFF7FEFF 		bl	SX1276Write
 3197              	.LVL409:
 643:Drivers/BSP/Components/sx1276/sx1276.c ****             SX1276Write( REG_PREAMBLELSB, preambleLen & 0xFF );
 3198              		.loc 1 643 0
 3199 00d4 310A     		lsrs	r1, r6, #8
 3200 00d6 2520     		movs	r0, #37
 3201 00d8 FFF7FEFF 		bl	SX1276Write
 3202              	.LVL410:
 644:Drivers/BSP/Components/sx1276/sx1276.c **** 
 3203              		.loc 1 644 0
 3204 00dc F1B2     		uxtb	r1, r6
 3205 00de 2620     		movs	r0, #38
 3206 00e0 FFF7FEFF 		bl	SX1276Write
 3207              	.LVL411:
 647:Drivers/BSP/Components/sx1276/sx1276.c ****                            RF_PACKETCONFIG1_CRC_MASK &
 3208              		.loc 1 647 0
 3209 00e4 3020     		movs	r0, #48
 3210 00e6 FFF7FEFF 		bl	SX1276Read
 3211              	.LVL412:
 3212 00ea 40B2     		sxtb	r0, r0
 648:Drivers/BSP/Components/sx1276/sx1276.c ****                            RF_PACKETCONFIG1_PACKETFORMAT_MASK ) |
 3213              		.loc 1 648 0
 3214 00ec 6F21     		movs	r1, #111
 3215 00ee 0140     		ands	r1, r0
 649:Drivers/BSP/Components/sx1276/sx1276.c ****                            ( ( fixLen == 1 ) ? RF_PACKETCONFIG1_PACKETFORMAT_FIXED : RF_PACKETCONFI
ARM GAS  /var/folders/2m/zqg86yyd4hbf56w83tkxjpvr0000gn/T//ccRNesxV.s 			page 97


 3216              		.loc 1 649 0
 3217 00f0 4346     		mov	r3, r8
 3218 00f2 002B     		cmp	r3, #0
 3219 00f4 11D0     		beq	.L205
 3220 00f6 0023     		movs	r3, #0
 3221              	.L195:
 649:Drivers/BSP/Components/sx1276/sx1276.c ****                            ( ( fixLen == 1 ) ? RF_PACKETCONFIG1_PACKETFORMAT_FIXED : RF_PACKETCONFI
 3222              		.loc 1 649 0 is_stmt 0 discriminator 4
 3223 00f8 1943     		orrs	r1, r3
 651:Drivers/BSP/Components/sx1276/sx1276.c ****             SX1276Write( REG_PACKETCONFIG2, ( SX1276Read( REG_PACKETCONFIG2 ) | RF_PACKETCONFIG2_DA
 3224              		.loc 1 651 0 is_stmt 1 discriminator 4
 3225 00fa 3F01     		lsls	r7, r7, #4
 650:Drivers/BSP/Components/sx1276/sx1276.c ****                            ( crcOn << 4 ) );
 3226              		.loc 1 650 0 discriminator 4
 3227 00fc 3943     		orrs	r1, r7
 646:Drivers/BSP/Components/sx1276/sx1276.c ****                          ( SX1276Read( REG_PACKETCONFIG1 ) &
 3228              		.loc 1 646 0 discriminator 4
 3229 00fe C9B2     		uxtb	r1, r1
 3230 0100 3020     		movs	r0, #48
 3231 0102 FFF7FEFF 		bl	SX1276Write
 3232              	.LVL413:
 652:Drivers/BSP/Components/sx1276/sx1276.c ****         }
 3233              		.loc 1 652 0 discriminator 4
 3234 0106 3120     		movs	r0, #49
 3235 0108 FFF7FEFF 		bl	SX1276Read
 3236              	.LVL414:
 3237 010c 4021     		movs	r1, #64
 3238 010e 0143     		orrs	r1, r0
 3239 0110 C9B2     		uxtb	r1, r1
 3240 0112 3120     		movs	r0, #49
 3241 0114 FFF7FEFF 		bl	SX1276Write
 3242              	.LVL415:
 654:Drivers/BSP/Components/sx1276/sx1276.c ****     case MODEM_LORA:
 3243              		.loc 1 654 0 discriminator 4
 3244 0118 9DE7     		b	.L191
 3245              	.L205:
 649:Drivers/BSP/Components/sx1276/sx1276.c ****                            ( ( fixLen == 1 ) ? RF_PACKETCONFIG1_PACKETFORMAT_FIXED : RF_PACKETCONFI
 3246              		.loc 1 649 0
 3247 011a 8023     		movs	r3, #128
 3248 011c 5B42     		rsbs	r3, r3, #0
 3249 011e EBE7     		b	.L195
 3250              	.LVL416:
 3251              	.L194:
 657:Drivers/BSP/Components/sx1276/sx1276.c ****             if( bandwidth > 2 )
 3252              		.loc 1 657 0
 3253 0120 544A     		ldr	r2, .L212+4
 3254 0122 4023     		movs	r3, #64
 3255 0124 6946     		mov	r1, sp
 3256 0126 0978     		ldrb	r1, [r1]
 3257 0128 D154     		strb	r1, [r2, r3]
 658:Drivers/BSP/Components/sx1276/sx1276.c ****             {
 3258              		.loc 1 658 0
 3259 012a 022C     		cmp	r4, #2
 3260 012c 00D9     		bls	.L196
 3261              	.L197:
 3262 012e FEE7     		b	.L197
 3263              	.L196:
ARM GAS  /var/folders/2m/zqg86yyd4hbf56w83tkxjpvr0000gn/T//ccRNesxV.s 			page 98


 663:Drivers/BSP/Components/sx1276/sx1276.c ****             SX1276.Settings.LoRa.Bandwidth = bandwidth;
 3264              		.loc 1 663 0
 3265 0130 0734     		adds	r4, r4, #7
 3266              	.LVL417:
 664:Drivers/BSP/Components/sx1276/sx1276.c ****             SX1276.Settings.LoRa.Datarate = datarate;
 3267              		.loc 1 664 0
 3268 0132 504B     		ldr	r3, .L212+4
 3269 0134 5C64     		str	r4, [r3, #68]
 665:Drivers/BSP/Components/sx1276/sx1276.c ****             SX1276.Settings.LoRa.Coderate = coderate;
 3270              		.loc 1 665 0
 3271 0136 9D64     		str	r5, [r3, #72]
 666:Drivers/BSP/Components/sx1276/sx1276.c ****             SX1276.Settings.LoRa.PreambleLen = preambleLen;
 3272              		.loc 1 666 0
 3273 0138 4D22     		movs	r2, #77
 3274 013a 4946     		mov	r1, r9
 3275 013c 9954     		strb	r1, [r3, r2]
 667:Drivers/BSP/Components/sx1276/sx1276.c ****             SX1276.Settings.LoRa.FixLen = fixLen;
 3276              		.loc 1 667 0
 3277 013e 0132     		adds	r2, r2, #1
 3278 0140 9E52     		strh	r6, [r3, r2]
 668:Drivers/BSP/Components/sx1276/sx1276.c ****             SX1276.Settings.LoRa.FreqHopOn = freqHopOn;
 3279              		.loc 1 668 0
 3280 0142 0232     		adds	r2, r2, #2
 3281 0144 4146     		mov	r1, r8
 3282 0146 9954     		strb	r1, [r3, r2]
 669:Drivers/BSP/Components/sx1276/sx1276.c ****             SX1276.Settings.LoRa.HopPeriod = hopPeriod;
 3283              		.loc 1 669 0
 3284 0148 0332     		adds	r2, r2, #3
 3285 014a 5146     		mov	r1, r10
 3286 014c 9954     		strb	r1, [r3, r2]
 670:Drivers/BSP/Components/sx1276/sx1276.c ****             SX1276.Settings.LoRa.CrcOn = crcOn;
 3287              		.loc 1 670 0
 3288 014e 0132     		adds	r2, r2, #1
 3289 0150 6946     		mov	r1, sp
 3290 0152 097B     		ldrb	r1, [r1, #12]
 3291 0154 9954     		strb	r1, [r3, r2]
 671:Drivers/BSP/Components/sx1276/sx1276.c ****             SX1276.Settings.LoRa.IqInverted = iqInverted;
 3292              		.loc 1 671 0
 3293 0156 023A     		subs	r2, r2, #2
 3294 0158 9F54     		strb	r7, [r3, r2]
 672:Drivers/BSP/Components/sx1276/sx1276.c ****             SX1276.Settings.LoRa.TxTimeout = timeout;
 3295              		.loc 1 672 0
 3296 015a 0332     		adds	r2, r2, #3
 3297 015c 5946     		mov	r1, fp
 3298 015e 9954     		strb	r1, [r3, r2]
 673:Drivers/BSP/Components/sx1276/sx1276.c **** 
 3299              		.loc 1 673 0
 3300 0160 169A     		ldr	r2, [sp, #88]
 3301 0162 9A65     		str	r2, [r3, #88]
 675:Drivers/BSP/Components/sx1276/sx1276.c ****             {
 3302              		.loc 1 675 0
 3303 0164 0C2D     		cmp	r5, #12
 3304 0166 03D8     		bhi	.L206
 679:Drivers/BSP/Components/sx1276/sx1276.c ****             {
 3305              		.loc 1 679 0
 3306 0168 052D     		cmp	r5, #5
 3307 016a 02D8     		bhi	.L198
ARM GAS  /var/folders/2m/zqg86yyd4hbf56w83tkxjpvr0000gn/T//ccRNesxV.s 			page 99


 681:Drivers/BSP/Components/sx1276/sx1276.c ****             }
 3308              		.loc 1 681 0
 3309 016c 0625     		movs	r5, #6
 3310 016e 00E0     		b	.L198
 3311              	.L206:
 677:Drivers/BSP/Components/sx1276/sx1276.c ****             }
 3312              		.loc 1 677 0
 3313 0170 0C25     		movs	r5, #12
 3314              	.L198:
 3315              	.LVL418:
 683:Drivers/BSP/Components/sx1276/sx1276.c ****                 ( ( bandwidth == 8 ) && ( datarate == 12 ) ) )
 3316              		.loc 1 683 0
 3317 0172 072C     		cmp	r4, #7
 3318 0174 4ED0     		beq	.L208
 3319              	.L199:
 683:Drivers/BSP/Components/sx1276/sx1276.c ****                 ( ( bandwidth == 8 ) && ( datarate == 12 ) ) )
 3320              		.loc 1 683 0 is_stmt 0 discriminator 3
 3321 0176 082C     		cmp	r4, #8
 3322 0178 55D0     		beq	.L209
 3323              	.L201:
 690:Drivers/BSP/Components/sx1276/sx1276.c ****             }
 3324              		.loc 1 690 0 is_stmt 1
 3325 017a 3E4A     		ldr	r2, .L212+4
 3326 017c 4C23     		movs	r3, #76
 3327 017e 0021     		movs	r1, #0
 3328 0180 D154     		strb	r1, [r2, r3]
 3329              	.L202:
 693:Drivers/BSP/Components/sx1276/sx1276.c ****             {
 3330              		.loc 1 693 0
 3331 0182 5346     		mov	r3, r10
 3332 0184 002B     		cmp	r3, #0
 3333 0186 51D1     		bne	.L210
 3334              	.L203:
 700:Drivers/BSP/Components/sx1276/sx1276.c ****                            RFLR_MODEMCONFIG1_BW_MASK &
 3335              		.loc 1 700 0
 3336 0188 1D20     		movs	r0, #29
 3337 018a FFF7FEFF 		bl	SX1276Read
 3338              	.LVL419:
 704:Drivers/BSP/Components/sx1276/sx1276.c ****                            fixLen );
 3339              		.loc 1 704 0
 3340 018e 2101     		lsls	r1, r4, #4
 3341 0190 C9B2     		uxtb	r1, r1
 3342 0192 4B46     		mov	r3, r9
 3343 0194 5B00     		lsls	r3, r3, #1
 3344 0196 DBB2     		uxtb	r3, r3
 3345 0198 1943     		orrs	r1, r3
 3346 019a 4346     		mov	r3, r8
 3347 019c 1943     		orrs	r1, r3
 699:Drivers/BSP/Components/sx1276/sx1276.c ****                          ( SX1276Read( REG_LR_MODEMCONFIG1 ) &
 3348              		.loc 1 699 0
 3349 019e 1D20     		movs	r0, #29
 3350 01a0 FFF7FEFF 		bl	SX1276Write
 3351              	.LVL420:
 708:Drivers/BSP/Components/sx1276/sx1276.c ****                            RFLR_MODEMCONFIG2_SF_MASK &
 3352              		.loc 1 708 0
 3353 01a4 1E20     		movs	r0, #30
 3354 01a6 FFF7FEFF 		bl	SX1276Read
ARM GAS  /var/folders/2m/zqg86yyd4hbf56w83tkxjpvr0000gn/T//ccRNesxV.s 			page 100


 3355              	.LVL421:
 709:Drivers/BSP/Components/sx1276/sx1276.c ****                            RFLR_MODEMCONFIG2_RXPAYLOADCRC_MASK ) |
 3356              		.loc 1 709 0
 3357 01aa 0B21     		movs	r1, #11
 3358 01ac 0140     		ands	r1, r0
 711:Drivers/BSP/Components/sx1276/sx1276.c **** 
 3359              		.loc 1 711 0
 3360 01ae 2B01     		lsls	r3, r5, #4
 3361 01b0 DBB2     		uxtb	r3, r3
 710:Drivers/BSP/Components/sx1276/sx1276.c ****                            ( datarate << 4 ) | ( crcOn << 2 ) );
 3362              		.loc 1 710 0
 3363 01b2 0B43     		orrs	r3, r1
 711:Drivers/BSP/Components/sx1276/sx1276.c **** 
 3364              		.loc 1 711 0
 3365 01b4 BF00     		lsls	r7, r7, #2
 3366 01b6 F9B2     		uxtb	r1, r7
 707:Drivers/BSP/Components/sx1276/sx1276.c ****                          ( SX1276Read( REG_LR_MODEMCONFIG2 ) &
 3367              		.loc 1 707 0
 3368 01b8 1943     		orrs	r1, r3
 3369 01ba 1E20     		movs	r0, #30
 3370 01bc FFF7FEFF 		bl	SX1276Write
 3371              	.LVL422:
 714:Drivers/BSP/Components/sx1276/sx1276.c ****                            RFLR_MODEMCONFIG3_LOWDATARATEOPTIMIZE_MASK ) |
 3372              		.loc 1 714 0
 3373 01c0 2620     		movs	r0, #38
 3374 01c2 FFF7FEFF 		bl	SX1276Read
 3375              	.LVL423:
 3376 01c6 41B2     		sxtb	r1, r0
 3377 01c8 0823     		movs	r3, #8
 3378 01ca 9943     		bics	r1, r3
 716:Drivers/BSP/Components/sx1276/sx1276.c **** 
 3379              		.loc 1 716 0
 3380 01cc 294A     		ldr	r2, .L212+4
 3381 01ce 4433     		adds	r3, r3, #68
 3382 01d0 D35C     		ldrb	r3, [r2, r3]
 3383 01d2 DB00     		lsls	r3, r3, #3
 715:Drivers/BSP/Components/sx1276/sx1276.c ****                            ( SX1276.Settings.LoRa.LowDatarateOptimize << 3 ) );
 3384              		.loc 1 715 0
 3385 01d4 1943     		orrs	r1, r3
 713:Drivers/BSP/Components/sx1276/sx1276.c ****                          ( SX1276Read( REG_LR_MODEMCONFIG3 ) &
 3386              		.loc 1 713 0
 3387 01d6 C9B2     		uxtb	r1, r1
 3388 01d8 2620     		movs	r0, #38
 3389 01da FFF7FEFF 		bl	SX1276Write
 3390              	.LVL424:
 718:Drivers/BSP/Components/sx1276/sx1276.c ****             SX1276Write( REG_LR_PREAMBLELSB, preambleLen & 0xFF );
 3391              		.loc 1 718 0
 3392 01de 310A     		lsrs	r1, r6, #8
 3393 01e0 2020     		movs	r0, #32
 3394 01e2 FFF7FEFF 		bl	SX1276Write
 3395              	.LVL425:
 719:Drivers/BSP/Components/sx1276/sx1276.c **** 
 3396              		.loc 1 719 0
 3397 01e6 F1B2     		uxtb	r1, r6
 3398 01e8 2120     		movs	r0, #33
 3399 01ea FFF7FEFF 		bl	SX1276Write
 3400              	.LVL426:
ARM GAS  /var/folders/2m/zqg86yyd4hbf56w83tkxjpvr0000gn/T//ccRNesxV.s 			page 101


 721:Drivers/BSP/Components/sx1276/sx1276.c ****             {
 3401              		.loc 1 721 0
 3402 01ee 062D     		cmp	r5, #6
 3403 01f0 2DD0     		beq	.L211
 733:Drivers/BSP/Components/sx1276/sx1276.c ****                              RFLR_DETECTIONOPTIMIZE_MASK ) |
 3404              		.loc 1 733 0
 3405 01f2 3120     		movs	r0, #49
 3406 01f4 FFF7FEFF 		bl	SX1276Read
 3407              	.LVL427:
 3408 01f8 41B2     		sxtb	r1, r0
 3409 01fa 0723     		movs	r3, #7
 3410 01fc 9943     		bics	r1, r3
 734:Drivers/BSP/Components/sx1276/sx1276.c ****                              RFLR_DETECTIONOPTIMIZE_SF7_TO_SF12 );
 3411              		.loc 1 734 0
 3412 01fe 0323     		movs	r3, #3
 3413 0200 1943     		orrs	r1, r3
 732:Drivers/BSP/Components/sx1276/sx1276.c ****                              ( SX1276Read( REG_LR_DETECTOPTIMIZE ) &
 3414              		.loc 1 732 0
 3415 0202 C9B2     		uxtb	r1, r1
 3416 0204 3120     		movs	r0, #49
 3417 0206 FFF7FEFF 		bl	SX1276Write
 3418              	.LVL428:
 736:Drivers/BSP/Components/sx1276/sx1276.c ****                              RFLR_DETECTIONTHRESH_SF7_TO_SF12 );
 3419              		.loc 1 736 0
 3420 020a 0A21     		movs	r1, #10
 3421 020c 3720     		movs	r0, #55
 3422 020e FFF7FEFF 		bl	SX1276Write
 3423              	.LVL429:
 742:Drivers/BSP/Components/sx1276/sx1276.c **** 
 3424              		.loc 1 742 0
 3425 0212 20E7     		b	.L191
 3426              	.L208:
 683:Drivers/BSP/Components/sx1276/sx1276.c ****                 ( ( bandwidth == 8 ) && ( datarate == 12 ) ) )
 3427              		.loc 1 683 0 discriminator 1
 3428 0214 2B00     		movs	r3, r5
 3429 0216 0B3B     		subs	r3, r3, #11
 3430 0218 012B     		cmp	r3, #1
 3431 021a ACD8     		bhi	.L199
 3432              	.L200:
 686:Drivers/BSP/Components/sx1276/sx1276.c ****             }
 3433              		.loc 1 686 0
 3434 021c 154A     		ldr	r2, .L212+4
 3435 021e 4C23     		movs	r3, #76
 3436 0220 0121     		movs	r1, #1
 3437 0222 D154     		strb	r1, [r2, r3]
 3438 0224 ADE7     		b	.L202
 3439              	.L209:
 684:Drivers/BSP/Components/sx1276/sx1276.c ****             {
 3440              		.loc 1 684 0
 3441 0226 0C2D     		cmp	r5, #12
 3442 0228 A7D1     		bne	.L201
 3443 022a F7E7     		b	.L200
 3444              	.L210:
 695:Drivers/BSP/Components/sx1276/sx1276.c ****                 SX1276Write( REG_LR_HOPPERIOD, SX1276.Settings.LoRa.HopPeriod );
 3445              		.loc 1 695 0
 3446 022c 4420     		movs	r0, #68
 3447 022e FFF7FEFF 		bl	SX1276Read
ARM GAS  /var/folders/2m/zqg86yyd4hbf56w83tkxjpvr0000gn/T//ccRNesxV.s 			page 102


 3448              	.LVL430:
 3449 0232 8021     		movs	r1, #128
 3450 0234 4942     		rsbs	r1, r1, #0
 3451 0236 0143     		orrs	r1, r0
 3452 0238 C9B2     		uxtb	r1, r1
 3453 023a 4420     		movs	r0, #68
 3454 023c FFF7FEFF 		bl	SX1276Write
 3455              	.LVL431:
 696:Drivers/BSP/Components/sx1276/sx1276.c ****             }
 3456              		.loc 1 696 0
 3457 0240 0C4A     		ldr	r2, .L212+4
 3458 0242 5423     		movs	r3, #84
 3459 0244 D15C     		ldrb	r1, [r2, r3]
 3460 0246 2420     		movs	r0, #36
 3461 0248 FFF7FEFF 		bl	SX1276Write
 3462              	.LVL432:
 3463 024c 9CE7     		b	.L203
 3464              	.L211:
 724:Drivers/BSP/Components/sx1276/sx1276.c ****                                RFLR_DETECTIONOPTIMIZE_MASK ) |
 3465              		.loc 1 724 0
 3466 024e 3120     		movs	r0, #49
 3467 0250 FFF7FEFF 		bl	SX1276Read
 3468              	.LVL433:
 3469 0254 40B2     		sxtb	r0, r0
 3470 0256 0723     		movs	r3, #7
 3471 0258 9843     		bics	r0, r3
 725:Drivers/BSP/Components/sx1276/sx1276.c ****                                RFLR_DETECTIONOPTIMIZE_SF6 );
 3472              		.loc 1 725 0
 3473 025a 0521     		movs	r1, #5
 3474 025c 0143     		orrs	r1, r0
 723:Drivers/BSP/Components/sx1276/sx1276.c ****                              ( SX1276Read( REG_LR_DETECTOPTIMIZE ) &
 3475              		.loc 1 723 0
 3476 025e C9B2     		uxtb	r1, r1
 3477 0260 3120     		movs	r0, #49
 3478 0262 FFF7FEFF 		bl	SX1276Write
 3479              	.LVL434:
 727:Drivers/BSP/Components/sx1276/sx1276.c ****                              RFLR_DETECTIONTHRESH_SF6 );
 3480              		.loc 1 727 0
 3481 0266 0C21     		movs	r1, #12
 3482 0268 3720     		movs	r0, #55
 3483 026a FFF7FEFF 		bl	SX1276Write
 3484              	.LVL435:
 3485 026e F2E6     		b	.L191
 3486              	.L213:
 3487              		.align	2
 3488              	.L212:
 3489 0270 00000000 		.word	.LANCHOR0
 3490 0274 00000000 		.word	SX1276
 3491 0278 80844E40 		.word	1078887552
 3492 027c 80847E41 		.word	1098810496
 3493              		.cfi_endproc
 3494              	.LFE49:
 3496              		.section	.text.SX1276SetTxContinuousWave,"ax",%progbits
 3497              		.align	1
 3498              		.global	SX1276SetTxContinuousWave
 3499              		.syntax unified
 3500              		.code	16
ARM GAS  /var/folders/2m/zqg86yyd4hbf56w83tkxjpvr0000gn/T//ccRNesxV.s 			page 103


 3501              		.thumb_func
 3502              		.fpu softvfp
 3504              	SX1276SetTxContinuousWave:
 3505              	.LFB57:
1178:Drivers/BSP/Components/sx1276/sx1276.c ****     uint32_t timeout = ( uint32_t )( time * 1000 );
 3506              		.loc 1 1178 0
 3507              		.cfi_startproc
 3508              		@ args = 0, pretend = 0, frame = 0
 3509              		@ frame_needed = 0, uses_anonymous_args = 0
 3510              	.LVL436:
 3511 0000 30B5     		push	{r4, r5, lr}
 3512              	.LCFI30:
 3513              		.cfi_def_cfa_offset 12
 3514              		.cfi_offset 4, -12
 3515              		.cfi_offset 5, -8
 3516              		.cfi_offset 14, -4
 3517 0002 8BB0     		sub	sp, sp, #44
 3518              	.LCFI31:
 3519              		.cfi_def_cfa_offset 56
 3520 0004 0C00     		movs	r4, r1
1179:Drivers/BSP/Components/sx1276/sx1276.c **** 
 3521              		.loc 1 1179 0
 3522 0006 5301     		lsls	r3, r2, #5
 3523 0008 9B1A     		subs	r3, r3, r2
 3524 000a 9B00     		lsls	r3, r3, #2
 3525 000c 9A18     		adds	r2, r3, r2
 3526              	.LVL437:
 3527 000e D500     		lsls	r5, r2, #3
 3528              	.LVL438:
1181:Drivers/BSP/Components/sx1276/sx1276.c **** 
 3529              		.loc 1 1181 0
 3530 0010 FFF7FEFF 		bl	SX1276SetChannel
 3531              	.LVL439:
1183:Drivers/BSP/Components/sx1276/sx1276.c **** 
 3532              		.loc 1 1183 0
 3533 0014 0895     		str	r5, [sp, #32]
 3534 0016 0023     		movs	r3, #0
 3535 0018 0793     		str	r3, [sp, #28]
 3536 001a 0693     		str	r3, [sp, #24]
 3537 001c 0593     		str	r3, [sp, #20]
 3538 001e 0493     		str	r3, [sp, #16]
 3539 0020 0393     		str	r3, [sp, #12]
 3540 0022 0522     		movs	r2, #5
 3541 0024 0292     		str	r2, [sp, #8]
 3542 0026 0193     		str	r3, [sp, #4]
 3543 0028 9623     		movs	r3, #150
 3544 002a 5B01     		lsls	r3, r3, #5
 3545 002c 0093     		str	r3, [sp]
 3546 002e 0023     		movs	r3, #0
 3547 0030 0022     		movs	r2, #0
 3548 0032 2100     		movs	r1, r4
 3549 0034 0020     		movs	r0, #0
 3550 0036 FFF7FEFF 		bl	SX1276SetTxConfig
 3551              	.LVL440:
1185:Drivers/BSP/Components/sx1276/sx1276.c ****     // Disable radio interrupts
 3552              		.loc 1 1185 0
 3553 003a 3120     		movs	r0, #49
ARM GAS  /var/folders/2m/zqg86yyd4hbf56w83tkxjpvr0000gn/T//ccRNesxV.s 			page 104


 3554 003c FFF7FEFF 		bl	SX1276Read
 3555              	.LVL441:
 3556 0040 4023     		movs	r3, #64
 3557 0042 9843     		bics	r0, r3
 3558 0044 C1B2     		uxtb	r1, r0
 3559 0046 3120     		movs	r0, #49
 3560 0048 FFF7FEFF 		bl	SX1276Write
 3561              	.LVL442:
1187:Drivers/BSP/Components/sx1276/sx1276.c ****     SX1276Write( REG_DIOMAPPING2, RF_DIOMAPPING2_DIO4_10 | RF_DIOMAPPING2_DIO5_10 );
 3562              		.loc 1 1187 0
 3563 004c F021     		movs	r1, #240
 3564 004e 4020     		movs	r0, #64
 3565 0050 FFF7FEFF 		bl	SX1276Write
 3566              	.LVL443:
1188:Drivers/BSP/Components/sx1276/sx1276.c **** 
 3567              		.loc 1 1188 0
 3568 0054 A021     		movs	r1, #160
 3569 0056 4120     		movs	r0, #65
 3570 0058 FFF7FEFF 		bl	SX1276Write
 3571              	.LVL444:
1190:Drivers/BSP/Components/sx1276/sx1276.c **** 
 3572              		.loc 1 1190 0
 3573 005c 074C     		ldr	r4, .L215
 3574 005e 2900     		movs	r1, r5
 3575 0060 2000     		movs	r0, r4
 3576 0062 FFF7FEFF 		bl	TimerSetValue
 3577              	.LVL445:
1192:Drivers/BSP/Components/sx1276/sx1276.c ****     TimerStart( &TxTimeoutTimer );
 3578              		.loc 1 1192 0
 3579 0066 064B     		ldr	r3, .L215+4
 3580 0068 0222     		movs	r2, #2
 3581 006a 1A71     		strb	r2, [r3, #4]
1193:Drivers/BSP/Components/sx1276/sx1276.c ****     SX1276SetOpMode( RF_OPMODE_TRANSMITTER );
 3582              		.loc 1 1193 0
 3583 006c 2000     		movs	r0, r4
 3584 006e FFF7FEFF 		bl	TimerStart
 3585              	.LVL446:
1194:Drivers/BSP/Components/sx1276/sx1276.c **** }
 3586              		.loc 1 1194 0
 3587 0072 0320     		movs	r0, #3
 3588 0074 FFF7FEFF 		bl	SX1276SetOpMode
 3589              	.LVL447:
1195:Drivers/BSP/Components/sx1276/sx1276.c **** 
 3590              		.loc 1 1195 0
 3591 0078 0BB0     		add	sp, sp, #44
 3592              		@ sp needed
 3593              	.LVL448:
 3594 007a 30BD     		pop	{r4, r5, pc}
 3595              	.L216:
 3596              		.align	2
 3597              	.L215:
 3598 007c 00000000 		.word	TxTimeoutTimer
 3599 0080 00000000 		.word	SX1276
 3600              		.cfi_endproc
 3601              	.LFE57:
 3603              		.section	.text.SX1276OnDio2Irq,"ax",%progbits
 3604              		.align	1
ARM GAS  /var/folders/2m/zqg86yyd4hbf56w83tkxjpvr0000gn/T//ccRNesxV.s 			page 105


 3605              		.global	SX1276OnDio2Irq
 3606              		.syntax unified
 3607              		.code	16
 3608              		.thumb_func
 3609              		.fpu softvfp
 3611              	SX1276OnDio2Irq:
 3612              	.LFB74:
1758:Drivers/BSP/Components/sx1276/sx1276.c ****     uint32_t afcChannel = 0;
 3613              		.loc 1 1758 0
 3614              		.cfi_startproc
 3615              		@ args = 0, pretend = 0, frame = 0
 3616              		@ frame_needed = 0, uses_anonymous_args = 0
 3617 0000 70B5     		push	{r4, r5, r6, lr}
 3618              	.LCFI32:
 3619              		.cfi_def_cfa_offset 16
 3620              		.cfi_offset 4, -16
 3621              		.cfi_offset 5, -12
 3622              		.cfi_offset 6, -8
 3623              		.cfi_offset 14, -4
 3624              	.LVL449:
1761:Drivers/BSP/Components/sx1276/sx1276.c ****     {
 3625              		.loc 1 1761 0
 3626 0002 3B4B     		ldr	r3, .L224
 3627 0004 1B79     		ldrb	r3, [r3, #4]
 3628 0006 012B     		cmp	r3, #1
 3629 0008 02D0     		beq	.L219
 3630 000a 022B     		cmp	r3, #2
 3631 000c 54D0     		beq	.L220
 3632              	.LVL450:
 3633              	.L217:
1828:Drivers/BSP/Components/sx1276/sx1276.c **** 
 3634              		.loc 1 1828 0
 3635              		@ sp needed
 3636 000e 70BD     		pop	{r4, r5, r6, pc}
 3637              	.LVL451:
 3638              	.L219:
1764:Drivers/BSP/Components/sx1276/sx1276.c ****             {
 3639              		.loc 1 1764 0
 3640 0010 374B     		ldr	r3, .L224
 3641 0012 5B79     		ldrb	r3, [r3, #5]
 3642 0014 002B     		cmp	r3, #0
 3643 0016 18D0     		beq	.L221
 3644 0018 012B     		cmp	r3, #1
 3645 001a F8D1     		bne	.L217
1789:Drivers/BSP/Components/sx1276/sx1276.c ****                 {
 3646              		.loc 1 1789 0
 3647 001c 344A     		ldr	r2, .L224
 3648 001e 5323     		movs	r3, #83
 3649 0020 D35C     		ldrb	r3, [r2, r3]
 3650 0022 002B     		cmp	r3, #0
 3651 0024 F3D0     		beq	.L217
1792:Drivers/BSP/Components/sx1276/sx1276.c **** 
 3652              		.loc 1 1792 0
 3653 0026 0221     		movs	r1, #2
 3654 0028 1220     		movs	r0, #18
 3655 002a FFF7FEFF 		bl	SX1276Write
 3656              	.LVL452:
ARM GAS  /var/folders/2m/zqg86yyd4hbf56w83tkxjpvr0000gn/T//ccRNesxV.s 			page 106


1794:Drivers/BSP/Components/sx1276/sx1276.c ****                     {
 3657              		.loc 1 1794 0
 3658 002e 314B     		ldr	r3, .L224+4
 3659 0030 5B68     		ldr	r3, [r3, #4]
 3660 0032 002B     		cmp	r3, #0
 3661 0034 EBD0     		beq	.L217
1794:Drivers/BSP/Components/sx1276/sx1276.c ****                     {
 3662              		.loc 1 1794 0 is_stmt 0 discriminator 1
 3663 0036 5C69     		ldr	r4, [r3, #20]
 3664 0038 002C     		cmp	r4, #0
 3665 003a E8D0     		beq	.L217
1796:Drivers/BSP/Components/sx1276/sx1276.c ****                     }
 3666              		.loc 1 1796 0 is_stmt 1
 3667 003c 1C20     		movs	r0, #28
 3668 003e FFF7FEFF 		bl	SX1276Read
 3669              	.LVL453:
 3670 0042 3F23     		movs	r3, #63
 3671 0044 1840     		ands	r0, r3
 3672 0046 A047     		blx	r4
 3673              	.LVL454:
 3674 0048 E1E7     		b	.L217
 3675              	.L221:
1769:Drivers/BSP/Components/sx1276/sx1276.c **** #endif
 3676              		.loc 1 1769 0
 3677 004a 294B     		ldr	r3, .L224
 3678 004c 3022     		movs	r2, #48
 3679 004e 0121     		movs	r1, #1
 3680 0050 9954     		strb	r1, [r3, r2]
1772:Drivers/BSP/Components/sx1276/sx1276.c ****                 {
 3681              		.loc 1 1772 0
 3682 0052 1B8E     		ldrh	r3, [r3, #48]
 3683 0054 012B     		cmp	r3, #1
 3684 0056 DAD1     		bne	.L217
1774:Drivers/BSP/Components/sx1276/sx1276.c **** 
 3685              		.loc 1 1774 0
 3686 0058 2748     		ldr	r0, .L224+8
 3687 005a FFF7FEFF 		bl	TimerStop
 3688              	.LVL455:
1776:Drivers/BSP/Components/sx1276/sx1276.c **** 
 3689              		.loc 1 1776 0
 3690 005e 244C     		ldr	r4, .L224
 3691 0060 3123     		movs	r3, #49
 3692 0062 0122     		movs	r2, #1
 3693 0064 E254     		strb	r2, [r4, r3]
1778:Drivers/BSP/Components/sx1276/sx1276.c **** 
 3694              		.loc 1 1778 0
 3695 0066 1120     		movs	r0, #17
 3696 0068 FFF7FEFF 		bl	SX1276Read
 3697              	.LVL456:
 3698 006c 4008     		lsrs	r0, r0, #1
 3699 006e 4042     		rsbs	r0, r0, #0
 3700 0070 3222     		movs	r2, #50
 3701 0072 A054     		strb	r0, [r4, r2]
1780:Drivers/BSP/Components/sx1276/sx1276.c ****                                      ( uint16_t )SX1276Read( REG_AFCLSB ) );
 3702              		.loc 1 1780 0
 3703 0074 1B20     		movs	r0, #27
 3704 0076 FFF7FEFF 		bl	SX1276Read
ARM GAS  /var/folders/2m/zqg86yyd4hbf56w83tkxjpvr0000gn/T//ccRNesxV.s 			page 107


 3705              	.LVL457:
 3706 007a 0502     		lsls	r5, r0, #8
1781:Drivers/BSP/Components/sx1276/sx1276.c **** 
 3707              		.loc 1 1781 0
 3708 007c 1C20     		movs	r0, #28
 3709 007e FFF7FEFF 		bl	SX1276Read
 3710              	.LVL458:
1780:Drivers/BSP/Components/sx1276/sx1276.c ****                                      ( uint16_t )SX1276Read( REG_AFCLSB ) );
 3711              		.loc 1 1780 0
 3712 0082 2843     		orrs	r0, r5
 3713              	.LVL459:
 3714              	.LBB6:
1783:Drivers/BSP/Components/sx1276/sx1276.c **** 
 3715              		.loc 1 1783 0
 3716 0084 010A     		lsrs	r1, r0, #8
 3717              	.LVL460:
 3718 0086 4D01     		lsls	r5, r1, #5
 3719 0088 6D1A     		subs	r5, r5, r1
 3720 008a AB01     		lsls	r3, r5, #6
 3721 008c 5B1B     		subs	r3, r3, r5
 3722 008e DB00     		lsls	r3, r3, #3
 3723 0090 5918     		adds	r1, r3, r1
 3724              	.LVL461:
 3725 0092 FF25     		movs	r5, #255
 3726 0094 0540     		ands	r5, r0
 3727              	.LVL462:
 3728 0096 6801     		lsls	r0, r5, #5
 3729              	.LVL463:
 3730 0098 401B     		subs	r0, r0, r5
 3731 009a 8301     		lsls	r3, r0, #6
 3732 009c 1B1A     		subs	r3, r3, r0
 3733 009e DB00     		lsls	r3, r3, #3
 3734 00a0 5B19     		adds	r3, r3, r5
 3735 00a2 8033     		adds	r3, r3, #128
 3736 00a4 1B0A     		lsrs	r3, r3, #8
 3737 00a6 CB18     		adds	r3, r1, r3
 3738 00a8 6363     		str	r3, [r4, #52]
 3739              	.LBE6:
1785:Drivers/BSP/Components/sx1276/sx1276.c ****                 }
 3740              		.loc 1 1785 0
 3741 00aa 0C20     		movs	r0, #12
 3742 00ac FFF7FEFF 		bl	SX1276Read
 3743              	.LVL464:
 3744 00b0 4009     		lsrs	r0, r0, #5
 3745 00b2 3823     		movs	r3, #56
 3746 00b4 E054     		strb	r0, [r4, r3]
 3747 00b6 AAE7     		b	.L217
 3748              	.LVL465:
 3749              	.L220:
1805:Drivers/BSP/Components/sx1276/sx1276.c ****             {
 3750              		.loc 1 1805 0
 3751 00b8 0D4B     		ldr	r3, .L224
 3752 00ba 5B79     		ldrb	r3, [r3, #5]
 3753 00bc 012B     		cmp	r3, #1
 3754 00be A6D1     		bne	.L217
1810:Drivers/BSP/Components/sx1276/sx1276.c ****                 {
 3755              		.loc 1 1810 0
ARM GAS  /var/folders/2m/zqg86yyd4hbf56w83tkxjpvr0000gn/T//ccRNesxV.s 			page 108


 3756 00c0 0B4A     		ldr	r2, .L224
 3757 00c2 5233     		adds	r3, r3, #82
 3758 00c4 D35C     		ldrb	r3, [r2, r3]
 3759 00c6 002B     		cmp	r3, #0
 3760 00c8 A1D0     		beq	.L217
1813:Drivers/BSP/Components/sx1276/sx1276.c **** 
 3761              		.loc 1 1813 0
 3762 00ca 0221     		movs	r1, #2
 3763 00cc 1220     		movs	r0, #18
 3764 00ce FFF7FEFF 		bl	SX1276Write
 3765              	.LVL466:
1815:Drivers/BSP/Components/sx1276/sx1276.c ****                     {
 3766              		.loc 1 1815 0
 3767 00d2 084B     		ldr	r3, .L224+4
 3768 00d4 5B68     		ldr	r3, [r3, #4]
 3769 00d6 002B     		cmp	r3, #0
 3770 00d8 99D0     		beq	.L217
1815:Drivers/BSP/Components/sx1276/sx1276.c ****                     {
 3771              		.loc 1 1815 0 is_stmt 0 discriminator 1
 3772 00da 5C69     		ldr	r4, [r3, #20]
 3773 00dc 002C     		cmp	r4, #0
 3774 00de 96D0     		beq	.L217
1817:Drivers/BSP/Components/sx1276/sx1276.c ****                     }
 3775              		.loc 1 1817 0 is_stmt 1
 3776 00e0 1C20     		movs	r0, #28
 3777 00e2 FFF7FEFF 		bl	SX1276Read
 3778              	.LVL467:
 3779 00e6 3F23     		movs	r3, #63
 3780 00e8 1840     		ands	r0, r3
 3781 00ea A047     		blx	r4
 3782              	.LVL468:
1828:Drivers/BSP/Components/sx1276/sx1276.c **** 
 3783              		.loc 1 1828 0
 3784 00ec 8FE7     		b	.L217
 3785              	.L225:
 3786 00ee C046     		.align	2
 3787              	.L224:
 3788 00f0 00000000 		.word	SX1276
 3789 00f4 00000000 		.word	.LANCHOR0
 3790 00f8 00000000 		.word	RxTimeoutSyncWord
 3791              		.cfi_endproc
 3792              	.LFE74:
 3794              		.section	.text.SX1276OnDio3Irq,"ax",%progbits
 3795              		.align	1
 3796              		.global	SX1276OnDio3Irq
 3797              		.syntax unified
 3798              		.code	16
 3799              		.thumb_func
 3800              		.fpu softvfp
 3802              	SX1276OnDio3Irq:
 3803              	.LFB75:
1831:Drivers/BSP/Components/sx1276/sx1276.c ****     switch( SX1276.Settings.Modem )
 3804              		.loc 1 1831 0
 3805              		.cfi_startproc
 3806              		@ args = 0, pretend = 0, frame = 0
 3807              		@ frame_needed = 0, uses_anonymous_args = 0
 3808 0000 10B5     		push	{r4, lr}
ARM GAS  /var/folders/2m/zqg86yyd4hbf56w83tkxjpvr0000gn/T//ccRNesxV.s 			page 109


 3809              	.LCFI33:
 3810              		.cfi_def_cfa_offset 8
 3811              		.cfi_offset 4, -8
 3812              		.cfi_offset 14, -4
1832:Drivers/BSP/Components/sx1276/sx1276.c ****     {
 3813              		.loc 1 1832 0
 3814 0002 124B     		ldr	r3, .L230
 3815 0004 5B79     		ldrb	r3, [r3, #5]
 3816 0006 012B     		cmp	r3, #1
 3817 0008 1FD1     		bne	.L226
1837:Drivers/BSP/Components/sx1276/sx1276.c ****         {
 3818              		.loc 1 1837 0
 3819 000a 1220     		movs	r0, #18
 3820 000c FFF7FEFF 		bl	SX1276Read
 3821              	.LVL469:
 3822 0010 C307     		lsls	r3, r0, #31
 3823 0012 0DD5     		bpl	.L229
1840:Drivers/BSP/Components/sx1276/sx1276.c ****             if( ( RadioEvents != NULL ) && ( RadioEvents->CadDone != NULL ) )
 3824              		.loc 1 1840 0
 3825 0014 0521     		movs	r1, #5
 3826 0016 1220     		movs	r0, #18
 3827 0018 FFF7FEFF 		bl	SX1276Write
 3828              	.LVL470:
1841:Drivers/BSP/Components/sx1276/sx1276.c ****             {
 3829              		.loc 1 1841 0
 3830 001c 0C4B     		ldr	r3, .L230+4
 3831 001e 5B68     		ldr	r3, [r3, #4]
 3832 0020 002B     		cmp	r3, #0
 3833 0022 12D0     		beq	.L226
1841:Drivers/BSP/Components/sx1276/sx1276.c ****             {
 3834              		.loc 1 1841 0 is_stmt 0 discriminator 1
 3835 0024 9B69     		ldr	r3, [r3, #24]
 3836 0026 002B     		cmp	r3, #0
 3837 0028 0FD0     		beq	.L226
1843:Drivers/BSP/Components/sx1276/sx1276.c ****             }
 3838              		.loc 1 1843 0 is_stmt 1
 3839 002a 0120     		movs	r0, #1
 3840 002c 9847     		blx	r3
 3841              	.LVL471:
 3842 002e 0CE0     		b	.L226
 3843              	.L229:
1849:Drivers/BSP/Components/sx1276/sx1276.c ****             if( ( RadioEvents != NULL ) && ( RadioEvents->CadDone != NULL ) )
 3844              		.loc 1 1849 0
 3845 0030 0421     		movs	r1, #4
 3846 0032 1220     		movs	r0, #18
 3847 0034 FFF7FEFF 		bl	SX1276Write
 3848              	.LVL472:
1850:Drivers/BSP/Components/sx1276/sx1276.c ****             {
 3849              		.loc 1 1850 0
 3850 0038 054B     		ldr	r3, .L230+4
 3851 003a 5B68     		ldr	r3, [r3, #4]
 3852 003c 002B     		cmp	r3, #0
 3853 003e 04D0     		beq	.L226
1850:Drivers/BSP/Components/sx1276/sx1276.c ****             {
 3854              		.loc 1 1850 0 is_stmt 0 discriminator 1
 3855 0040 9B69     		ldr	r3, [r3, #24]
 3856 0042 002B     		cmp	r3, #0
ARM GAS  /var/folders/2m/zqg86yyd4hbf56w83tkxjpvr0000gn/T//ccRNesxV.s 			page 110


 3857 0044 01D0     		beq	.L226
1852:Drivers/BSP/Components/sx1276/sx1276.c ****             }
 3858              		.loc 1 1852 0 is_stmt 1
 3859 0046 0020     		movs	r0, #0
 3860 0048 9847     		blx	r3
 3861              	.LVL473:
 3862              	.L226:
1859:Drivers/BSP/Components/sx1276/sx1276.c **** 
 3863              		.loc 1 1859 0
 3864              		@ sp needed
 3865 004a 10BD     		pop	{r4, pc}
 3866              	.L231:
 3867              		.align	2
 3868              	.L230:
 3869 004c 00000000 		.word	SX1276
 3870 0050 00000000 		.word	.LANCHOR0
 3871              		.cfi_endproc
 3872              	.LFE75:
 3874              		.section	.text.SX1276WriteFifo,"ax",%progbits
 3875              		.align	1
 3876              		.global	SX1276WriteFifo
 3877              		.syntax unified
 3878              		.code	16
 3879              		.thumb_func
 3880              		.fpu softvfp
 3882              	SX1276WriteFifo:
 3883              	.LFB66:
1353:Drivers/BSP/Components/sx1276/sx1276.c ****     SX1276WriteBuffer( 0, buffer, size );
 3884              		.loc 1 1353 0
 3885              		.cfi_startproc
 3886              		@ args = 0, pretend = 0, frame = 0
 3887              		@ frame_needed = 0, uses_anonymous_args = 0
 3888              	.LVL474:
 3889 0000 10B5     		push	{r4, lr}
 3890              	.LCFI34:
 3891              		.cfi_def_cfa_offset 8
 3892              		.cfi_offset 4, -8
 3893              		.cfi_offset 14, -4
 3894 0002 0A00     		movs	r2, r1
1354:Drivers/BSP/Components/sx1276/sx1276.c **** }
 3895              		.loc 1 1354 0
 3896 0004 0100     		movs	r1, r0
 3897              	.LVL475:
 3898 0006 0020     		movs	r0, #0
 3899              	.LVL476:
 3900 0008 FFF7FEFF 		bl	SX1276WriteBuffer
 3901              	.LVL477:
1355:Drivers/BSP/Components/sx1276/sx1276.c **** 
 3902              		.loc 1 1355 0
 3903              		@ sp needed
 3904 000c 10BD     		pop	{r4, pc}
 3905              		.cfi_endproc
 3906              	.LFE66:
 3908              		.section	.text.SX1276Send,"ax",%progbits
 3909              		.align	1
 3910              		.global	SX1276Send
 3911              		.syntax unified
ARM GAS  /var/folders/2m/zqg86yyd4hbf56w83tkxjpvr0000gn/T//ccRNesxV.s 			page 111


 3912              		.code	16
 3913              		.thumb_func
 3914              		.fpu softvfp
 3916              	SX1276Send:
 3917              	.LFB51:
 824:Drivers/BSP/Components/sx1276/sx1276.c ****     uint32_t txTimeout = 0;
 3918              		.loc 1 824 0
 3919              		.cfi_startproc
 3920              		@ args = 0, pretend = 0, frame = 8
 3921              		@ frame_needed = 0, uses_anonymous_args = 0
 3922              	.LVL478:
 3923 0000 70B5     		push	{r4, r5, r6, lr}
 3924              	.LCFI35:
 3925              		.cfi_def_cfa_offset 16
 3926              		.cfi_offset 4, -16
 3927              		.cfi_offset 5, -12
 3928              		.cfi_offset 6, -8
 3929              		.cfi_offset 14, -4
 3930 0002 82B0     		sub	sp, sp, #8
 3931              	.LCFI36:
 3932              		.cfi_def_cfa_offset 24
 3933 0004 0400     		movs	r4, r0
 3934 0006 6B46     		mov	r3, sp
 3935 0008 D971     		strb	r1, [r3, #7]
 3936              	.LVL479:
 827:Drivers/BSP/Components/sx1276/sx1276.c ****     {
 3937              		.loc 1 827 0
 3938 000a 424B     		ldr	r3, .L247
 3939 000c 5B79     		ldrb	r3, [r3, #5]
 3940 000e 002B     		cmp	r3, #0
 3941 0010 03D0     		beq	.L235
 3942 0012 012B     		cmp	r3, #1
 3943 0014 36D0     		beq	.L236
 825:Drivers/BSP/Components/sx1276/sx1276.c **** 
 3944              		.loc 1 825 0
 3945 0016 0020     		movs	r0, #0
 3946              	.LVL480:
 3947 0018 22E0     		b	.L234
 3948              	.LVL481:
 3949              	.L235:
 831:Drivers/BSP/Components/sx1276/sx1276.c ****             SX1276.Settings.FskPacketHandler.Size = size;
 3950              		.loc 1 831 0
 3951 001a 3E4B     		ldr	r3, .L247
 3952 001c 0022     		movs	r2, #0
 3953 001e 9A87     		strh	r2, [r3, #60]
 832:Drivers/BSP/Components/sx1276/sx1276.c **** 
 3954              		.loc 1 832 0
 3955 0020 6A46     		mov	r2, sp
 3956 0022 D179     		ldrb	r1, [r2, #7]
 3957              	.LVL482:
 3958 0024 5987     		strh	r1, [r3, #58]
 834:Drivers/BSP/Components/sx1276/sx1276.c ****             {
 3959              		.loc 1 834 0
 3960 0026 2222     		movs	r2, #34
 3961              	.LVL483:
 3962 0028 9B5C     		ldrb	r3, [r3, r2]
 3963 002a 002B     		cmp	r3, #0
ARM GAS  /var/folders/2m/zqg86yyd4hbf56w83tkxjpvr0000gn/T//ccRNesxV.s 			page 112


 3964 002c 1CD1     		bne	.L237
 836:Drivers/BSP/Components/sx1276/sx1276.c ****             }
 3965              		.loc 1 836 0
 3966 002e 0121     		movs	r1, #1
 3967 0030 6B46     		mov	r3, sp
 3968 0032 D81D     		adds	r0, r3, #7
 3969              	.LVL484:
 3970 0034 FFF7FEFF 		bl	SX1276WriteFifo
 3971              	.LVL485:
 3972              	.L238:
 843:Drivers/BSP/Components/sx1276/sx1276.c ****             {
 3973              		.loc 1 843 0
 3974 0038 6B46     		mov	r3, sp
 3975 003a DA79     		ldrb	r2, [r3, #7]
 3976 003c 531E     		subs	r3, r2, #1
 3977 003e DBB2     		uxtb	r3, r3
 3978 0040 3F2B     		cmp	r3, #63
 3979 0042 15D8     		bhi	.L239
 845:Drivers/BSP/Components/sx1276/sx1276.c ****             }
 3980              		.loc 1 845 0
 3981 0044 3349     		ldr	r1, .L247
 3982 0046 3F23     		movs	r3, #63
 3983 0048 CA54     		strb	r2, [r1, r3]
 3984              	.L240:
 854:Drivers/BSP/Components/sx1276/sx1276.c ****             SX1276.Settings.FskPacketHandler.NbBytes += SX1276.Settings.FskPacketHandler.ChunkSize;
 3985              		.loc 1 854 0
 3986 004a 324D     		ldr	r5, .L247
 3987 004c 3F26     		movs	r6, #63
 3988 004e A95D     		ldrb	r1, [r5, r6]
 3989 0050 2000     		movs	r0, r4
 3990 0052 FFF7FEFF 		bl	SX1276WriteFifo
 3991              	.LVL486:
 855:Drivers/BSP/Components/sx1276/sx1276.c ****             txTimeout = SX1276.Settings.Fsk.TxTimeout;
 3992              		.loc 1 855 0
 3993 0056 AB5D     		ldrb	r3, [r5, r6]
 3994 0058 AA8F     		ldrh	r2, [r5, #60]
 3995 005a 9B18     		adds	r3, r3, r2
 3996 005c AB87     		strh	r3, [r5, #60]
 856:Drivers/BSP/Components/sx1276/sx1276.c ****         }
 3997              		.loc 1 856 0
 3998 005e A86A     		ldr	r0, [r5, #40]
 3999              	.LVL487:
 4000              	.L234:
 894:Drivers/BSP/Components/sx1276/sx1276.c **** }
 4001              		.loc 1 894 0
 4002 0060 FFF7FEFF 		bl	SX1276SetTx
 4003              	.LVL488:
 895:Drivers/BSP/Components/sx1276/sx1276.c **** 
 4004              		.loc 1 895 0
 4005 0064 02B0     		add	sp, sp, #8
 4006              		@ sp needed
 4007              	.LVL489:
 4008 0066 70BD     		pop	{r4, r5, r6, pc}
 4009              	.LVL490:
 4010              	.L237:
 840:Drivers/BSP/Components/sx1276/sx1276.c ****             }
 4011              		.loc 1 840 0
ARM GAS  /var/folders/2m/zqg86yyd4hbf56w83tkxjpvr0000gn/T//ccRNesxV.s 			page 113


 4012 0068 3220     		movs	r0, #50
 4013              	.LVL491:
 4014 006a FFF7FEFF 		bl	SX1276Write
 4015              	.LVL492:
 4016 006e E3E7     		b	.L238
 4017              	.L239:
 849:Drivers/BSP/Components/sx1276/sx1276.c ****                 SX1276.Settings.FskPacketHandler.ChunkSize = 32;
 4018              		.loc 1 849 0
 4019 0070 92B2     		uxth	r2, r2
 4020 0072 2100     		movs	r1, r4
 4021 0074 2848     		ldr	r0, .L247+4
 4022 0076 FFF7FEFF 		bl	memcpy1
 4023              	.LVL493:
 850:Drivers/BSP/Components/sx1276/sx1276.c ****             }
 4024              		.loc 1 850 0
 4025 007a 264A     		ldr	r2, .L247
 4026 007c 3F23     		movs	r3, #63
 4027 007e 2021     		movs	r1, #32
 4028 0080 D154     		strb	r1, [r2, r3]
 4029 0082 E2E7     		b	.L240
 4030              	.LVL494:
 4031              	.L236:
 861:Drivers/BSP/Components/sx1276/sx1276.c ****             {
 4032              		.loc 1 861 0
 4033 0084 234A     		ldr	r2, .L247
 4034 0086 5523     		movs	r3, #85
 4035 0088 D35C     		ldrb	r3, [r2, r3]
 4036 008a 002B     		cmp	r3, #0
 4037 008c 2AD0     		beq	.L241
 863:Drivers/BSP/Components/sx1276/sx1276.c ****                 SX1276Write( REG_LR_INVERTIQ2, RFLR_INVERTIQ2_ON );
 4038              		.loc 1 863 0
 4039 008e 3320     		movs	r0, #51
 4040              	.LVL495:
 4041 0090 FFF7FEFF 		bl	SX1276Read
 4042              	.LVL496:
 4043 0094 4123     		movs	r3, #65
 4044 0096 9843     		bics	r0, r3
 4045 0098 C1B2     		uxtb	r1, r0
 4046 009a 3320     		movs	r0, #51
 4047 009c FFF7FEFF 		bl	SX1276Write
 4048              	.LVL497:
 864:Drivers/BSP/Components/sx1276/sx1276.c ****             }
 4049              		.loc 1 864 0
 4050 00a0 1921     		movs	r1, #25
 4051 00a2 3B20     		movs	r0, #59
 4052 00a4 FFF7FEFF 		bl	SX1276Write
 4053              	.LVL498:
 4054              	.L242:
 872:Drivers/BSP/Components/sx1276/sx1276.c **** 
 4055              		.loc 1 872 0
 4056 00a8 6B46     		mov	r3, sp
 4057 00aa D979     		ldrb	r1, [r3, #7]
 4058 00ac 194A     		ldr	r2, .L247
 4059 00ae 6423     		movs	r3, #100
 4060 00b0 D154     		strb	r1, [r2, r3]
 875:Drivers/BSP/Components/sx1276/sx1276.c **** 
 4061              		.loc 1 875 0
ARM GAS  /var/folders/2m/zqg86yyd4hbf56w83tkxjpvr0000gn/T//ccRNesxV.s 			page 114


 4062 00b2 2220     		movs	r0, #34
 4063 00b4 FFF7FEFF 		bl	SX1276Write
 4064              	.LVL499:
 878:Drivers/BSP/Components/sx1276/sx1276.c ****             SX1276Write( REG_LR_FIFOADDRPTR, 0 );
 4065              		.loc 1 878 0
 4066 00b8 0021     		movs	r1, #0
 4067 00ba 0E20     		movs	r0, #14
 4068 00bc FFF7FEFF 		bl	SX1276Write
 4069              	.LVL500:
 879:Drivers/BSP/Components/sx1276/sx1276.c **** 
 4070              		.loc 1 879 0
 4071 00c0 0021     		movs	r1, #0
 4072 00c2 0D20     		movs	r0, #13
 4073 00c4 FFF7FEFF 		bl	SX1276Write
 4074              	.LVL501:
 882:Drivers/BSP/Components/sx1276/sx1276.c ****             {
 4075              		.loc 1 882 0
 4076 00c8 0120     		movs	r0, #1
 4077 00ca FFF7FEFF 		bl	SX1276Read
 4078              	.LVL502:
 4079 00ce F823     		movs	r3, #248
 4080 00d0 9843     		bics	r0, r3
 4081 00d2 18D0     		beq	.L246
 4082              	.L243:
 888:Drivers/BSP/Components/sx1276/sx1276.c ****             txTimeout = SX1276.Settings.LoRa.TxTimeout;
 4083              		.loc 1 888 0
 4084 00d4 6B46     		mov	r3, sp
 4085 00d6 D979     		ldrb	r1, [r3, #7]
 4086 00d8 2000     		movs	r0, r4
 4087 00da FFF7FEFF 		bl	SX1276WriteFifo
 4088              	.LVL503:
 889:Drivers/BSP/Components/sx1276/sx1276.c ****         }
 4089              		.loc 1 889 0
 4090 00de 0D4B     		ldr	r3, .L247
 4091 00e0 986D     		ldr	r0, [r3, #88]
 4092              	.LVL504:
 891:Drivers/BSP/Components/sx1276/sx1276.c ****     }
 4093              		.loc 1 891 0
 4094 00e2 BDE7     		b	.L234
 4095              	.LVL505:
 4096              	.L241:
 868:Drivers/BSP/Components/sx1276/sx1276.c ****                 SX1276Write( REG_LR_INVERTIQ2, RFLR_INVERTIQ2_OFF );
 4097              		.loc 1 868 0
 4098 00e4 3320     		movs	r0, #51
 4099              	.LVL506:
 4100 00e6 FFF7FEFF 		bl	SX1276Read
 4101              	.LVL507:
 4102 00ea 41B2     		sxtb	r1, r0
 4103 00ec 4123     		movs	r3, #65
 4104 00ee 9943     		bics	r1, r3
 4105 00f0 0120     		movs	r0, #1
 4106 00f2 0143     		orrs	r1, r0
 4107 00f4 C9B2     		uxtb	r1, r1
 4108 00f6 3320     		movs	r0, #51
 4109 00f8 FFF7FEFF 		bl	SX1276Write
 4110              	.LVL508:
 869:Drivers/BSP/Components/sx1276/sx1276.c ****             }
ARM GAS  /var/folders/2m/zqg86yyd4hbf56w83tkxjpvr0000gn/T//ccRNesxV.s 			page 115


 4111              		.loc 1 869 0
 4112 00fc 1D21     		movs	r1, #29
 4113 00fe 3B20     		movs	r0, #59
 4114 0100 FFF7FEFF 		bl	SX1276Write
 4115              	.LVL509:
 4116 0104 D0E7     		b	.L242
 4117              	.L246:
 884:Drivers/BSP/Components/sx1276/sx1276.c ****                 DelayMs( 1 );
 4118              		.loc 1 884 0
 4119 0106 FFF7FEFF 		bl	SX1276SetStby
 4120              	.LVL510:
 885:Drivers/BSP/Components/sx1276/sx1276.c ****             }
 4121              		.loc 1 885 0
 4122 010a 0120     		movs	r0, #1
 4123 010c FFF7FEFF 		bl	DelayMs
 4124              	.LVL511:
 4125 0110 E0E7     		b	.L243
 4126              	.L248:
 4127 0112 C046     		.align	2
 4128              	.L247:
 4129 0114 00000000 		.word	SX1276
 4130 0118 08000000 		.word	RxTxBuffer
 4131              		.cfi_endproc
 4132              	.LFE51:
 4134              		.section	.text.SX1276ReadFifo,"ax",%progbits
 4135              		.align	1
 4136              		.global	SX1276ReadFifo
 4137              		.syntax unified
 4138              		.code	16
 4139              		.thumb_func
 4140              		.fpu softvfp
 4142              	SX1276ReadFifo:
 4143              	.LFB67:
1358:Drivers/BSP/Components/sx1276/sx1276.c ****     SX1276ReadBuffer( 0, buffer, size );
 4144              		.loc 1 1358 0
 4145              		.cfi_startproc
 4146              		@ args = 0, pretend = 0, frame = 0
 4147              		@ frame_needed = 0, uses_anonymous_args = 0
 4148              	.LVL512:
 4149 0000 10B5     		push	{r4, lr}
 4150              	.LCFI37:
 4151              		.cfi_def_cfa_offset 8
 4152              		.cfi_offset 4, -8
 4153              		.cfi_offset 14, -4
 4154 0002 0A00     		movs	r2, r1
1359:Drivers/BSP/Components/sx1276/sx1276.c **** }
 4155              		.loc 1 1359 0
 4156 0004 0100     		movs	r1, r0
 4157              	.LVL513:
 4158 0006 0020     		movs	r0, #0
 4159              	.LVL514:
 4160 0008 FFF7FEFF 		bl	SX1276ReadBuffer
 4161              	.LVL515:
1360:Drivers/BSP/Components/sx1276/sx1276.c **** 
 4162              		.loc 1 1360 0
 4163              		@ sp needed
 4164 000c 10BD     		pop	{r4, pc}
ARM GAS  /var/folders/2m/zqg86yyd4hbf56w83tkxjpvr0000gn/T//ccRNesxV.s 			page 116


 4165              		.cfi_endproc
 4166              	.LFE67:
 4168              		.section	.text.SX1276OnDio0Irq,"ax",%progbits
 4169              		.align	1
 4170              		.global	SX1276OnDio0Irq
 4171              		.syntax unified
 4172              		.code	16
 4173              		.thumb_func
 4174              		.fpu softvfp
 4176              	SX1276OnDio0Irq:
 4177              	.LFB72:
1477:Drivers/BSP/Components/sx1276/sx1276.c ****     volatile uint8_t irqFlags = 0;
 4178              		.loc 1 1477 0
 4179              		.cfi_startproc
 4180              		@ args = 0, pretend = 0, frame = 8
 4181              		@ frame_needed = 0, uses_anonymous_args = 0
 4182 0000 30B5     		push	{r4, r5, lr}
 4183              	.LCFI38:
 4184              		.cfi_def_cfa_offset 12
 4185              		.cfi_offset 4, -12
 4186              		.cfi_offset 5, -8
 4187              		.cfi_offset 14, -4
 4188 0002 83B0     		sub	sp, sp, #12
 4189              	.LCFI39:
 4190              		.cfi_def_cfa_offset 24
1478:Drivers/BSP/Components/sx1276/sx1276.c **** 
 4191              		.loc 1 1478 0
 4192 0004 6B46     		mov	r3, sp
 4193 0006 0022     		movs	r2, #0
 4194 0008 DA71     		strb	r2, [r3, #7]
1480:Drivers/BSP/Components/sx1276/sx1276.c ****     {
 4195              		.loc 1 1480 0
 4196 000a B24B     		ldr	r3, .L282
 4197 000c 1B79     		ldrb	r3, [r3, #4]
 4198 000e 012B     		cmp	r3, #1
 4199 0010 04D0     		beq	.L252
 4200 0012 022B     		cmp	r3, #2
 4201 0014 00D1     		bne	.LCB3902
 4202 0016 3FE1     		b	.L253	@long jump
 4203              	.LCB3902:
 4204              	.L250:
1677:Drivers/BSP/Components/sx1276/sx1276.c **** 
 4205              		.loc 1 1677 0
 4206 0018 03B0     		add	sp, sp, #12
 4207              		@ sp needed
 4208 001a 30BD     		pop	{r4, r5, pc}
 4209              	.L252:
1485:Drivers/BSP/Components/sx1276/sx1276.c ****             {
 4210              		.loc 1 1485 0
 4211 001c AD4B     		ldr	r3, .L282
 4212 001e 5B79     		ldrb	r3, [r3, #5]
 4213 0020 002B     		cmp	r3, #0
 4214 0022 27D0     		beq	.L254
 4215 0024 012B     		cmp	r3, #1
 4216 0026 F7D1     		bne	.L250
 4217              	.LVL516:
 4218              	.LBB7:
ARM GAS  /var/folders/2m/zqg86yyd4hbf56w83tkxjpvr0000gn/T//ccRNesxV.s 			page 117


1573:Drivers/BSP/Components/sx1276/sx1276.c **** 
 4219              		.loc 1 1573 0
 4220 0028 4021     		movs	r1, #64
 4221 002a 1220     		movs	r0, #18
 4222 002c FFF7FEFF 		bl	SX1276Write
 4223              	.LVL517:
1575:Drivers/BSP/Components/sx1276/sx1276.c ****                     if( ( irqFlags & RFLR_IRQFLAGS_PAYLOADCRCERROR_MASK ) == RFLR_IRQFLAGS_PAYLOADC
 4224              		.loc 1 1575 0
 4225 0030 1220     		movs	r0, #18
 4226 0032 FFF7FEFF 		bl	SX1276Read
 4227              	.LVL518:
 4228 0036 6B46     		mov	r3, sp
 4229 0038 D871     		strb	r0, [r3, #7]
 4230 003a 0733     		adds	r3, r3, #7
1576:Drivers/BSP/Components/sx1276/sx1276.c ****                     {
 4231              		.loc 1 1576 0
 4232 003c 1B78     		ldrb	r3, [r3]
 4233 003e 9B06     		lsls	r3, r3, #26
 4234 0040 00D4     		bmi	.LCB3938
 4235 0042 B7E0     		b	.L267	@long jump
 4236              	.LCB3938:
1579:Drivers/BSP/Components/sx1276/sx1276.c **** 
 4237              		.loc 1 1579 0
 4238 0044 2021     		movs	r1, #32
 4239 0046 1220     		movs	r0, #18
 4240 0048 FFF7FEFF 		bl	SX1276Write
 4241              	.LVL519:
1581:Drivers/BSP/Components/sx1276/sx1276.c ****                         {
 4242              		.loc 1 1581 0
 4243 004c A14A     		ldr	r2, .L282
 4244 004e 5623     		movs	r3, #86
 4245 0050 D35C     		ldrb	r3, [r2, r3]
 4246 0052 002B     		cmp	r3, #0
 4247 0054 02D1     		bne	.L268
1583:Drivers/BSP/Components/sx1276/sx1276.c ****                         }
 4248              		.loc 1 1583 0
 4249 0056 1300     		movs	r3, r2
 4250 0058 0022     		movs	r2, #0
 4251 005a 1A71     		strb	r2, [r3, #4]
 4252              	.L268:
1585:Drivers/BSP/Components/sx1276/sx1276.c **** 
 4253              		.loc 1 1585 0
 4254 005c 9E48     		ldr	r0, .L282+4
 4255 005e FFF7FEFF 		bl	TimerStop
 4256              	.LVL520:
1587:Drivers/BSP/Components/sx1276/sx1276.c ****                         {
 4257              		.loc 1 1587 0
 4258 0062 9E4B     		ldr	r3, .L282+8
 4259 0064 5B68     		ldr	r3, [r3, #4]
 4260 0066 002B     		cmp	r3, #0
 4261 0068 D6D0     		beq	.L250
1587:Drivers/BSP/Components/sx1276/sx1276.c ****                         {
 4262              		.loc 1 1587 0 is_stmt 0 discriminator 1
 4263 006a 1B69     		ldr	r3, [r3, #16]
 4264 006c 002B     		cmp	r3, #0
 4265 006e D3D0     		beq	.L250
1589:Drivers/BSP/Components/sx1276/sx1276.c ****                         }
ARM GAS  /var/folders/2m/zqg86yyd4hbf56w83tkxjpvr0000gn/T//ccRNesxV.s 			page 118


 4266              		.loc 1 1589 0 is_stmt 1
 4267 0070 9847     		blx	r3
 4268              	.LVL521:
 4269 0072 D1E7     		b	.L250
 4270              	.LVL522:
 4271              	.L254:
 4272              	.LBE7:
1488:Drivers/BSP/Components/sx1276/sx1276.c ****                 {
 4273              		.loc 1 1488 0
 4274 0074 974A     		ldr	r2, .L282
 4275 0076 2423     		movs	r3, #36
 4276 0078 D35C     		ldrb	r3, [r2, r3]
 4277 007a 002B     		cmp	r3, #0
 4278 007c 1BD1     		bne	.L278
 4279              	.L256:
1526:Drivers/BSP/Components/sx1276/sx1276.c ****                 {
 4280              		.loc 1 1526 0
 4281 007e 954B     		ldr	r3, .L282
 4282 0080 598F     		ldrh	r1, [r3, #58]
 4283 0082 0029     		cmp	r1, #0
 4284 0084 5AD1     		bne	.L260
1526:Drivers/BSP/Components/sx1276/sx1276.c ****                 {
 4285              		.loc 1 1526 0 is_stmt 0 discriminator 1
 4286 0086 9B8F     		ldrh	r3, [r3, #60]
 4287 0088 002B     		cmp	r3, #0
 4288 008a 57D1     		bne	.L260
1528:Drivers/BSP/Components/sx1276/sx1276.c ****                     {
 4289              		.loc 1 1528 0 is_stmt 1
 4290 008c 914A     		ldr	r2, .L282
 4291 008e 2233     		adds	r3, r3, #34
 4292 0090 D35C     		ldrb	r3, [r2, r3]
 4293 0092 002B     		cmp	r3, #0
 4294 0094 4CD1     		bne	.L261
1530:Drivers/BSP/Components/sx1276/sx1276.c ****                     }
 4295              		.loc 1 1530 0
 4296 0096 0131     		adds	r1, r1, #1
 4297 0098 9148     		ldr	r0, .L282+12
 4298 009a FFF7FEFF 		bl	SX1276ReadFifo
 4299              	.LVL523:
 4300              	.L262:
1536:Drivers/BSP/Components/sx1276/sx1276.c ****                     SX1276.Settings.FskPacketHandler.NbBytes += ( SX1276.Settings.FskPacketHandler.
 4301              		.loc 1 1536 0
 4302 009e 8D4C     		ldr	r4, .L282
 4303 00a0 A08F     		ldrh	r0, [r4, #60]
 4304 00a2 618F     		ldrh	r1, [r4, #58]
 4305 00a4 091A     		subs	r1, r1, r0
 4306 00a6 C9B2     		uxtb	r1, r1
 4307 00a8 8E4B     		ldr	r3, .L282+16
 4308 00aa C018     		adds	r0, r0, r3
 4309 00ac FFF7FEFF 		bl	SX1276ReadFifo
 4310              	.LVL524:
1537:Drivers/BSP/Components/sx1276/sx1276.c ****                 }
 4311              		.loc 1 1537 0
 4312 00b0 638F     		ldrh	r3, [r4, #58]
 4313 00b2 A387     		strh	r3, [r4, #60]
 4314 00b4 4CE0     		b	.L263
 4315              	.L278:
ARM GAS  /var/folders/2m/zqg86yyd4hbf56w83tkxjpvr0000gn/T//ccRNesxV.s 			page 119


1490:Drivers/BSP/Components/sx1276/sx1276.c ****                     if( ( irqFlags & RF_IRQFLAGS2_CRCOK ) != RF_IRQFLAGS2_CRCOK )
 4316              		.loc 1 1490 0
 4317 00b6 3F20     		movs	r0, #63
 4318 00b8 FFF7FEFF 		bl	SX1276Read
 4319              	.LVL525:
 4320 00bc 6B46     		mov	r3, sp
 4321 00be D871     		strb	r0, [r3, #7]
 4322 00c0 0733     		adds	r3, r3, #7
1491:Drivers/BSP/Components/sx1276/sx1276.c ****                     {
 4323              		.loc 1 1491 0
 4324 00c2 1B78     		ldrb	r3, [r3]
 4325 00c4 9B07     		lsls	r3, r3, #30
 4326 00c6 DAD4     		bmi	.L256
1494:Drivers/BSP/Components/sx1276/sx1276.c ****                                                     RF_IRQFLAGS1_PREAMBLEDETECT |
 4327              		.loc 1 1494 0
 4328 00c8 0B21     		movs	r1, #11
 4329 00ca 3E20     		movs	r0, #62
 4330 00cc FFF7FEFF 		bl	SX1276Write
 4331              	.LVL526:
1497:Drivers/BSP/Components/sx1276/sx1276.c **** 
 4332              		.loc 1 1497 0
 4333 00d0 1021     		movs	r1, #16
 4334 00d2 3F20     		movs	r0, #63
 4335 00d4 FFF7FEFF 		bl	SX1276Write
 4336              	.LVL527:
1499:Drivers/BSP/Components/sx1276/sx1276.c **** 
 4337              		.loc 1 1499 0
 4338 00d8 7F48     		ldr	r0, .L282+4
 4339 00da FFF7FEFF 		bl	TimerStop
 4340              	.LVL528:
1501:Drivers/BSP/Components/sx1276/sx1276.c ****                         {
 4341              		.loc 1 1501 0
 4342 00de 7D4A     		ldr	r2, .L282
 4343 00e0 2623     		movs	r3, #38
 4344 00e2 D35C     		ldrb	r3, [r2, r3]
 4345 00e4 002B     		cmp	r3, #0
 4346 00e6 16D1     		bne	.L257
1503:Drivers/BSP/Components/sx1276/sx1276.c ****                             SX1276.Settings.State = RF_IDLE;
 4347              		.loc 1 1503 0
 4348 00e8 7F48     		ldr	r0, .L282+20
 4349 00ea FFF7FEFF 		bl	TimerStop
 4350              	.LVL529:
1504:Drivers/BSP/Components/sx1276/sx1276.c ****                         }
 4351              		.loc 1 1504 0
 4352 00ee 794B     		ldr	r3, .L282
 4353 00f0 0022     		movs	r2, #0
 4354 00f2 1A71     		strb	r2, [r3, #4]
 4355              	.L258:
1513:Drivers/BSP/Components/sx1276/sx1276.c ****                         {
 4356              		.loc 1 1513 0
 4357 00f4 794B     		ldr	r3, .L282+8
 4358 00f6 5B68     		ldr	r3, [r3, #4]
 4359 00f8 002B     		cmp	r3, #0
 4360 00fa 03D0     		beq	.L259
1513:Drivers/BSP/Components/sx1276/sx1276.c ****                         {
 4361              		.loc 1 1513 0 is_stmt 0 discriminator 1
 4362 00fc 1B69     		ldr	r3, [r3, #16]
ARM GAS  /var/folders/2m/zqg86yyd4hbf56w83tkxjpvr0000gn/T//ccRNesxV.s 			page 120


 4363 00fe 002B     		cmp	r3, #0
 4364 0100 00D0     		beq	.L259
1515:Drivers/BSP/Components/sx1276/sx1276.c ****                         }
 4365              		.loc 1 1515 0 is_stmt 1
 4366 0102 9847     		blx	r3
 4367              	.LVL530:
 4368              	.L259:
1517:Drivers/BSP/Components/sx1276/sx1276.c ****                         SX1276.Settings.FskPacketHandler.SyncWordDetected = false;
 4369              		.loc 1 1517 0
 4370 0104 734B     		ldr	r3, .L282
 4371 0106 0022     		movs	r2, #0
 4372 0108 3021     		movs	r1, #48
 4373 010a 5A54     		strb	r2, [r3, r1]
1518:Drivers/BSP/Components/sx1276/sx1276.c ****                         SX1276.Settings.FskPacketHandler.NbBytes = 0;
 4374              		.loc 1 1518 0
 4375 010c 0131     		adds	r1, r1, #1
 4376 010e 5A54     		strb	r2, [r3, r1]
1519:Drivers/BSP/Components/sx1276/sx1276.c ****                         SX1276.Settings.FskPacketHandler.Size = 0;
 4377              		.loc 1 1519 0
 4378 0110 9A87     		strh	r2, [r3, #60]
1520:Drivers/BSP/Components/sx1276/sx1276.c ****                         break;
 4379              		.loc 1 1520 0
 4380 0112 5A87     		strh	r2, [r3, #58]
1521:Drivers/BSP/Components/sx1276/sx1276.c ****                     }
 4381              		.loc 1 1521 0
 4382 0114 80E7     		b	.L250
 4383              	.L257:
1509:Drivers/BSP/Components/sx1276/sx1276.c ****                             TimerStart( &RxTimeoutSyncWord );
 4384              		.loc 1 1509 0
 4385 0116 0D20     		movs	r0, #13
 4386 0118 FFF7FEFF 		bl	SX1276Read
 4387              	.LVL531:
 4388 011c 4021     		movs	r1, #64
 4389 011e 0143     		orrs	r1, r0
 4390 0120 C9B2     		uxtb	r1, r1
 4391 0122 0D20     		movs	r0, #13
 4392 0124 FFF7FEFF 		bl	SX1276Write
 4393              	.LVL532:
1510:Drivers/BSP/Components/sx1276/sx1276.c ****                         }
 4394              		.loc 1 1510 0
 4395 0128 6F48     		ldr	r0, .L282+20
 4396 012a FFF7FEFF 		bl	TimerStart
 4397              	.LVL533:
 4398 012e E1E7     		b	.L258
 4399              	.L261:
1534:Drivers/BSP/Components/sx1276/sx1276.c ****                     }
 4400              		.loc 1 1534 0
 4401 0130 3220     		movs	r0, #50
 4402 0132 FFF7FEFF 		bl	SX1276Read
 4403              	.LVL534:
 4404 0136 674B     		ldr	r3, .L282
 4405 0138 5887     		strh	r0, [r3, #58]
 4406 013a B0E7     		b	.L262
 4407              	.L260:
1541:Drivers/BSP/Components/sx1276/sx1276.c ****                     SX1276.Settings.FskPacketHandler.NbBytes += ( SX1276.Settings.FskPacketHandler.
 4408              		.loc 1 1541 0
 4409 013c 654C     		ldr	r4, .L282
ARM GAS  /var/folders/2m/zqg86yyd4hbf56w83tkxjpvr0000gn/T//ccRNesxV.s 			page 121


 4410 013e A08F     		ldrh	r0, [r4, #60]
 4411 0140 091A     		subs	r1, r1, r0
 4412 0142 C9B2     		uxtb	r1, r1
 4413 0144 674B     		ldr	r3, .L282+16
 4414 0146 C018     		adds	r0, r0, r3
 4415 0148 FFF7FEFF 		bl	SX1276ReadFifo
 4416              	.LVL535:
1542:Drivers/BSP/Components/sx1276/sx1276.c ****                 }
 4417              		.loc 1 1542 0
 4418 014c 638F     		ldrh	r3, [r4, #58]
 4419 014e A387     		strh	r3, [r4, #60]
 4420              	.L263:
1545:Drivers/BSP/Components/sx1276/sx1276.c **** 
 4421              		.loc 1 1545 0
 4422 0150 6148     		ldr	r0, .L282+4
 4423 0152 FFF7FEFF 		bl	TimerStop
 4424              	.LVL536:
1547:Drivers/BSP/Components/sx1276/sx1276.c ****                 {
 4425              		.loc 1 1547 0
 4426 0156 5F4A     		ldr	r2, .L282
 4427 0158 2623     		movs	r3, #38
 4428 015a D35C     		ldrb	r3, [r2, r3]
 4429 015c 002B     		cmp	r3, #0
 4430 015e 1CD1     		bne	.L264
1549:Drivers/BSP/Components/sx1276/sx1276.c ****                     TimerStop( &RxTimeoutSyncWord );
 4431              		.loc 1 1549 0
 4432 0160 1300     		movs	r3, r2
 4433 0162 0022     		movs	r2, #0
 4434 0164 1A71     		strb	r2, [r3, #4]
1550:Drivers/BSP/Components/sx1276/sx1276.c ****                 }
 4435              		.loc 1 1550 0
 4436 0166 6048     		ldr	r0, .L282+20
 4437 0168 FFF7FEFF 		bl	TimerStop
 4438              	.LVL537:
 4439              	.L265:
1559:Drivers/BSP/Components/sx1276/sx1276.c ****                 {
 4440              		.loc 1 1559 0
 4441 016c 5B4B     		ldr	r3, .L282+8
 4442 016e 5B68     		ldr	r3, [r3, #4]
 4443 0170 002B     		cmp	r3, #0
 4444 0172 09D0     		beq	.L266
1559:Drivers/BSP/Components/sx1276/sx1276.c ****                 {
 4445              		.loc 1 1559 0 is_stmt 0 discriminator 1
 4446 0174 9C68     		ldr	r4, [r3, #8]
 4447 0176 002C     		cmp	r4, #0
 4448 0178 06D0     		beq	.L266
1561:Drivers/BSP/Components/sx1276/sx1276.c ****                 }
 4449              		.loc 1 1561 0 is_stmt 1
 4450 017a 564B     		ldr	r3, .L282
 4451 017c 3222     		movs	r2, #50
 4452 017e 9A56     		ldrsb	r2, [r3, r2]
 4453 0180 598F     		ldrh	r1, [r3, #58]
 4454 0182 0023     		movs	r3, #0
 4455 0184 5748     		ldr	r0, .L282+16
 4456 0186 A047     		blx	r4
 4457              	.LVL538:
 4458              	.L266:
ARM GAS  /var/folders/2m/zqg86yyd4hbf56w83tkxjpvr0000gn/T//ccRNesxV.s 			page 122


1563:Drivers/BSP/Components/sx1276/sx1276.c ****                 SX1276.Settings.FskPacketHandler.SyncWordDetected = false;
 4459              		.loc 1 1563 0
 4460 0188 524B     		ldr	r3, .L282
 4461 018a 0022     		movs	r2, #0
 4462 018c 3021     		movs	r1, #48
 4463 018e 5A54     		strb	r2, [r3, r1]
1564:Drivers/BSP/Components/sx1276/sx1276.c ****                 SX1276.Settings.FskPacketHandler.NbBytes = 0;
 4464              		.loc 1 1564 0
 4465 0190 0131     		adds	r1, r1, #1
 4466 0192 5A54     		strb	r2, [r3, r1]
1565:Drivers/BSP/Components/sx1276/sx1276.c ****                 SX1276.Settings.FskPacketHandler.Size = 0;
 4467              		.loc 1 1565 0
 4468 0194 9A87     		strh	r2, [r3, #60]
1566:Drivers/BSP/Components/sx1276/sx1276.c ****                 break;
 4469              		.loc 1 1566 0
 4470 0196 5A87     		strh	r2, [r3, #58]
1567:Drivers/BSP/Components/sx1276/sx1276.c ****             case MODEM_LORA:
 4471              		.loc 1 1567 0
 4472 0198 3EE7     		b	.L250
 4473              	.L264:
1555:Drivers/BSP/Components/sx1276/sx1276.c ****                     TimerStart( &RxTimeoutSyncWord );
 4474              		.loc 1 1555 0
 4475 019a 0D20     		movs	r0, #13
 4476 019c FFF7FEFF 		bl	SX1276Read
 4477              	.LVL539:
 4478 01a0 4021     		movs	r1, #64
 4479 01a2 0143     		orrs	r1, r0
 4480 01a4 C9B2     		uxtb	r1, r1
 4481 01a6 0D20     		movs	r0, #13
 4482 01a8 FFF7FEFF 		bl	SX1276Write
 4483              	.LVL540:
1556:Drivers/BSP/Components/sx1276/sx1276.c ****                 }
 4484              		.loc 1 1556 0
 4485 01ac 4E48     		ldr	r0, .L282+20
 4486 01ae FFF7FEFF 		bl	TimerStart
 4487              	.LVL541:
 4488 01b2 DBE7     		b	.L265
 4489              	.LVL542:
 4490              	.L267:
 4491              	.LBB8:
1594:Drivers/BSP/Components/sx1276/sx1276.c ****                     if( SX1276.Settings.LoRaPacketHandler.SnrValue & 0x80 ) // The SNR sign bit is 
 4492              		.loc 1 1594 0
 4493 01b4 1920     		movs	r0, #25
 4494 01b6 FFF7FEFF 		bl	SX1276Read
 4495              	.LVL543:
 4496 01ba 43B2     		sxtb	r3, r0
 4497 01bc 4549     		ldr	r1, .L282
 4498 01be 6022     		movs	r2, #96
 4499 01c0 8B54     		strb	r3, [r1, r2]
1595:Drivers/BSP/Components/sx1276/sx1276.c ****                     {
 4500              		.loc 1 1595 0
 4501 01c2 002B     		cmp	r3, #0
 4502 01c4 44DB     		blt	.L279
1604:Drivers/BSP/Components/sx1276/sx1276.c ****                     }
 4503              		.loc 1 1604 0
 4504 01c6 9B10     		asrs	r3, r3, #2
 4505 01c8 3F24     		movs	r4, #63
ARM GAS  /var/folders/2m/zqg86yyd4hbf56w83tkxjpvr0000gn/T//ccRNesxV.s 			page 123


 4506 01ca 1C40     		ands	r4, r3
 4507              	.LVL544:
 4508              	.L270:
1607:Drivers/BSP/Components/sx1276/sx1276.c ****                     if( snr < 0 )
 4509              		.loc 1 1607 0
 4510 01cc 1A20     		movs	r0, #26
 4511 01ce FFF7FEFF 		bl	SX1276Read
 4512              	.LVL545:
 4513 01d2 03B2     		sxth	r3, r0
 4514              	.LVL546:
1608:Drivers/BSP/Components/sx1276/sx1276.c ****                     {
 4515              		.loc 1 1608 0
 4516 01d4 002C     		cmp	r4, #0
 4517 01d6 41DB     		blt	.L280
1623:Drivers/BSP/Components/sx1276/sx1276.c ****                         {
 4518              		.loc 1 1623 0
 4519 01d8 3E4A     		ldr	r2, .L282
 4520 01da 9168     		ldr	r1, [r2, #8]
 4521 01dc 434A     		ldr	r2, .L282+24
 4522 01de 9142     		cmp	r1, r2
 4523 01e0 53D9     		bls	.L274
1625:Drivers/BSP/Components/sx1276/sx1276.c ****                         }
 4524              		.loc 1 1625 0
 4525 01e2 1B11     		asrs	r3, r3, #4
 4526              	.LVL547:
 4527 01e4 1B18     		adds	r3, r3, r0
 4528 01e6 9D3B     		subs	r3, r3, #157
 4529 01e8 3A49     		ldr	r1, .L282
 4530 01ea 6222     		movs	r2, #98
 4531 01ec 8B52     		strh	r3, [r1, r2]
 4532              	.L273:
1633:Drivers/BSP/Components/sx1276/sx1276.c ****                     SX1276Write( REG_LR_FIFOADDRPTR, SX1276Read( REG_LR_FIFORXCURRENTADDR ) );
 4533              		.loc 1 1633 0
 4534 01ee 1320     		movs	r0, #19
 4535              	.LVL548:
 4536 01f0 FFF7FEFF 		bl	SX1276Read
 4537              	.LVL549:
 4538 01f4 374C     		ldr	r4, .L282
 4539              	.LVL550:
 4540 01f6 6425     		movs	r5, #100
 4541 01f8 6055     		strb	r0, [r4, r5]
1634:Drivers/BSP/Components/sx1276/sx1276.c ****                     SX1276ReadFifo( RxTxBuffer, SX1276.Settings.LoRaPacketHandler.Size );
 4542              		.loc 1 1634 0
 4543 01fa 1020     		movs	r0, #16
 4544 01fc FFF7FEFF 		bl	SX1276Read
 4545              	.LVL551:
 4546 0200 0100     		movs	r1, r0
 4547 0202 0D20     		movs	r0, #13
 4548 0204 FFF7FEFF 		bl	SX1276Write
 4549              	.LVL552:
1635:Drivers/BSP/Components/sx1276/sx1276.c **** 
 4550              		.loc 1 1635 0
 4551 0208 615D     		ldrb	r1, [r4, r5]
 4552 020a 3648     		ldr	r0, .L282+16
 4553 020c FFF7FEFF 		bl	SX1276ReadFifo
 4554              	.LVL553:
1637:Drivers/BSP/Components/sx1276/sx1276.c ****                     {
ARM GAS  /var/folders/2m/zqg86yyd4hbf56w83tkxjpvr0000gn/T//ccRNesxV.s 			page 124


 4555              		.loc 1 1637 0
 4556 0210 5623     		movs	r3, #86
 4557 0212 E35C     		ldrb	r3, [r4, r3]
 4558 0214 002B     		cmp	r3, #0
 4559 0216 02D1     		bne	.L275
1639:Drivers/BSP/Components/sx1276/sx1276.c ****                     }
 4560              		.loc 1 1639 0
 4561 0218 2E4B     		ldr	r3, .L282
 4562 021a 0022     		movs	r2, #0
 4563 021c 1A71     		strb	r2, [r3, #4]
 4564              	.L275:
1641:Drivers/BSP/Components/sx1276/sx1276.c **** 
 4565              		.loc 1 1641 0
 4566 021e 2E48     		ldr	r0, .L282+4
 4567 0220 FFF7FEFF 		bl	TimerStop
 4568              	.LVL554:
1643:Drivers/BSP/Components/sx1276/sx1276.c ****                     {
 4569              		.loc 1 1643 0
 4570 0224 2D4B     		ldr	r3, .L282+8
 4571 0226 5B68     		ldr	r3, [r3, #4]
 4572 0228 002B     		cmp	r3, #0
 4573 022a 00D1     		bne	.LCB4248
 4574 022c F4E6     		b	.L250	@long jump
 4575              	.LCB4248:
1643:Drivers/BSP/Components/sx1276/sx1276.c ****                     {
 4576              		.loc 1 1643 0 is_stmt 0 discriminator 1
 4577 022e 9C68     		ldr	r4, [r3, #8]
 4578 0230 002C     		cmp	r4, #0
 4579 0232 00D1     		bne	.LCB4251
 4580 0234 F0E6     		b	.L250	@long jump
 4581              	.LCB4251:
1645:Drivers/BSP/Components/sx1276/sx1276.c ****                         PRINTF( "rxDone\n\r" );
 4582              		.loc 1 1645 0 is_stmt 1
 4583 0236 2749     		ldr	r1, .L282
 4584 0238 6023     		movs	r3, #96
 4585 023a CB56     		ldrsb	r3, [r1, r3]
 4586 023c 6222     		movs	r2, #98
 4587 023e 8A5E     		ldrsh	r2, [r1, r2]
 4588 0240 6420     		movs	r0, #100
 4589 0242 095C     		ldrb	r1, [r1, r0]
 4590 0244 2748     		ldr	r0, .L282+16
 4591 0246 A047     		blx	r4
 4592              	.LVL555:
1646:Drivers/BSP/Components/sx1276/sx1276.c ****                     }
 4593              		.loc 1 1646 0
 4594 0248 2948     		ldr	r0, .L282+28
 4595 024a FFF7FEFF 		bl	vcom_Send
 4596              	.LVL556:
 4597 024e E3E6     		b	.L250
 4598              	.LVL557:
 4599              	.L279:
1598:Drivers/BSP/Components/sx1276/sx1276.c ****                         snr = -snr;
 4600              		.loc 1 1598 0
 4601 0250 5B42     		rsbs	r3, r3, #0
 4602 0252 9B10     		asrs	r3, r3, #2
 4603 0254 3F24     		movs	r4, #63
 4604 0256 1C40     		ands	r4, r3
ARM GAS  /var/folders/2m/zqg86yyd4hbf56w83tkxjpvr0000gn/T//ccRNesxV.s 			page 125


 4605              	.LVL558:
1599:Drivers/BSP/Components/sx1276/sx1276.c ****                     }
 4606              		.loc 1 1599 0
 4607 0258 6442     		rsbs	r4, r4, #0
 4608              	.LVL559:
 4609 025a B7E7     		b	.L270
 4610              	.LVL560:
 4611              	.L280:
1610:Drivers/BSP/Components/sx1276/sx1276.c ****                         {
 4612              		.loc 1 1610 0
 4613 025c 1D4A     		ldr	r2, .L282
 4614 025e 9168     		ldr	r1, [r2, #8]
 4615 0260 224A     		ldr	r2, .L282+24
 4616 0262 9142     		cmp	r1, r2
 4617 0264 08D9     		bls	.L272
1612:Drivers/BSP/Components/sx1276/sx1276.c ****                                                                           snr;
 4618              		.loc 1 1612 0
 4619 0266 1B11     		asrs	r3, r3, #4
 4620              	.LVL561:
 4621 0268 1B18     		adds	r3, r3, r0
 4622 026a 9BB2     		uxth	r3, r3
 4623 026c 1B19     		adds	r3, r3, r4
 4624 026e 9D3B     		subs	r3, r3, #157
 4625 0270 1849     		ldr	r1, .L282
 4626 0272 6222     		movs	r2, #98
 4627 0274 8B52     		strh	r3, [r1, r2]
 4628 0276 BAE7     		b	.L273
 4629              	.LVL562:
 4630              	.L272:
1617:Drivers/BSP/Components/sx1276/sx1276.c ****                                                                           snr;
 4631              		.loc 1 1617 0
 4632 0278 1B11     		asrs	r3, r3, #4
 4633              	.LVL563:
 4634 027a 1B18     		adds	r3, r3, r0
 4635 027c 9BB2     		uxth	r3, r3
 4636 027e 1B19     		adds	r3, r3, r4
 4637 0280 A43B     		subs	r3, r3, #164
 4638 0282 1449     		ldr	r1, .L282
 4639 0284 6222     		movs	r2, #98
 4640 0286 8B52     		strh	r3, [r1, r2]
 4641 0288 B1E7     		b	.L273
 4642              	.LVL564:
 4643              	.L274:
1629:Drivers/BSP/Components/sx1276/sx1276.c ****                         }
 4644              		.loc 1 1629 0
 4645 028a 1B11     		asrs	r3, r3, #4
 4646              	.LVL565:
 4647 028c 1B18     		adds	r3, r3, r0
 4648 028e A43B     		subs	r3, r3, #164
 4649 0290 1049     		ldr	r1, .L282
 4650 0292 6222     		movs	r2, #98
 4651 0294 8B52     		strh	r3, [r1, r2]
 4652 0296 AAE7     		b	.L273
 4653              	.LVL566:
 4654              	.L253:
 4655              	.LBE8:
1655:Drivers/BSP/Components/sx1276/sx1276.c ****             // TxDone interrupt
ARM GAS  /var/folders/2m/zqg86yyd4hbf56w83tkxjpvr0000gn/T//ccRNesxV.s 			page 126


 4656              		.loc 1 1655 0
 4657 0298 1648     		ldr	r0, .L282+32
 4658 029a FFF7FEFF 		bl	TimerStop
 4659              	.LVL567:
1657:Drivers/BSP/Components/sx1276/sx1276.c ****             {
 4660              		.loc 1 1657 0
 4661 029e 0D4B     		ldr	r3, .L282
 4662 02a0 5B79     		ldrb	r3, [r3, #5]
 4663 02a2 012B     		cmp	r3, #1
 4664 02a4 10D0     		beq	.L281
 4665              	.L276:
1665:Drivers/BSP/Components/sx1276/sx1276.c ****                 if( ( RadioEvents != NULL ) && ( RadioEvents->TxDone != NULL ) )
 4666              		.loc 1 1665 0
 4667 02a6 0B4B     		ldr	r3, .L282
 4668 02a8 0022     		movs	r2, #0
 4669 02aa 1A71     		strb	r2, [r3, #4]
1666:Drivers/BSP/Components/sx1276/sx1276.c ****                 {
 4670              		.loc 1 1666 0
 4671 02ac 0B4B     		ldr	r3, .L282+8
 4672 02ae 5B68     		ldr	r3, [r3, #4]
 4673 02b0 002B     		cmp	r3, #0
 4674 02b2 00D1     		bne	.LCB4354
 4675 02b4 B0E6     		b	.L250	@long jump
 4676              	.LCB4354:
1666:Drivers/BSP/Components/sx1276/sx1276.c ****                 {
 4677              		.loc 1 1666 0 is_stmt 0 discriminator 1
 4678 02b6 1B68     		ldr	r3, [r3]
 4679 02b8 002B     		cmp	r3, #0
 4680 02ba 00D1     		bne	.LCB4357
 4681 02bc ACE6     		b	.L250	@long jump
 4682              	.LCB4357:
1668:Drivers/BSP/Components/sx1276/sx1276.c ****                     PRINTF( "txDone\n\r" );
 4683              		.loc 1 1668 0 is_stmt 1
 4684 02be 9847     		blx	r3
 4685              	.LVL568:
1669:Drivers/BSP/Components/sx1276/sx1276.c ****                 }
 4686              		.loc 1 1669 0
 4687 02c0 0D48     		ldr	r0, .L282+36
 4688 02c2 FFF7FEFF 		bl	vcom_Send
 4689              	.LVL569:
1677:Drivers/BSP/Components/sx1276/sx1276.c **** 
 4690              		.loc 1 1677 0
 4691 02c6 A7E6     		b	.L250
 4692              	.L281:
1661:Drivers/BSP/Components/sx1276/sx1276.c ****                 // Intentional fall through
 4693              		.loc 1 1661 0
 4694 02c8 0821     		movs	r1, #8
 4695 02ca 1220     		movs	r0, #18
 4696 02cc FFF7FEFF 		bl	SX1276Write
 4697              	.LVL570:
 4698 02d0 E9E7     		b	.L276
 4699              	.L283:
 4700 02d2 C046     		.align	2
 4701              	.L282:
 4702 02d4 00000000 		.word	SX1276
 4703 02d8 00000000 		.word	RxTimeoutTimer
 4704 02dc 00000000 		.word	.LANCHOR0
ARM GAS  /var/folders/2m/zqg86yyd4hbf56w83tkxjpvr0000gn/T//ccRNesxV.s 			page 127


 4705 02e0 3A000000 		.word	SX1276+58
 4706 02e4 08000000 		.word	RxTxBuffer
 4707 02e8 00000000 		.word	RxTimeoutSyncWord
 4708 02ec 40DD4A1F 		.word	525000000
 4709 02f0 00000000 		.word	.LC49
 4710 02f4 00000000 		.word	TxTimeoutTimer
 4711 02f8 0C000000 		.word	.LC52
 4712              		.cfi_endproc
 4713              	.LFE72:
 4715              		.section	.text.SX1276OnDio1Irq,"ax",%progbits
 4716              		.align	1
 4717              		.global	SX1276OnDio1Irq
 4718              		.syntax unified
 4719              		.code	16
 4720              		.thumb_func
 4721              		.fpu softvfp
 4723              	SX1276OnDio1Irq:
 4724              	.LFB73:
1680:Drivers/BSP/Components/sx1276/sx1276.c ****     switch( SX1276.Settings.State )
 4725              		.loc 1 1680 0
 4726              		.cfi_startproc
 4727              		@ args = 0, pretend = 0, frame = 0
 4728              		@ frame_needed = 0, uses_anonymous_args = 0
 4729 0000 10B5     		push	{r4, lr}
 4730              	.LCFI40:
 4731              		.cfi_def_cfa_offset 8
 4732              		.cfi_offset 4, -8
 4733              		.cfi_offset 14, -4
1681:Drivers/BSP/Components/sx1276/sx1276.c ****     {
 4734              		.loc 1 1681 0
 4735 0002 3C4B     		ldr	r3, .L296
 4736 0004 1B79     		ldrb	r3, [r3, #4]
 4737 0006 012B     		cmp	r3, #1
 4738 0008 02D0     		beq	.L286
 4739 000a 022B     		cmp	r3, #2
 4740 000c 50D0     		beq	.L287
 4741              	.L284:
1755:Drivers/BSP/Components/sx1276/sx1276.c **** 
 4742              		.loc 1 1755 0
 4743              		@ sp needed
 4744 000e 10BD     		pop	{r4, pc}
 4745              	.L286:
1684:Drivers/BSP/Components/sx1276/sx1276.c ****             {
 4746              		.loc 1 1684 0
 4747 0010 384B     		ldr	r3, .L296
 4748 0012 5B79     		ldrb	r3, [r3, #5]
 4749 0014 002B     		cmp	r3, #0
 4750 0016 17D0     		beq	.L288
 4751 0018 012B     		cmp	r3, #1
 4752 001a F8D1     		bne	.L284
1714:Drivers/BSP/Components/sx1276/sx1276.c ****                 // Clear Irq
 4753              		.loc 1 1714 0
 4754 001c 3648     		ldr	r0, .L296+4
 4755 001e FFF7FEFF 		bl	TimerStop
 4756              	.LVL571:
1716:Drivers/BSP/Components/sx1276/sx1276.c **** 
 4757              		.loc 1 1716 0
ARM GAS  /var/folders/2m/zqg86yyd4hbf56w83tkxjpvr0000gn/T//ccRNesxV.s 			page 128


 4758 0022 8021     		movs	r1, #128
 4759 0024 1220     		movs	r0, #18
 4760 0026 FFF7FEFF 		bl	SX1276Write
 4761              	.LVL572:
1718:Drivers/BSP/Components/sx1276/sx1276.c ****                 if( ( RadioEvents != NULL ) && ( RadioEvents->RxTimeout != NULL ) )
 4762              		.loc 1 1718 0
 4763 002a 324B     		ldr	r3, .L296
 4764 002c 0022     		movs	r2, #0
 4765 002e 1A71     		strb	r2, [r3, #4]
1719:Drivers/BSP/Components/sx1276/sx1276.c ****                 {
 4766              		.loc 1 1719 0
 4767 0030 324B     		ldr	r3, .L296+8
 4768 0032 5B68     		ldr	r3, [r3, #4]
 4769 0034 002B     		cmp	r3, #0
 4770 0036 EAD0     		beq	.L284
1719:Drivers/BSP/Components/sx1276/sx1276.c ****                 {
 4771              		.loc 1 1719 0 is_stmt 0 discriminator 1
 4772 0038 DB68     		ldr	r3, [r3, #12]
 4773 003a 002B     		cmp	r3, #0
 4774 003c E7D0     		beq	.L284
1721:Drivers/BSP/Components/sx1276/sx1276.c ****                     PRINTF( "rxTimeOut\n\r" );
 4775              		.loc 1 1721 0 is_stmt 1
 4776 003e 9847     		blx	r3
 4777              	.LVL573:
1722:Drivers/BSP/Components/sx1276/sx1276.c ****                 }
 4778              		.loc 1 1722 0
 4779 0040 2F48     		ldr	r0, .L296+12
 4780 0042 FFF7FEFF 		bl	vcom_Send
 4781              	.LVL574:
 4782 0046 E2E7     		b	.L284
 4783              	.L288:
1689:Drivers/BSP/Components/sx1276/sx1276.c ****                 {
 4784              		.loc 1 1689 0
 4785 0048 2A4B     		ldr	r3, .L296
 4786 004a 5B8F     		ldrh	r3, [r3, #58]
 4787 004c 002B     		cmp	r3, #0
 4788 004e 0CD1     		bne	.L290
1689:Drivers/BSP/Components/sx1276/sx1276.c ****                 {
 4789              		.loc 1 1689 0 is_stmt 0 discriminator 1
 4790 0050 284B     		ldr	r3, .L296
 4791 0052 9B8F     		ldrh	r3, [r3, #60]
 4792 0054 002B     		cmp	r3, #0
 4793 0056 08D1     		bne	.L290
1691:Drivers/BSP/Components/sx1276/sx1276.c ****                     {
 4794              		.loc 1 1691 0 is_stmt 1
 4795 0058 264A     		ldr	r2, .L296
 4796 005a 2233     		adds	r3, r3, #34
 4797 005c D35C     		ldrb	r3, [r2, r3]
 4798 005e 002B     		cmp	r3, #0
 4799 0060 16D1     		bne	.L291
1693:Drivers/BSP/Components/sx1276/sx1276.c ****                     }
 4800              		.loc 1 1693 0
 4801 0062 0121     		movs	r1, #1
 4802 0064 2748     		ldr	r0, .L296+16
 4803 0066 FFF7FEFF 		bl	SX1276ReadFifo
 4804              	.LVL575:
 4805              	.L290:
ARM GAS  /var/folders/2m/zqg86yyd4hbf56w83tkxjpvr0000gn/T//ccRNesxV.s 			page 129


1701:Drivers/BSP/Components/sx1276/sx1276.c ****                 {
 4806              		.loc 1 1701 0
 4807 006a 224A     		ldr	r2, .L296
 4808 006c 538F     		ldrh	r3, [r2, #58]
 4809 006e 908F     		ldrh	r0, [r2, #60]
 4810 0070 1C1A     		subs	r4, r3, r0
 4811 0072 3E21     		movs	r1, #62
 4812 0074 515C     		ldrb	r1, [r2, r1]
 4813 0076 8C42     		cmp	r4, r1
 4814 0078 10DD     		ble	.L292
1703:Drivers/BSP/Components/sx1276/sx1276.c ****                     SX1276.Settings.FskPacketHandler.NbBytes += SX1276.Settings.FskPacketHandler.Fi
 4815              		.loc 1 1703 0
 4816 007a 234B     		ldr	r3, .L296+20
 4817 007c C018     		adds	r0, r0, r3
 4818 007e FFF7FEFF 		bl	SX1276ReadFifo
 4819              	.LVL576:
1704:Drivers/BSP/Components/sx1276/sx1276.c ****                 }
 4820              		.loc 1 1704 0
 4821 0082 1C4B     		ldr	r3, .L296
 4822 0084 3E22     		movs	r2, #62
 4823 0086 9A5C     		ldrb	r2, [r3, r2]
 4824 0088 998F     		ldrh	r1, [r3, #60]
 4825 008a 5218     		adds	r2, r2, r1
 4826 008c 9A87     		strh	r2, [r3, #60]
 4827 008e BEE7     		b	.L284
 4828              	.L291:
1697:Drivers/BSP/Components/sx1276/sx1276.c ****                     }
 4829              		.loc 1 1697 0
 4830 0090 3220     		movs	r0, #50
 4831 0092 FFF7FEFF 		bl	SX1276Read
 4832              	.LVL577:
 4833 0096 174B     		ldr	r3, .L296
 4834 0098 5887     		strh	r0, [r3, #58]
 4835 009a E6E7     		b	.L290
 4836              	.L292:
1708:Drivers/BSP/Components/sx1276/sx1276.c ****                     SX1276.Settings.FskPacketHandler.NbBytes += ( SX1276.Settings.FskPacketHandler.
 4837              		.loc 1 1708 0
 4838 009c 191A     		subs	r1, r3, r0
 4839 009e C9B2     		uxtb	r1, r1
 4840 00a0 194B     		ldr	r3, .L296+20
 4841 00a2 C018     		adds	r0, r0, r3
 4842 00a4 FFF7FEFF 		bl	SX1276ReadFifo
 4843              	.LVL578:
1709:Drivers/BSP/Components/sx1276/sx1276.c ****                 }
 4844              		.loc 1 1709 0
 4845 00a8 124B     		ldr	r3, .L296
 4846 00aa 5A8F     		ldrh	r2, [r3, #58]
 4847 00ac 9A87     		strh	r2, [r3, #60]
 4848 00ae AEE7     		b	.L284
 4849              	.L287:
1730:Drivers/BSP/Components/sx1276/sx1276.c ****             {
 4850              		.loc 1 1730 0
 4851 00b0 104B     		ldr	r3, .L296
 4852 00b2 5B79     		ldrb	r3, [r3, #5]
 4853 00b4 002B     		cmp	r3, #0
 4854 00b6 AAD1     		bne	.L284
1734:Drivers/BSP/Components/sx1276/sx1276.c ****                 {
ARM GAS  /var/folders/2m/zqg86yyd4hbf56w83tkxjpvr0000gn/T//ccRNesxV.s 			page 130


 4855              		.loc 1 1734 0
 4856 00b8 0E4A     		ldr	r2, .L296
 4857 00ba 538F     		ldrh	r3, [r2, #58]
 4858 00bc 908F     		ldrh	r0, [r2, #60]
 4859 00be 1C1A     		subs	r4, r3, r0
 4860 00c0 3F21     		movs	r1, #63
 4861 00c2 515C     		ldrb	r1, [r2, r1]
 4862 00c4 8C42     		cmp	r4, r1
 4863 00c6 09DC     		bgt	.L295
1742:Drivers/BSP/Components/sx1276/sx1276.c ****                     SX1276.Settings.FskPacketHandler.NbBytes += SX1276.Settings.FskPacketHandler.Si
 4864              		.loc 1 1742 0
 4865 00c8 191A     		subs	r1, r3, r0
 4866 00ca C9B2     		uxtb	r1, r1
 4867 00cc 0E4B     		ldr	r3, .L296+20
 4868 00ce C018     		adds	r0, r0, r3
 4869 00d0 FFF7FEFF 		bl	SX1276WriteFifo
 4870              	.LVL579:
1743:Drivers/BSP/Components/sx1276/sx1276.c ****                 }
 4871              		.loc 1 1743 0
 4872 00d4 074B     		ldr	r3, .L296
 4873 00d6 5A8F     		ldrh	r2, [r3, #58]
 4874 00d8 9A87     		strh	r2, [r3, #60]
1755:Drivers/BSP/Components/sx1276/sx1276.c **** 
 4875              		.loc 1 1755 0
 4876 00da 98E7     		b	.L284
 4877              	.L295:
1736:Drivers/BSP/Components/sx1276/sx1276.c ****                     SX1276.Settings.FskPacketHandler.NbBytes += SX1276.Settings.FskPacketHandler.Ch
 4878              		.loc 1 1736 0
 4879 00dc 0A4B     		ldr	r3, .L296+20
 4880 00de C018     		adds	r0, r0, r3
 4881 00e0 FFF7FEFF 		bl	SX1276WriteFifo
 4882              	.LVL580:
1737:Drivers/BSP/Components/sx1276/sx1276.c ****                 }
 4883              		.loc 1 1737 0
 4884 00e4 034B     		ldr	r3, .L296
 4885 00e6 3F22     		movs	r2, #63
 4886 00e8 9A5C     		ldrb	r2, [r3, r2]
 4887 00ea 998F     		ldrh	r1, [r3, #60]
 4888 00ec 5218     		adds	r2, r2, r1
 4889 00ee 9A87     		strh	r2, [r3, #60]
 4890 00f0 8DE7     		b	.L284
 4891              	.L297:
 4892 00f2 C046     		.align	2
 4893              	.L296:
 4894 00f4 00000000 		.word	SX1276
 4895 00f8 00000000 		.word	RxTimeoutTimer
 4896 00fc 00000000 		.word	.LANCHOR0
 4897 0100 18000000 		.word	.LC59
 4898 0104 3A000000 		.word	SX1276+58
 4899 0108 08000000 		.word	RxTxBuffer
 4900              		.cfi_endproc
 4901              	.LFE73:
 4903              		.section	.text.SX1276SetMaxPayloadLength,"ax",%progbits
 4904              		.align	1
 4905              		.global	SX1276SetMaxPayloadLength
 4906              		.syntax unified
 4907              		.code	16
ARM GAS  /var/folders/2m/zqg86yyd4hbf56w83tkxjpvr0000gn/T//ccRNesxV.s 			page 131


 4908              		.thumb_func
 4909              		.fpu softvfp
 4911              	SX1276SetMaxPayloadLength:
 4912              	.LFB68:
1363:Drivers/BSP/Components/sx1276/sx1276.c ****     SX1276SetModem( modem );
 4913              		.loc 1 1363 0
 4914              		.cfi_startproc
 4915              		@ args = 0, pretend = 0, frame = 0
 4916              		@ frame_needed = 0, uses_anonymous_args = 0
 4917              	.LVL581:
 4918 0000 70B5     		push	{r4, r5, r6, lr}
 4919              	.LCFI41:
 4920              		.cfi_def_cfa_offset 16
 4921              		.cfi_offset 4, -16
 4922              		.cfi_offset 5, -12
 4923              		.cfi_offset 6, -8
 4924              		.cfi_offset 14, -4
 4925 0002 0400     		movs	r4, r0
 4926 0004 0D00     		movs	r5, r1
1364:Drivers/BSP/Components/sx1276/sx1276.c **** 
 4927              		.loc 1 1364 0
 4928 0006 FFF7FEFF 		bl	SX1276SetModem
 4929              	.LVL582:
1366:Drivers/BSP/Components/sx1276/sx1276.c ****     {
 4930              		.loc 1 1366 0
 4931 000a 002C     		cmp	r4, #0
 4932 000c 02D0     		beq	.L300
 4933 000e 012C     		cmp	r4, #1
 4934 0010 0AD0     		beq	.L301
 4935              	.L298:
1378:Drivers/BSP/Components/sx1276/sx1276.c **** 
 4936              		.loc 1 1378 0
 4937              		@ sp needed
 4938 0012 70BD     		pop	{r4, r5, r6, pc}
 4939              	.L300:
1369:Drivers/BSP/Components/sx1276/sx1276.c ****         {
 4940              		.loc 1 1369 0
 4941 0014 074A     		ldr	r2, .L302
 4942 0016 2223     		movs	r3, #34
 4943 0018 D35C     		ldrb	r3, [r2, r3]
 4944 001a 002B     		cmp	r3, #0
 4945 001c F9D1     		bne	.L298
1371:Drivers/BSP/Components/sx1276/sx1276.c ****         }
 4946              		.loc 1 1371 0
 4947 001e 2900     		movs	r1, r5
 4948 0020 3220     		movs	r0, #50
 4949 0022 FFF7FEFF 		bl	SX1276Write
 4950              	.LVL583:
 4951 0026 F4E7     		b	.L298
 4952              	.L301:
1375:Drivers/BSP/Components/sx1276/sx1276.c ****         break;
 4953              		.loc 1 1375 0
 4954 0028 2900     		movs	r1, r5
 4955 002a 2320     		movs	r0, #35
 4956 002c FFF7FEFF 		bl	SX1276Write
 4957              	.LVL584:
1378:Drivers/BSP/Components/sx1276/sx1276.c **** 
ARM GAS  /var/folders/2m/zqg86yyd4hbf56w83tkxjpvr0000gn/T//ccRNesxV.s 			page 132


 4958              		.loc 1 1378 0
 4959 0030 EFE7     		b	.L298
 4960              	.L303:
 4961 0032 C046     		.align	2
 4962              	.L302:
 4963 0034 00000000 		.word	SX1276
 4964              		.cfi_endproc
 4965              	.LFE68:
 4967              		.section	.text.SX1276SetPublicNetwork,"ax",%progbits
 4968              		.align	1
 4969              		.global	SX1276SetPublicNetwork
 4970              		.syntax unified
 4971              		.code	16
 4972              		.thumb_func
 4973              		.fpu softvfp
 4975              	SX1276SetPublicNetwork:
 4976              	.LFB69:
1381:Drivers/BSP/Components/sx1276/sx1276.c ****     SX1276SetModem( MODEM_LORA );
 4977              		.loc 1 1381 0
 4978              		.cfi_startproc
 4979              		@ args = 0, pretend = 0, frame = 0
 4980              		@ frame_needed = 0, uses_anonymous_args = 0
 4981              	.LVL585:
 4982 0000 10B5     		push	{r4, lr}
 4983              	.LCFI42:
 4984              		.cfi_def_cfa_offset 8
 4985              		.cfi_offset 4, -8
 4986              		.cfi_offset 14, -4
 4987 0002 0400     		movs	r4, r0
1382:Drivers/BSP/Components/sx1276/sx1276.c ****     SX1276.Settings.LoRa.PublicNetwork = enable;
 4988              		.loc 1 1382 0
 4989 0004 0120     		movs	r0, #1
 4990              	.LVL586:
 4991 0006 FFF7FEFF 		bl	SX1276SetModem
 4992              	.LVL587:
1383:Drivers/BSP/Components/sx1276/sx1276.c ****     if( enable == true )
 4993              		.loc 1 1383 0
 4994 000a 074A     		ldr	r2, .L308
 4995 000c 5C23     		movs	r3, #92
 4996 000e D454     		strb	r4, [r2, r3]
1384:Drivers/BSP/Components/sx1276/sx1276.c ****     {
 4997              		.loc 1 1384 0
 4998 0010 002C     		cmp	r4, #0
 4999 0012 04D1     		bne	.L307
1392:Drivers/BSP/Components/sx1276/sx1276.c ****     }
 5000              		.loc 1 1392 0
 5001 0014 1221     		movs	r1, #18
 5002 0016 3920     		movs	r0, #57
 5003 0018 FFF7FEFF 		bl	SX1276Write
 5004              	.LVL588:
 5005              	.L304:
1394:Drivers/BSP/Components/sx1276/sx1276.c **** 
 5006              		.loc 1 1394 0
 5007              		@ sp needed
 5008 001c 10BD     		pop	{r4, pc}
 5009              	.L307:
1387:Drivers/BSP/Components/sx1276/sx1276.c ****     }
ARM GAS  /var/folders/2m/zqg86yyd4hbf56w83tkxjpvr0000gn/T//ccRNesxV.s 			page 133


 5010              		.loc 1 1387 0
 5011 001e 3421     		movs	r1, #52
 5012 0020 3920     		movs	r0, #57
 5013 0022 FFF7FEFF 		bl	SX1276Write
 5014              	.LVL589:
 5015 0026 F9E7     		b	.L304
 5016              	.L309:
 5017              		.align	2
 5018              	.L308:
 5019 0028 00000000 		.word	SX1276
 5020              		.cfi_endproc
 5021              	.LFE69:
 5023              		.section	.text.SX1276OnTimeoutIrq,"ax",%progbits
 5024              		.align	1
 5025              		.global	SX1276OnTimeoutIrq
 5026              		.syntax unified
 5027              		.code	16
 5028              		.thumb_func
 5029              		.fpu softvfp
 5031              	SX1276OnTimeoutIrq:
 5032              	.LFB71:
1402:Drivers/BSP/Components/sx1276/sx1276.c ****     switch( SX1276.Settings.State )
 5033              		.loc 1 1402 0
 5034              		.cfi_startproc
 5035              		@ args = 0, pretend = 0, frame = 0
 5036              		@ frame_needed = 0, uses_anonymous_args = 0
 5037 0000 70B5     		push	{r4, r5, r6, lr}
 5038              	.LCFI43:
 5039              		.cfi_def_cfa_offset 16
 5040              		.cfi_offset 4, -16
 5041              		.cfi_offset 5, -12
 5042              		.cfi_offset 6, -8
 5043              		.cfi_offset 14, -4
1403:Drivers/BSP/Components/sx1276/sx1276.c ****     {
 5044              		.loc 1 1403 0
 5045 0002 334B     		ldr	r3, .L319
 5046 0004 1B79     		ldrb	r3, [r3, #4]
 5047 0006 012B     		cmp	r3, #1
 5048 0008 02D0     		beq	.L312
 5049 000a 022B     		cmp	r3, #2
 5050 000c 34D0     		beq	.L313
 5051              	.L310:
1474:Drivers/BSP/Components/sx1276/sx1276.c **** 
 5052              		.loc 1 1474 0
 5053              		@ sp needed
 5054 000e 70BD     		pop	{r4, r5, r6, pc}
 5055              	.L312:
1406:Drivers/BSP/Components/sx1276/sx1276.c ****         {
 5056              		.loc 1 1406 0
 5057 0010 2F4B     		ldr	r3, .L319
 5058 0012 5B79     		ldrb	r3, [r3, #5]
 5059 0014 002B     		cmp	r3, #0
 5060 0016 08D0     		beq	.L318
 5061              	.L314:
1431:Drivers/BSP/Components/sx1276/sx1276.c ****         {
 5062              		.loc 1 1431 0
 5063 0018 2E4B     		ldr	r3, .L319+4
ARM GAS  /var/folders/2m/zqg86yyd4hbf56w83tkxjpvr0000gn/T//ccRNesxV.s 			page 134


 5064 001a 5B68     		ldr	r3, [r3, #4]
 5065 001c 002B     		cmp	r3, #0
 5066 001e F6D0     		beq	.L310
1431:Drivers/BSP/Components/sx1276/sx1276.c ****         {
 5067              		.loc 1 1431 0 is_stmt 0 discriminator 1
 5068 0020 DB68     		ldr	r3, [r3, #12]
 5069 0022 002B     		cmp	r3, #0
 5070 0024 F3D0     		beq	.L310
1433:Drivers/BSP/Components/sx1276/sx1276.c ****         }
 5071              		.loc 1 1433 0 is_stmt 1
 5072 0026 9847     		blx	r3
 5073              	.LVL590:
 5074 0028 F1E7     		b	.L310
 5075              	.L318:
1408:Drivers/BSP/Components/sx1276/sx1276.c ****             SX1276.Settings.FskPacketHandler.SyncWordDetected = false;
 5076              		.loc 1 1408 0
 5077 002a 294C     		ldr	r4, .L319
 5078 002c 3022     		movs	r2, #48
 5079 002e A354     		strb	r3, [r4, r2]
1409:Drivers/BSP/Components/sx1276/sx1276.c ****             SX1276.Settings.FskPacketHandler.NbBytes = 0;
 5080              		.loc 1 1409 0
 5081 0030 0132     		adds	r2, r2, #1
 5082 0032 A354     		strb	r3, [r4, r2]
1410:Drivers/BSP/Components/sx1276/sx1276.c ****             SX1276.Settings.FskPacketHandler.Size = 0;
 5083              		.loc 1 1410 0
 5084 0034 A387     		strh	r3, [r4, #60]
1411:Drivers/BSP/Components/sx1276/sx1276.c **** 
 5085              		.loc 1 1411 0
 5086 0036 6387     		strh	r3, [r4, #58]
1414:Drivers/BSP/Components/sx1276/sx1276.c ****                                         RF_IRQFLAGS1_PREAMBLEDETECT |
 5087              		.loc 1 1414 0
 5088 0038 0B21     		movs	r1, #11
 5089 003a 3E20     		movs	r0, #62
 5090 003c FFF7FEFF 		bl	SX1276Write
 5091              	.LVL591:
1417:Drivers/BSP/Components/sx1276/sx1276.c **** 
 5092              		.loc 1 1417 0
 5093 0040 1021     		movs	r1, #16
 5094 0042 3F20     		movs	r0, #63
 5095 0044 FFF7FEFF 		bl	SX1276Write
 5096              	.LVL592:
1419:Drivers/BSP/Components/sx1276/sx1276.c ****             {
 5097              		.loc 1 1419 0
 5098 0048 2623     		movs	r3, #38
 5099 004a E35C     		ldrb	r3, [r4, r3]
 5100 004c 002B     		cmp	r3, #0
 5101 004e 0CD0     		beq	.L315
1422:Drivers/BSP/Components/sx1276/sx1276.c ****                 TimerStart( &RxTimeoutSyncWord );
 5102              		.loc 1 1422 0
 5103 0050 0D20     		movs	r0, #13
 5104 0052 FFF7FEFF 		bl	SX1276Read
 5105              	.LVL593:
 5106 0056 4021     		movs	r1, #64
 5107 0058 0143     		orrs	r1, r0
 5108 005a C9B2     		uxtb	r1, r1
 5109 005c 0D20     		movs	r0, #13
 5110 005e FFF7FEFF 		bl	SX1276Write
ARM GAS  /var/folders/2m/zqg86yyd4hbf56w83tkxjpvr0000gn/T//ccRNesxV.s 			page 135


 5111              	.LVL594:
1423:Drivers/BSP/Components/sx1276/sx1276.c ****             }
 5112              		.loc 1 1423 0
 5113 0062 1D48     		ldr	r0, .L319+8
 5114 0064 FFF7FEFF 		bl	TimerStart
 5115              	.LVL595:
 5116 0068 D6E7     		b	.L314
 5117              	.L315:
1427:Drivers/BSP/Components/sx1276/sx1276.c ****                 TimerStop( &RxTimeoutSyncWord );
 5118              		.loc 1 1427 0
 5119 006a 194B     		ldr	r3, .L319
 5120 006c 0022     		movs	r2, #0
 5121 006e 1A71     		strb	r2, [r3, #4]
1428:Drivers/BSP/Components/sx1276/sx1276.c ****             }
 5122              		.loc 1 1428 0
 5123 0070 1948     		ldr	r0, .L319+8
 5124 0072 FFF7FEFF 		bl	TimerStop
 5125              	.LVL596:
 5126 0076 CFE7     		b	.L314
 5127              	.L313:
1446:Drivers/BSP/Components/sx1276/sx1276.c **** 
 5128              		.loc 1 1446 0
 5129 0078 FFF7FEFF 		bl	SX1276Reset
 5130              	.LVL597:
1449:Drivers/BSP/Components/sx1276/sx1276.c **** 
 5131              		.loc 1 1449 0
 5132 007c FFF7FEFF 		bl	RxChainCalibration
 5133              	.LVL598:
1452:Drivers/BSP/Components/sx1276/sx1276.c **** 
 5134              		.loc 1 1452 0
 5135 0080 0020     		movs	r0, #0
 5136 0082 FFF7FEFF 		bl	SX1276SetOpMode
 5137              	.LVL599:
 5138              	.LBB9:
1454:Drivers/BSP/Components/sx1276/sx1276.c ****         {
 5139              		.loc 1 1454 0
 5140 0086 0024     		movs	r4, #0
 5141 0088 0CE0     		b	.L316
 5142              	.LVL600:
 5143              	.L317:
1456:Drivers/BSP/Components/sx1276/sx1276.c ****             SX1276Write( RadioRegsInit[i].Addr, RadioRegsInit[i].Value );
 5144              		.loc 1 1456 0 discriminator 3
 5145 008a 144D     		ldr	r5, .L319+12
 5146 008c 6600     		lsls	r6, r4, #1
 5147 008e 3619     		adds	r6, r6, r4
 5148 0090 705D     		ldrb	r0, [r6, r5]
 5149 0092 FFF7FEFF 		bl	SX1276SetModem
 5150              	.LVL601:
1457:Drivers/BSP/Components/sx1276/sx1276.c ****         }
 5151              		.loc 1 1457 0 discriminator 3
 5152 0096 AD19     		adds	r5, r5, r6
 5153 0098 A978     		ldrb	r1, [r5, #2]
 5154 009a 6878     		ldrb	r0, [r5, #1]
 5155 009c FFF7FEFF 		bl	SX1276Write
 5156              	.LVL602:
1454:Drivers/BSP/Components/sx1276/sx1276.c ****         {
 5157              		.loc 1 1454 0 discriminator 3
ARM GAS  /var/folders/2m/zqg86yyd4hbf56w83tkxjpvr0000gn/T//ccRNesxV.s 			page 136


 5158 00a0 0134     		adds	r4, r4, #1
 5159              	.LVL603:
 5160 00a2 E4B2     		uxtb	r4, r4
 5161              	.LVL604:
 5162              	.L316:
1454:Drivers/BSP/Components/sx1276/sx1276.c ****         {
 5163              		.loc 1 1454 0 is_stmt 0 discriminator 1
 5164 00a4 0F2C     		cmp	r4, #15
 5165 00a6 F0D9     		bls	.L317
 5166              	.LBE9:
1459:Drivers/BSP/Components/sx1276/sx1276.c **** 
 5167              		.loc 1 1459 0 is_stmt 1
 5168 00a8 0020     		movs	r0, #0
 5169 00aa FFF7FEFF 		bl	SX1276SetModem
 5170              	.LVL605:
1462:Drivers/BSP/Components/sx1276/sx1276.c ****         // END WORKAROUND
 5171              		.loc 1 1462 0
 5172 00ae 084C     		ldr	r4, .L319
 5173              	.LVL606:
 5174 00b0 5C23     		movs	r3, #92
 5175 00b2 E05C     		ldrb	r0, [r4, r3]
 5176 00b4 FFF7FEFF 		bl	SX1276SetPublicNetwork
 5177              	.LVL607:
1465:Drivers/BSP/Components/sx1276/sx1276.c ****         if( ( RadioEvents != NULL ) && ( RadioEvents->TxTimeout != NULL ) )
 5178              		.loc 1 1465 0
 5179 00b8 0023     		movs	r3, #0
 5180 00ba 2371     		strb	r3, [r4, #4]
1466:Drivers/BSP/Components/sx1276/sx1276.c ****         {
 5181              		.loc 1 1466 0
 5182 00bc 054B     		ldr	r3, .L319+4
 5183 00be 5B68     		ldr	r3, [r3, #4]
 5184 00c0 002B     		cmp	r3, #0
 5185 00c2 A4D0     		beq	.L310
1466:Drivers/BSP/Components/sx1276/sx1276.c ****         {
 5186              		.loc 1 1466 0 is_stmt 0 discriminator 1
 5187 00c4 5B68     		ldr	r3, [r3, #4]
 5188 00c6 002B     		cmp	r3, #0
 5189 00c8 A1D0     		beq	.L310
1468:Drivers/BSP/Components/sx1276/sx1276.c ****         }
 5190              		.loc 1 1468 0 is_stmt 1
 5191 00ca 9847     		blx	r3
 5192              	.LVL608:
1474:Drivers/BSP/Components/sx1276/sx1276.c **** 
 5193              		.loc 1 1474 0
 5194 00cc 9FE7     		b	.L310
 5195              	.L320:
 5196 00ce C046     		.align	2
 5197              	.L319:
 5198 00d0 00000000 		.word	SX1276
 5199 00d4 00000000 		.word	.LANCHOR0
 5200 00d8 00000000 		.word	RxTimeoutSyncWord
 5201 00dc D4000000 		.word	.LANCHOR2
 5202              		.cfi_endproc
 5203              	.LFE71:
 5205              		.section	.text.SX1276GetWakeupTime,"ax",%progbits
 5206              		.align	1
 5207              		.global	SX1276GetWakeupTime
ARM GAS  /var/folders/2m/zqg86yyd4hbf56w83tkxjpvr0000gn/T//ccRNesxV.s 			page 137


 5208              		.syntax unified
 5209              		.code	16
 5210              		.thumb_func
 5211              		.fpu softvfp
 5213              	SX1276GetWakeupTime:
 5214              	.LFB70:
1397:Drivers/BSP/Components/sx1276/sx1276.c ****     return ( uint32_t )LoRaBoardCallbacks->SX1276BoardGetWakeTime( ) + RADIO_WAKEUP_TIME;// BOARD_W
 5215              		.loc 1 1397 0
 5216              		.cfi_startproc
 5217              		@ args = 0, pretend = 0, frame = 0
 5218              		@ frame_needed = 0, uses_anonymous_args = 0
 5219 0000 10B5     		push	{r4, lr}
 5220              	.LCFI44:
 5221              		.cfi_def_cfa_offset 8
 5222              		.cfi_offset 4, -8
 5223              		.cfi_offset 14, -4
1398:Drivers/BSP/Components/sx1276/sx1276.c **** }
 5224              		.loc 1 1398 0
 5225 0002 034B     		ldr	r3, .L322
 5226 0004 1B68     		ldr	r3, [r3]
 5227 0006 5B68     		ldr	r3, [r3, #4]
 5228 0008 9847     		blx	r3
 5229              	.LVL609:
 5230 000a 0230     		adds	r0, r0, #2
1399:Drivers/BSP/Components/sx1276/sx1276.c **** 
 5231              		.loc 1 1399 0
 5232              		@ sp needed
 5233 000c 10BD     		pop	{r4, pc}
 5234              	.L323:
 5235 000e C046     		.align	2
 5236              	.L322:
 5237 0010 00000000 		.word	.LANCHOR0
 5238              		.cfi_endproc
 5239              	.LFE70:
 5241              		.section	.text.SX1276OnDio5Irq,"ax",%progbits
 5242              		.align	1
 5243              		.global	SX1276OnDio5Irq
 5244              		.syntax unified
 5245              		.code	16
 5246              		.thumb_func
 5247              		.fpu softvfp
 5249              	SX1276OnDio5Irq:
 5250              	.LFB77:
1879:Drivers/BSP/Components/sx1276/sx1276.c **** 
1880:Drivers/BSP/Components/sx1276/sx1276.c **** void SX1276OnDio5Irq( void )
1881:Drivers/BSP/Components/sx1276/sx1276.c **** {
 5251              		.loc 1 1881 0
 5252              		.cfi_startproc
 5253              		@ args = 0, pretend = 0, frame = 0
 5254              		@ frame_needed = 0, uses_anonymous_args = 0
 5255              		@ link register save eliminated.
1882:Drivers/BSP/Components/sx1276/sx1276.c ****     switch( SX1276.Settings.Modem )
1883:Drivers/BSP/Components/sx1276/sx1276.c ****     {
1884:Drivers/BSP/Components/sx1276/sx1276.c ****     case MODEM_FSK:
1885:Drivers/BSP/Components/sx1276/sx1276.c ****         break;
1886:Drivers/BSP/Components/sx1276/sx1276.c ****     case MODEM_LORA:
1887:Drivers/BSP/Components/sx1276/sx1276.c ****         break;
ARM GAS  /var/folders/2m/zqg86yyd4hbf56w83tkxjpvr0000gn/T//ccRNesxV.s 			page 138


1888:Drivers/BSP/Components/sx1276/sx1276.c ****     default:
1889:Drivers/BSP/Components/sx1276/sx1276.c ****         break;
1890:Drivers/BSP/Components/sx1276/sx1276.c ****     }
1891:Drivers/BSP/Components/sx1276/sx1276.c **** }
 5256              		.loc 1 1891 0
 5257              		@ sp needed
 5258 0000 7047     		bx	lr
 5259              		.cfi_endproc
 5260              	.LFE77:
 5262              		.comm	RxTimeoutSyncWord,20,4
 5263              		.comm	RxTimeoutTimer,20,4
 5264              		.comm	TxTimeoutTimer,20,4
 5265              		.global	DioIrq
 5266              		.comm	SX1276,104,4
 5267              		.global	FskBandwidths
 5268              		.global	RadioRegsInit
 5269              		.data
 5270              		.align	2
 5271              		.set	.LANCHOR1,. + 0
 5274              	DioIrq:
 5275 0000 00000000 		.word	SX1276OnDio0Irq
 5276 0004 00000000 		.word	SX1276OnDio1Irq
 5277 0008 00000000 		.word	SX1276OnDio2Irq
 5278 000c 00000000 		.word	SX1276OnDio3Irq
 5279 0010 00000000 		.word	SX1276OnDio4Irq
 5280 0014 00000000 		.word	0
 5281              		.bss
 5282              		.align	2
 5283              		.set	.LANCHOR0,. + 0
 5286              	LoRaBoardCallbacks:
 5287 0000 00000000 		.space	4
 5290              	RadioEvents:
 5291 0004 00000000 		.space	4
 5294              	RxTxBuffer:
 5295 0008 00000000 		.space	256
 5295      00000000 
 5295      00000000 
 5295      00000000 
 5295      00000000 
 5296              		.section	.rodata
 5297              		.align	2
 5300              	FskBandwidths:
 5301 0024 280A0000 		.word	2600
 5302 0028 17       		.byte	23
 5303 0029 000000   		.space	3
 5304 002c 1C0C0000 		.word	3100
 5305 0030 0F       		.byte	15
 5306 0031 000000   		.space	3
 5307 0034 3C0F0000 		.word	3900
 5308 0038 07       		.byte	7
 5309 0039 000000   		.space	3
 5310 003c 50140000 		.word	5200
 5311 0040 16       		.byte	22
 5312 0041 000000   		.space	3
 5313 0044 9C180000 		.word	6300
 5314 0048 0E       		.byte	14
 5315 0049 000000   		.space	3
ARM GAS  /var/folders/2m/zqg86yyd4hbf56w83tkxjpvr0000gn/T//ccRNesxV.s 			page 139


 5316 004c 781E0000 		.word	7800
 5317 0050 06       		.byte	6
 5318 0051 000000   		.space	3
 5319 0054 A0280000 		.word	10400
 5320 0058 15       		.byte	21
 5321 0059 000000   		.space	3
 5322 005c D4300000 		.word	12500
 5323 0060 0D       		.byte	13
 5324 0061 000000   		.space	3
 5325 0064 F03C0000 		.word	15600
 5326 0068 05       		.byte	5
 5327 0069 000000   		.space	3
 5328 006c 40510000 		.word	20800
 5329 0070 14       		.byte	20
 5330 0071 000000   		.space	3
 5331 0074 A8610000 		.word	25000
 5332 0078 0C       		.byte	12
 5333 0079 000000   		.space	3
 5334 007c 447A0000 		.word	31300
 5335 0080 04       		.byte	4
 5336 0081 000000   		.space	3
 5337 0084 E4A20000 		.word	41700
 5338 0088 13       		.byte	19
 5339 0089 000000   		.space	3
 5340 008c 50C30000 		.word	50000
 5341 0090 0B       		.byte	11
 5342 0091 000000   		.space	3
 5343 0094 24F40000 		.word	62500
 5344 0098 03       		.byte	3
 5345 0099 000000   		.space	3
 5346 009c 85450100 		.word	83333
 5347 00a0 12       		.byte	18
 5348 00a1 000000   		.space	3
 5349 00a4 A0860100 		.word	100000
 5350 00a8 0A       		.byte	10
 5351 00a9 000000   		.space	3
 5352 00ac 48E80100 		.word	125000
 5353 00b0 02       		.byte	2
 5354 00b1 000000   		.space	3
 5355 00b4 2C8B0200 		.word	166700
 5356 00b8 11       		.byte	17
 5357 00b9 000000   		.space	3
 5358 00bc 400D0300 		.word	200000
 5359 00c0 09       		.byte	9
 5360 00c1 000000   		.space	3
 5361 00c4 90D00300 		.word	250000
 5362 00c8 01       		.byte	1
 5363 00c9 000000   		.space	3
 5364 00cc E0930400 		.word	300000
 5365 00d0 00       		.byte	0
 5366 00d1 000000   		.space	3
 5367              		.align	2
 5368              		.set	.LANCHOR2,. + 0
 5371              	RadioRegsInit:
 5372 00d4 00       		.byte	0
 5373 00d5 0C       		.byte	12
 5374 00d6 23       		.byte	35
ARM GAS  /var/folders/2m/zqg86yyd4hbf56w83tkxjpvr0000gn/T//ccRNesxV.s 			page 140


 5375 00d7 00       		.byte	0
 5376 00d8 0D       		.byte	13
 5377 00d9 1E       		.byte	30
 5378 00da 00       		.byte	0
 5379 00db 0E       		.byte	14
 5380 00dc D2       		.byte	-46
 5381 00dd 00       		.byte	0
 5382 00de 1A       		.byte	26
 5383 00df 01       		.byte	1
 5384 00e0 00       		.byte	0
 5385 00e1 1F       		.byte	31
 5386 00e2 AA       		.byte	-86
 5387 00e3 00       		.byte	0
 5388 00e4 24       		.byte	36
 5389 00e5 07       		.byte	7
 5390 00e6 00       		.byte	0
 5391 00e7 27       		.byte	39
 5392 00e8 12       		.byte	18
 5393 00e9 00       		.byte	0
 5394 00ea 28       		.byte	40
 5395 00eb C1       		.byte	-63
 5396 00ec 00       		.byte	0
 5397 00ed 29       		.byte	41
 5398 00ee 94       		.byte	-108
 5399 00ef 00       		.byte	0
 5400 00f0 2A       		.byte	42
 5401 00f1 C1       		.byte	-63
 5402 00f2 00       		.byte	0
 5403 00f3 30       		.byte	48
 5404 00f4 D8       		.byte	-40
 5405 00f5 00       		.byte	0
 5406 00f6 35       		.byte	53
 5407 00f7 8F       		.byte	-113
 5408 00f8 00       		.byte	0
 5409 00f9 3B       		.byte	59
 5410 00fa 02       		.byte	2
 5411 00fb 00       		.byte	0
 5412 00fc 40       		.byte	64
 5413 00fd 00       		.byte	0
 5414 00fe 00       		.byte	0
 5415 00ff 41       		.byte	65
 5416 0100 30       		.byte	48
 5417 0101 01       		.byte	1
 5418 0102 23       		.byte	35
 5419 0103 40       		.byte	64
 5420              		.section	.rodata.str1.4,"aMS",%progbits,1
 5421              		.align	2
 5422              	.LC49:
 5423 0000 7278446F 		.ascii	"rxDone\012\015\000"
 5423      6E650A0D 
 5423      00
 5424 0009 000000   		.space	3
 5425              	.LC52:
 5426 000c 7478446F 		.ascii	"txDone\012\015\000"
 5426      6E650A0D 
 5426      00
 5427 0015 000000   		.space	3
ARM GAS  /var/folders/2m/zqg86yyd4hbf56w83tkxjpvr0000gn/T//ccRNesxV.s 			page 141


 5428              	.LC59:
 5429 0018 72785469 		.ascii	"rxTimeOut\012\015\000"
 5429      6D654F75 
 5429      740A0D00 
 5430              		.text
 5431              	.Letext0:
 5432              		.file 2 "/opt/gcc-arm-none-eabi-7-2017-q4-major/lib/gcc/arm-none-eabi/7.2.1/include/stddef.h"
 5433              		.file 3 "/opt/gcc-arm-none-eabi-7-2017-q4-major/arm-none-eabi/include/machine/_default_types.h"
 5434              		.file 4 "/opt/gcc-arm-none-eabi-7-2017-q4-major/arm-none-eabi/include/sys/lock.h"
 5435              		.file 5 "/opt/gcc-arm-none-eabi-7-2017-q4-major/arm-none-eabi/include/sys/_types.h"
 5436              		.file 6 "/opt/gcc-arm-none-eabi-7-2017-q4-major/arm-none-eabi/include/sys/reent.h"
 5437              		.file 7 "/opt/gcc-arm-none-eabi-7-2017-q4-major/arm-none-eabi/include/math.h"
 5438              		.file 8 "/opt/gcc-arm-none-eabi-7-2017-q4-major/arm-none-eabi/include/sys/_stdint.h"
 5439              		.file 9 "Drivers/CMSIS/Device/ST/STM32L0xx/Include/system_stm32l0xx.h"
 5440              		.file 10 "Drivers/CMSIS/Device/ST/STM32L0xx/Include/stm32l072xx.h"
 5441              		.file 11 "Drivers/STM32L0xx_HAL_Driver/Inc/stm32l0xx_hal_gpio.h"
 5442              		.file 12 "/opt/gcc-arm-none-eabi-7-2017-q4-major/arm-none-eabi/include/stdlib.h"
 5443              		.file 13 "Drivers/CMSIS/Device/ST/STM32L0xx/Include/stm32l0xx.h"
 5444              		.file 14 "Middlewares/Third_Party/Lora/Phy/radio.h"
 5445              		.file 15 "Drivers/BSP/Components/sx1276/sx1276.h"
 5446              		.file 16 "Middlewares/Third_Party/Lora/Utilities/timeServer.h"
 5447              		.file 17 "Inc/vcom.h"
 5448              		.file 18 "Inc/hw_gpio.h"
 5449              		.file 19 "Inc/hw_spi.h"
 5450              		.file 20 "Middlewares/Third_Party/Lora/Utilities/delay.h"
 5451              		.file 21 "Middlewares/Third_Party/Lora/Utilities/utilities.h"
 5452              		.file 22 "<built-in>"
ARM GAS  /var/folders/2m/zqg86yyd4hbf56w83tkxjpvr0000gn/T//ccRNesxV.s 			page 142


DEFINED SYMBOLS
                            *ABS*:0000000000000000 sx1276.c
/var/folders/2m/zqg86yyd4hbf56w83tkxjpvr0000gn/T//ccRNesxV.s:16     .text.GetFskBandwidthRegValue:0000000000000000 $t
/var/folders/2m/zqg86yyd4hbf56w83tkxjpvr0000gn/T//ccRNesxV.s:22     .text.GetFskBandwidthRegValue:0000000000000000 GetFskBandwidthRegValue
/var/folders/2m/zqg86yyd4hbf56w83tkxjpvr0000gn/T//ccRNesxV.s:78     .text.GetFskBandwidthRegValue:0000000000000030 $d
/var/folders/2m/zqg86yyd4hbf56w83tkxjpvr0000gn/T//ccRNesxV.s:5300   .rodata:0000000000000024 FskBandwidths
/var/folders/2m/zqg86yyd4hbf56w83tkxjpvr0000gn/T//ccRNesxV.s:83     .text.SX1276OnDio4Irq:0000000000000000 $t
/var/folders/2m/zqg86yyd4hbf56w83tkxjpvr0000gn/T//ccRNesxV.s:90     .text.SX1276OnDio4Irq:0000000000000000 SX1276OnDio4Irq
/var/folders/2m/zqg86yyd4hbf56w83tkxjpvr0000gn/T//ccRNesxV.s:119    .text.SX1276OnDio4Irq:000000000000001c $d
                            *COM*:0000000000000068 SX1276
/var/folders/2m/zqg86yyd4hbf56w83tkxjpvr0000gn/T//ccRNesxV.s:124    .text.SX1276BoardInit:0000000000000000 $t
/var/folders/2m/zqg86yyd4hbf56w83tkxjpvr0000gn/T//ccRNesxV.s:131    .text.SX1276BoardInit:0000000000000000 SX1276BoardInit
/var/folders/2m/zqg86yyd4hbf56w83tkxjpvr0000gn/T//ccRNesxV.s:148    .text.SX1276BoardInit:0000000000000008 $d
/var/folders/2m/zqg86yyd4hbf56w83tkxjpvr0000gn/T//ccRNesxV.s:153    .text.SX1276GetStatus:0000000000000000 $t
/var/folders/2m/zqg86yyd4hbf56w83tkxjpvr0000gn/T//ccRNesxV.s:160    .text.SX1276GetStatus:0000000000000000 SX1276GetStatus
/var/folders/2m/zqg86yyd4hbf56w83tkxjpvr0000gn/T//ccRNesxV.s:176    .text.SX1276GetStatus:0000000000000008 $d
/var/folders/2m/zqg86yyd4hbf56w83tkxjpvr0000gn/T//ccRNesxV.s:181    .text.SX1276Reset:0000000000000000 $t
/var/folders/2m/zqg86yyd4hbf56w83tkxjpvr0000gn/T//ccRNesxV.s:188    .text.SX1276Reset:0000000000000000 SX1276Reset
/var/folders/2m/zqg86yyd4hbf56w83tkxjpvr0000gn/T//ccRNesxV.s:251    .text.SX1276Reset:000000000000004c $d
/var/folders/2m/zqg86yyd4hbf56w83tkxjpvr0000gn/T//ccRNesxV.s:256    .text.SX1276WriteBuffer:0000000000000000 $t
/var/folders/2m/zqg86yyd4hbf56w83tkxjpvr0000gn/T//ccRNesxV.s:263    .text.SX1276WriteBuffer:0000000000000000 SX1276WriteBuffer
/var/folders/2m/zqg86yyd4hbf56w83tkxjpvr0000gn/T//ccRNesxV.s:331    .text.SX1276Write:0000000000000000 $t
/var/folders/2m/zqg86yyd4hbf56w83tkxjpvr0000gn/T//ccRNesxV.s:338    .text.SX1276Write:0000000000000000 SX1276Write
/var/folders/2m/zqg86yyd4hbf56w83tkxjpvr0000gn/T//ccRNesxV.s:371    .text.SX1276SetChannel:0000000000000000 $t
/var/folders/2m/zqg86yyd4hbf56w83tkxjpvr0000gn/T//ccRNesxV.s:378    .text.SX1276SetChannel:0000000000000000 SX1276SetChannel
/var/folders/2m/zqg86yyd4hbf56w83tkxjpvr0000gn/T//ccRNesxV.s:442    .text.SX1276SetChannel:0000000000000048 $d
/var/folders/2m/zqg86yyd4hbf56w83tkxjpvr0000gn/T//ccRNesxV.s:449    .text.SX1276ReadBuffer:0000000000000000 $t
/var/folders/2m/zqg86yyd4hbf56w83tkxjpvr0000gn/T//ccRNesxV.s:456    .text.SX1276ReadBuffer:0000000000000000 SX1276ReadBuffer
/var/folders/2m/zqg86yyd4hbf56w83tkxjpvr0000gn/T//ccRNesxV.s:525    .text.SX1276Read:0000000000000000 $t
/var/folders/2m/zqg86yyd4hbf56w83tkxjpvr0000gn/T//ccRNesxV.s:532    .text.SX1276Read:0000000000000000 SX1276Read
/var/folders/2m/zqg86yyd4hbf56w83tkxjpvr0000gn/T//ccRNesxV.s:564    .text.RxChainCalibration:0000000000000000 $t
/var/folders/2m/zqg86yyd4hbf56w83tkxjpvr0000gn/T//ccRNesxV.s:571    .text.RxChainCalibration:0000000000000000 RxChainCalibration
/var/folders/2m/zqg86yyd4hbf56w83tkxjpvr0000gn/T//ccRNesxV.s:695    .text.RxChainCalibration:00000000000000a0 $d
/var/folders/2m/zqg86yyd4hbf56w83tkxjpvr0000gn/T//ccRNesxV.s:707    .text.SX1276GetTimeOnAir:0000000000000000 $t
/var/folders/2m/zqg86yyd4hbf56w83tkxjpvr0000gn/T//ccRNesxV.s:714    .text.SX1276GetTimeOnAir:0000000000000000 SX1276GetTimeOnAir
/var/folders/2m/zqg86yyd4hbf56w83tkxjpvr0000gn/T//ccRNesxV.s:1085   .text.SX1276GetTimeOnAir:00000000000001fc $d
/var/folders/2m/zqg86yyd4hbf56w83tkxjpvr0000gn/T//ccRNesxV.s:1100   .text.SX1276ReadRssi:0000000000000000 $t
/var/folders/2m/zqg86yyd4hbf56w83tkxjpvr0000gn/T//ccRNesxV.s:1107   .text.SX1276ReadRssi:0000000000000000 SX1276ReadRssi
/var/folders/2m/zqg86yyd4hbf56w83tkxjpvr0000gn/T//ccRNesxV.s:1179   .text.SX1276ReadRssi:0000000000000048 $d
/var/folders/2m/zqg86yyd4hbf56w83tkxjpvr0000gn/T//ccRNesxV.s:1185   .text.SX1276SetOpMode:0000000000000000 $t
/var/folders/2m/zqg86yyd4hbf56w83tkxjpvr0000gn/T//ccRNesxV.s:1192   .text.SX1276SetOpMode:0000000000000000 SX1276SetOpMode
/var/folders/2m/zqg86yyd4hbf56w83tkxjpvr0000gn/T//ccRNesxV.s:1277   .text.SX1276SetOpMode:0000000000000064 $d
/var/folders/2m/zqg86yyd4hbf56w83tkxjpvr0000gn/T//ccRNesxV.s:1282   .text.SX1276SetSleep:0000000000000000 $t
/var/folders/2m/zqg86yyd4hbf56w83tkxjpvr0000gn/T//ccRNesxV.s:1289   .text.SX1276SetSleep:0000000000000000 SX1276SetSleep
/var/folders/2m/zqg86yyd4hbf56w83tkxjpvr0000gn/T//ccRNesxV.s:1322   .text.SX1276SetSleep:000000000000001c $d
                            *COM*:0000000000000014 RxTimeoutTimer
                            *COM*:0000000000000014 TxTimeoutTimer
/var/folders/2m/zqg86yyd4hbf56w83tkxjpvr0000gn/T//ccRNesxV.s:1329   .text.SX1276SetStby:0000000000000000 $t
/var/folders/2m/zqg86yyd4hbf56w83tkxjpvr0000gn/T//ccRNesxV.s:1336   .text.SX1276SetStby:0000000000000000 SX1276SetStby
/var/folders/2m/zqg86yyd4hbf56w83tkxjpvr0000gn/T//ccRNesxV.s:1369   .text.SX1276SetStby:000000000000001c $d
/var/folders/2m/zqg86yyd4hbf56w83tkxjpvr0000gn/T//ccRNesxV.s:1376   .text.SX1276SetRx:0000000000000000 $t
/var/folders/2m/zqg86yyd4hbf56w83tkxjpvr0000gn/T//ccRNesxV.s:1383   .text.SX1276SetRx:0000000000000000 SX1276SetRx
/var/folders/2m/zqg86yyd4hbf56w83tkxjpvr0000gn/T//ccRNesxV.s:1560   .rodata:0000000000000000 $d
/var/folders/2m/zqg86yyd4hbf56w83tkxjpvr0000gn/T//ccRNesxV.s:1823   .text.SX1276SetRx:000000000000025c $d
/var/folders/2m/zqg86yyd4hbf56w83tkxjpvr0000gn/T//ccRNesxV.s:5294   .bss:0000000000000008 RxTxBuffer
                            *COM*:0000000000000014 RxTimeoutSyncWord
/var/folders/2m/zqg86yyd4hbf56w83tkxjpvr0000gn/T//ccRNesxV.s:1838   .text.SX1276SetTx:0000000000000000 $t
ARM GAS  /var/folders/2m/zqg86yyd4hbf56w83tkxjpvr0000gn/T//ccRNesxV.s 			page 143


/var/folders/2m/zqg86yyd4hbf56w83tkxjpvr0000gn/T//ccRNesxV.s:1845   .text.SX1276SetTx:0000000000000000 SX1276SetTx
/var/folders/2m/zqg86yyd4hbf56w83tkxjpvr0000gn/T//ccRNesxV.s:1968   .text.SX1276SetTx:00000000000000ac $d
/var/folders/2m/zqg86yyd4hbf56w83tkxjpvr0000gn/T//ccRNesxV.s:1974   .text.SX1276StartCad:0000000000000000 $t
/var/folders/2m/zqg86yyd4hbf56w83tkxjpvr0000gn/T//ccRNesxV.s:1981   .text.SX1276StartCad:0000000000000000 SX1276StartCad
/var/folders/2m/zqg86yyd4hbf56w83tkxjpvr0000gn/T//ccRNesxV.s:2026   .text.SX1276StartCad:0000000000000030 $d
/var/folders/2m/zqg86yyd4hbf56w83tkxjpvr0000gn/T//ccRNesxV.s:2031   .text.SX1276SetModem:0000000000000000 $t
/var/folders/2m/zqg86yyd4hbf56w83tkxjpvr0000gn/T//ccRNesxV.s:2038   .text.SX1276SetModem:0000000000000000 SX1276SetModem
/var/folders/2m/zqg86yyd4hbf56w83tkxjpvr0000gn/T//ccRNesxV.s:2136   .text.SX1276SetModem:000000000000007c $d
/var/folders/2m/zqg86yyd4hbf56w83tkxjpvr0000gn/T//ccRNesxV.s:2141   .text.SX1276Init:0000000000000000 $t
/var/folders/2m/zqg86yyd4hbf56w83tkxjpvr0000gn/T//ccRNesxV.s:2148   .text.SX1276Init:0000000000000000 SX1276Init
/var/folders/2m/zqg86yyd4hbf56w83tkxjpvr0000gn/T//ccRNesxV.s:2253   .text.SX1276Init:0000000000000078 $d
/var/folders/2m/zqg86yyd4hbf56w83tkxjpvr0000gn/T//ccRNesxV.s:5031   .text.SX1276OnTimeoutIrq:0000000000000000 SX1276OnTimeoutIrq
/var/folders/2m/zqg86yyd4hbf56w83tkxjpvr0000gn/T//ccRNesxV.s:2265   .text.SX1276IsChannelFree:0000000000000000 $t
/var/folders/2m/zqg86yyd4hbf56w83tkxjpvr0000gn/T//ccRNesxV.s:2272   .text.SX1276IsChannelFree:0000000000000000 SX1276IsChannelFree
/var/folders/2m/zqg86yyd4hbf56w83tkxjpvr0000gn/T//ccRNesxV.s:2350   .text.SX1276Random:0000000000000000 $t
/var/folders/2m/zqg86yyd4hbf56w83tkxjpvr0000gn/T//ccRNesxV.s:2357   .text.SX1276Random:0000000000000000 SX1276Random
/var/folders/2m/zqg86yyd4hbf56w83tkxjpvr0000gn/T//ccRNesxV.s:2426   .text.SX1276SetRxConfig:0000000000000000 $t
/var/folders/2m/zqg86yyd4hbf56w83tkxjpvr0000gn/T//ccRNesxV.s:2433   .text.SX1276SetRxConfig:0000000000000000 SX1276SetRxConfig
/var/folders/2m/zqg86yyd4hbf56w83tkxjpvr0000gn/T//ccRNesxV.s:3017   .text.SX1276SetRxConfig:0000000000000334 $d
/var/folders/2m/zqg86yyd4hbf56w83tkxjpvr0000gn/T//ccRNesxV.s:3027   .text.SX1276SetTxConfig:0000000000000000 $t
/var/folders/2m/zqg86yyd4hbf56w83tkxjpvr0000gn/T//ccRNesxV.s:3034   .text.SX1276SetTxConfig:0000000000000000 SX1276SetTxConfig
/var/folders/2m/zqg86yyd4hbf56w83tkxjpvr0000gn/T//ccRNesxV.s:3489   .text.SX1276SetTxConfig:0000000000000270 $d
/var/folders/2m/zqg86yyd4hbf56w83tkxjpvr0000gn/T//ccRNesxV.s:3497   .text.SX1276SetTxContinuousWave:0000000000000000 $t
/var/folders/2m/zqg86yyd4hbf56w83tkxjpvr0000gn/T//ccRNesxV.s:3504   .text.SX1276SetTxContinuousWave:0000000000000000 SX1276SetTxContinuousWave
/var/folders/2m/zqg86yyd4hbf56w83tkxjpvr0000gn/T//ccRNesxV.s:3598   .text.SX1276SetTxContinuousWave:000000000000007c $d
/var/folders/2m/zqg86yyd4hbf56w83tkxjpvr0000gn/T//ccRNesxV.s:3604   .text.SX1276OnDio2Irq:0000000000000000 $t
/var/folders/2m/zqg86yyd4hbf56w83tkxjpvr0000gn/T//ccRNesxV.s:3611   .text.SX1276OnDio2Irq:0000000000000000 SX1276OnDio2Irq
/var/folders/2m/zqg86yyd4hbf56w83tkxjpvr0000gn/T//ccRNesxV.s:3788   .text.SX1276OnDio2Irq:00000000000000f0 $d
/var/folders/2m/zqg86yyd4hbf56w83tkxjpvr0000gn/T//ccRNesxV.s:3795   .text.SX1276OnDio3Irq:0000000000000000 $t
/var/folders/2m/zqg86yyd4hbf56w83tkxjpvr0000gn/T//ccRNesxV.s:3802   .text.SX1276OnDio3Irq:0000000000000000 SX1276OnDio3Irq
/var/folders/2m/zqg86yyd4hbf56w83tkxjpvr0000gn/T//ccRNesxV.s:3869   .text.SX1276OnDio3Irq:000000000000004c $d
/var/folders/2m/zqg86yyd4hbf56w83tkxjpvr0000gn/T//ccRNesxV.s:3875   .text.SX1276WriteFifo:0000000000000000 $t
/var/folders/2m/zqg86yyd4hbf56w83tkxjpvr0000gn/T//ccRNesxV.s:3882   .text.SX1276WriteFifo:0000000000000000 SX1276WriteFifo
/var/folders/2m/zqg86yyd4hbf56w83tkxjpvr0000gn/T//ccRNesxV.s:3909   .text.SX1276Send:0000000000000000 $t
/var/folders/2m/zqg86yyd4hbf56w83tkxjpvr0000gn/T//ccRNesxV.s:3916   .text.SX1276Send:0000000000000000 SX1276Send
/var/folders/2m/zqg86yyd4hbf56w83tkxjpvr0000gn/T//ccRNesxV.s:4129   .text.SX1276Send:0000000000000114 $d
/var/folders/2m/zqg86yyd4hbf56w83tkxjpvr0000gn/T//ccRNesxV.s:4135   .text.SX1276ReadFifo:0000000000000000 $t
/var/folders/2m/zqg86yyd4hbf56w83tkxjpvr0000gn/T//ccRNesxV.s:4142   .text.SX1276ReadFifo:0000000000000000 SX1276ReadFifo
/var/folders/2m/zqg86yyd4hbf56w83tkxjpvr0000gn/T//ccRNesxV.s:4169   .text.SX1276OnDio0Irq:0000000000000000 $t
/var/folders/2m/zqg86yyd4hbf56w83tkxjpvr0000gn/T//ccRNesxV.s:4176   .text.SX1276OnDio0Irq:0000000000000000 SX1276OnDio0Irq
/var/folders/2m/zqg86yyd4hbf56w83tkxjpvr0000gn/T//ccRNesxV.s:4702   .text.SX1276OnDio0Irq:00000000000002d4 $d
/var/folders/2m/zqg86yyd4hbf56w83tkxjpvr0000gn/T//ccRNesxV.s:4716   .text.SX1276OnDio1Irq:0000000000000000 $t
/var/folders/2m/zqg86yyd4hbf56w83tkxjpvr0000gn/T//ccRNesxV.s:4723   .text.SX1276OnDio1Irq:0000000000000000 SX1276OnDio1Irq
/var/folders/2m/zqg86yyd4hbf56w83tkxjpvr0000gn/T//ccRNesxV.s:4894   .text.SX1276OnDio1Irq:00000000000000f4 $d
/var/folders/2m/zqg86yyd4hbf56w83tkxjpvr0000gn/T//ccRNesxV.s:4904   .text.SX1276SetMaxPayloadLength:0000000000000000 $t
/var/folders/2m/zqg86yyd4hbf56w83tkxjpvr0000gn/T//ccRNesxV.s:4911   .text.SX1276SetMaxPayloadLength:0000000000000000 SX1276SetMaxPayloadLength
/var/folders/2m/zqg86yyd4hbf56w83tkxjpvr0000gn/T//ccRNesxV.s:4963   .text.SX1276SetMaxPayloadLength:0000000000000034 $d
/var/folders/2m/zqg86yyd4hbf56w83tkxjpvr0000gn/T//ccRNesxV.s:4968   .text.SX1276SetPublicNetwork:0000000000000000 $t
/var/folders/2m/zqg86yyd4hbf56w83tkxjpvr0000gn/T//ccRNesxV.s:4975   .text.SX1276SetPublicNetwork:0000000000000000 SX1276SetPublicNetwork
/var/folders/2m/zqg86yyd4hbf56w83tkxjpvr0000gn/T//ccRNesxV.s:5019   .text.SX1276SetPublicNetwork:0000000000000028 $d
/var/folders/2m/zqg86yyd4hbf56w83tkxjpvr0000gn/T//ccRNesxV.s:5024   .text.SX1276OnTimeoutIrq:0000000000000000 $t
/var/folders/2m/zqg86yyd4hbf56w83tkxjpvr0000gn/T//ccRNesxV.s:5198   .text.SX1276OnTimeoutIrq:00000000000000d0 $d
/var/folders/2m/zqg86yyd4hbf56w83tkxjpvr0000gn/T//ccRNesxV.s:5206   .text.SX1276GetWakeupTime:0000000000000000 $t
/var/folders/2m/zqg86yyd4hbf56w83tkxjpvr0000gn/T//ccRNesxV.s:5213   .text.SX1276GetWakeupTime:0000000000000000 SX1276GetWakeupTime
/var/folders/2m/zqg86yyd4hbf56w83tkxjpvr0000gn/T//ccRNesxV.s:5237   .text.SX1276GetWakeupTime:0000000000000010 $d
/var/folders/2m/zqg86yyd4hbf56w83tkxjpvr0000gn/T//ccRNesxV.s:5242   .text.SX1276OnDio5Irq:0000000000000000 $t
/var/folders/2m/zqg86yyd4hbf56w83tkxjpvr0000gn/T//ccRNesxV.s:5249   .text.SX1276OnDio5Irq:0000000000000000 SX1276OnDio5Irq
ARM GAS  /var/folders/2m/zqg86yyd4hbf56w83tkxjpvr0000gn/T//ccRNesxV.s 			page 144


/var/folders/2m/zqg86yyd4hbf56w83tkxjpvr0000gn/T//ccRNesxV.s:5274   .data:0000000000000000 DioIrq
/var/folders/2m/zqg86yyd4hbf56w83tkxjpvr0000gn/T//ccRNesxV.s:5371   .rodata:00000000000000d4 RadioRegsInit
/var/folders/2m/zqg86yyd4hbf56w83tkxjpvr0000gn/T//ccRNesxV.s:5270   .data:0000000000000000 $d
/var/folders/2m/zqg86yyd4hbf56w83tkxjpvr0000gn/T//ccRNesxV.s:5282   .bss:0000000000000000 $d
/var/folders/2m/zqg86yyd4hbf56w83tkxjpvr0000gn/T//ccRNesxV.s:5286   .bss:0000000000000000 LoRaBoardCallbacks
/var/folders/2m/zqg86yyd4hbf56w83tkxjpvr0000gn/T//ccRNesxV.s:5290   .bss:0000000000000004 RadioEvents
/var/folders/2m/zqg86yyd4hbf56w83tkxjpvr0000gn/T//ccRNesxV.s:5421   .rodata.str1.4:0000000000000000 $d

UNDEFINED SYMBOLS
memset
HW_GPIO_Init
HW_GPIO_Write
DelayMs
HW_SPI_InOut
__aeabi_uidiv
__aeabi_uidivmod
__aeabi_i2d
__aeabi_dadd
__aeabi_dmul
__aeabi_ui2d
__aeabi_ddiv
__aeabi_d2uiz
__aeabi_dcmpgt
round
ceil
floor
TimerStop
TimerSetValue
TimerStart
TimerInit
TimerGetCurrentTime
TimerGetElapsedTime
memcpy1
vcom_Send
