ARM GAS  /var/folders/2m/zqg86yyd4hbf56w83tkxjpvr0000gn/T//ccgDZjkz.s 			page 1


   1              		.cpu cortex-m0plus
   2              		.eabi_attribute 20, 1
   3              		.eabi_attribute 21, 1
   4              		.eabi_attribute 23, 3
   5              		.eabi_attribute 24, 1
   6              		.eabi_attribute 25, 1
   7              		.eabi_attribute 26, 1
   8              		.eabi_attribute 30, 1
   9              		.eabi_attribute 34, 0
  10              		.eabi_attribute 18, 4
  11              		.file	"timeServer.c"
  12              		.text
  13              	.Ltext0:
  14              		.cfi_sections	.debug_frame
  15              		.section	.text.TimerInsertTimer,"ax",%progbits
  16              		.align	1
  17              		.syntax unified
  18              		.code	16
  19              		.thumb_func
  20              		.fpu softvfp
  22              	TimerInsertTimer:
  23              	.LFB42:
  24              		.file 1 "Middlewares/Third_Party/Lora/Utilities/timeServer.c"
   1:Middlewares/Third_Party/Lora/Utilities/timeServer.c ****  /*
   2:Middlewares/Third_Party/Lora/Utilities/timeServer.c ****  / _____)             _              | |
   3:Middlewares/Third_Party/Lora/Utilities/timeServer.c **** ( (____  _____ ____ _| |_ _____  ____| |__
   4:Middlewares/Third_Party/Lora/Utilities/timeServer.c ****  \____ \| ___ |    (_   _) ___ |/ ___)  _ \
   5:Middlewares/Third_Party/Lora/Utilities/timeServer.c ****  _____) ) ____| | | || |_| ____( (___| | | |
   6:Middlewares/Third_Party/Lora/Utilities/timeServer.c **** (______/|_____)_|_|_| \__)_____)\____)_| |_|
   7:Middlewares/Third_Party/Lora/Utilities/timeServer.c ****     (C)2013 Semtech
   8:Middlewares/Third_Party/Lora/Utilities/timeServer.c **** 
   9:Middlewares/Third_Party/Lora/Utilities/timeServer.c **** Description: Generic lora driver implementation
  10:Middlewares/Third_Party/Lora/Utilities/timeServer.c **** 
  11:Middlewares/Third_Party/Lora/Utilities/timeServer.c **** License: Revised BSD License, see LICENSE.TXT file include in the project
  12:Middlewares/Third_Party/Lora/Utilities/timeServer.c **** 
  13:Middlewares/Third_Party/Lora/Utilities/timeServer.c **** Maintainer: Miguel Luis, Gregory Cristian and Wael Guibene
  14:Middlewares/Third_Party/Lora/Utilities/timeServer.c **** */
  15:Middlewares/Third_Party/Lora/Utilities/timeServer.c **** /******************************************************************************
  16:Middlewares/Third_Party/Lora/Utilities/timeServer.c ****   * @file    timeserver.c
  17:Middlewares/Third_Party/Lora/Utilities/timeServer.c ****   * @author  MCD Application Team
  18:Middlewares/Third_Party/Lora/Utilities/timeServer.c ****   * @version V1.1.5
  19:Middlewares/Third_Party/Lora/Utilities/timeServer.c ****   * @date    30-March-2018
  20:Middlewares/Third_Party/Lora/Utilities/timeServer.c ****   * @brief   Time server infrastructure
  21:Middlewares/Third_Party/Lora/Utilities/timeServer.c ****   ******************************************************************************
  22:Middlewares/Third_Party/Lora/Utilities/timeServer.c ****   * @attention
  23:Middlewares/Third_Party/Lora/Utilities/timeServer.c ****   *
  24:Middlewares/Third_Party/Lora/Utilities/timeServer.c ****   * <h2><center>&copy; Copyright (c) 2017 STMicroelectronics International N.V. 
  25:Middlewares/Third_Party/Lora/Utilities/timeServer.c ****   * All rights reserved.</center></h2>
  26:Middlewares/Third_Party/Lora/Utilities/timeServer.c ****   *
  27:Middlewares/Third_Party/Lora/Utilities/timeServer.c ****   * Redistribution and use in source and binary forms, with or without 
  28:Middlewares/Third_Party/Lora/Utilities/timeServer.c ****   * modification, are permitted, provided that the following conditions are met:
  29:Middlewares/Third_Party/Lora/Utilities/timeServer.c ****   *
  30:Middlewares/Third_Party/Lora/Utilities/timeServer.c ****   * 1. Redistribution of source code must retain the above copyright notice, 
  31:Middlewares/Third_Party/Lora/Utilities/timeServer.c ****   *    this list of conditions and the following disclaimer.
  32:Middlewares/Third_Party/Lora/Utilities/timeServer.c ****   * 2. Redistributions in binary form must reproduce the above copyright notice,
  33:Middlewares/Third_Party/Lora/Utilities/timeServer.c ****   *    this list of conditions and the following disclaimer in the documentation
  34:Middlewares/Third_Party/Lora/Utilities/timeServer.c ****   *    and/or other materials provided with the distribution.
ARM GAS  /var/folders/2m/zqg86yyd4hbf56w83tkxjpvr0000gn/T//ccgDZjkz.s 			page 2


  35:Middlewares/Third_Party/Lora/Utilities/timeServer.c ****   * 3. Neither the name of STMicroelectronics nor the names of other 
  36:Middlewares/Third_Party/Lora/Utilities/timeServer.c ****   *    contributors to this software may be used to endorse or promote products 
  37:Middlewares/Third_Party/Lora/Utilities/timeServer.c ****   *    derived from this software without specific written permission.
  38:Middlewares/Third_Party/Lora/Utilities/timeServer.c ****   * 4. This software, including modifications and/or derivative works of this 
  39:Middlewares/Third_Party/Lora/Utilities/timeServer.c ****   *    software, must execute solely and exclusively on microcontroller or
  40:Middlewares/Third_Party/Lora/Utilities/timeServer.c ****   *    microprocessor devices manufactured by or for STMicroelectronics.
  41:Middlewares/Third_Party/Lora/Utilities/timeServer.c ****   * 5. Redistribution and use of this software other than as permitted under 
  42:Middlewares/Third_Party/Lora/Utilities/timeServer.c ****   *    this license is void and will automatically terminate your rights under 
  43:Middlewares/Third_Party/Lora/Utilities/timeServer.c ****   *    this license. 
  44:Middlewares/Third_Party/Lora/Utilities/timeServer.c ****   *
  45:Middlewares/Third_Party/Lora/Utilities/timeServer.c ****   * THIS SOFTWARE IS PROVIDED BY STMICROELECTRONICS AND CONTRIBUTORS "AS IS" 
  46:Middlewares/Third_Party/Lora/Utilities/timeServer.c ****   * AND ANY EXPRESS, IMPLIED OR STATUTORY WARRANTIES, INCLUDING, BUT NOT 
  47:Middlewares/Third_Party/Lora/Utilities/timeServer.c ****   * LIMITED TO, THE IMPLIED WARRANTIES OF MERCHANTABILITY, FITNESS FOR A 
  48:Middlewares/Third_Party/Lora/Utilities/timeServer.c ****   * PARTICULAR PURPOSE AND NON-INFRINGEMENT OF THIRD PARTY INTELLECTUAL PROPERTY
  49:Middlewares/Third_Party/Lora/Utilities/timeServer.c ****   * RIGHTS ARE DISCLAIMED TO THE FULLEST EXTENT PERMITTED BY LAW. IN NO EVENT 
  50:Middlewares/Third_Party/Lora/Utilities/timeServer.c ****   * SHALL STMICROELECTRONICS OR CONTRIBUTORS BE LIABLE FOR ANY DIRECT, INDIRECT,
  51:Middlewares/Third_Party/Lora/Utilities/timeServer.c ****   * INCIDENTAL, SPECIAL, EXEMPLARY, OR CONSEQUENTIAL DAMAGES (INCLUDING, BUT NOT
  52:Middlewares/Third_Party/Lora/Utilities/timeServer.c ****   * LIMITED TO, PROCUREMENT OF SUBSTITUTE GOODS OR SERVICES; LOSS OF USE, DATA, 
  53:Middlewares/Third_Party/Lora/Utilities/timeServer.c ****   * OR PROFITS; OR BUSINESS INTERRUPTION) HOWEVER CAUSED AND ON ANY THEORY OF 
  54:Middlewares/Third_Party/Lora/Utilities/timeServer.c ****   * LIABILITY, WHETHER IN CONTRACT, STRICT LIABILITY, OR TORT (INCLUDING 
  55:Middlewares/Third_Party/Lora/Utilities/timeServer.c ****   * NEGLIGENCE OR OTHERWISE) ARISING IN ANY WAY OUT OF THE USE OF THIS SOFTWARE,
  56:Middlewares/Third_Party/Lora/Utilities/timeServer.c ****   * EVEN IF ADVISED OF THE POSSIBILITY OF SUCH DAMAGE.
  57:Middlewares/Third_Party/Lora/Utilities/timeServer.c ****   *
  58:Middlewares/Third_Party/Lora/Utilities/timeServer.c ****   ******************************************************************************
  59:Middlewares/Third_Party/Lora/Utilities/timeServer.c ****   */
  60:Middlewares/Third_Party/Lora/Utilities/timeServer.c **** 
  61:Middlewares/Third_Party/Lora/Utilities/timeServer.c **** /* Includes ------------------------------------------------------------------*/
  62:Middlewares/Third_Party/Lora/Utilities/timeServer.c **** #include <time.h>
  63:Middlewares/Third_Party/Lora/Utilities/timeServer.c **** #include "hw.h"
  64:Middlewares/Third_Party/Lora/Utilities/timeServer.c **** #include "timeServer.h"
  65:Middlewares/Third_Party/Lora/Utilities/timeServer.c **** //#include "low_power.h"
  66:Middlewares/Third_Party/Lora/Utilities/timeServer.c **** 
  67:Middlewares/Third_Party/Lora/Utilities/timeServer.c **** 
  68:Middlewares/Third_Party/Lora/Utilities/timeServer.c **** /*!
  69:Middlewares/Third_Party/Lora/Utilities/timeServer.c ****  * safely execute call back
  70:Middlewares/Third_Party/Lora/Utilities/timeServer.c ****  */
  71:Middlewares/Third_Party/Lora/Utilities/timeServer.c **** #define exec_cb( _callback_ )     \
  72:Middlewares/Third_Party/Lora/Utilities/timeServer.c ****   do {                          \
  73:Middlewares/Third_Party/Lora/Utilities/timeServer.c ****       if( _callback_ == NULL )    \
  74:Middlewares/Third_Party/Lora/Utilities/timeServer.c ****       {                           \
  75:Middlewares/Third_Party/Lora/Utilities/timeServer.c ****         while(1);                 \
  76:Middlewares/Third_Party/Lora/Utilities/timeServer.c ****       }                           \
  77:Middlewares/Third_Party/Lora/Utilities/timeServer.c ****       else                        \
  78:Middlewares/Third_Party/Lora/Utilities/timeServer.c ****       {                           \
  79:Middlewares/Third_Party/Lora/Utilities/timeServer.c ****         _callback_( );               \
  80:Middlewares/Third_Party/Lora/Utilities/timeServer.c ****       }                           \
  81:Middlewares/Third_Party/Lora/Utilities/timeServer.c ****   } while(0);                   
  82:Middlewares/Third_Party/Lora/Utilities/timeServer.c **** 
  83:Middlewares/Third_Party/Lora/Utilities/timeServer.c **** 
  84:Middlewares/Third_Party/Lora/Utilities/timeServer.c **** 
  85:Middlewares/Third_Party/Lora/Utilities/timeServer.c **** /*!
  86:Middlewares/Third_Party/Lora/Utilities/timeServer.c ****  * Timers list head pointer
  87:Middlewares/Third_Party/Lora/Utilities/timeServer.c ****  */
  88:Middlewares/Third_Party/Lora/Utilities/timeServer.c **** static TimerEvent_t *TimerListHead = NULL;
  89:Middlewares/Third_Party/Lora/Utilities/timeServer.c **** 
  90:Middlewares/Third_Party/Lora/Utilities/timeServer.c **** /*!
  91:Middlewares/Third_Party/Lora/Utilities/timeServer.c ****  * \brief Adds or replace the head timer of the list.
ARM GAS  /var/folders/2m/zqg86yyd4hbf56w83tkxjpvr0000gn/T//ccgDZjkz.s 			page 3


  92:Middlewares/Third_Party/Lora/Utilities/timeServer.c ****  *
  93:Middlewares/Third_Party/Lora/Utilities/timeServer.c ****  * \remark The list is automatically sorted. The list head always contains the
  94:Middlewares/Third_Party/Lora/Utilities/timeServer.c ****  *     next timer to expire.
  95:Middlewares/Third_Party/Lora/Utilities/timeServer.c ****  *
  96:Middlewares/Third_Party/Lora/Utilities/timeServer.c ****  * \param [IN]  obj Timer object to be become the new head
  97:Middlewares/Third_Party/Lora/Utilities/timeServer.c ****  * \param [IN]  remainingTime Remaining time of the previous head to be replaced
  98:Middlewares/Third_Party/Lora/Utilities/timeServer.c ****  */
  99:Middlewares/Third_Party/Lora/Utilities/timeServer.c **** static void TimerInsertNewHeadTimer( TimerEvent_t *obj );
 100:Middlewares/Third_Party/Lora/Utilities/timeServer.c **** 
 101:Middlewares/Third_Party/Lora/Utilities/timeServer.c **** /*!
 102:Middlewares/Third_Party/Lora/Utilities/timeServer.c ****  * \brief Adds a timer to the list.
 103:Middlewares/Third_Party/Lora/Utilities/timeServer.c ****  *
 104:Middlewares/Third_Party/Lora/Utilities/timeServer.c ****  * \remark The list is automatically sorted. The list head always contains the
 105:Middlewares/Third_Party/Lora/Utilities/timeServer.c ****  *     next timer to expire.
 106:Middlewares/Third_Party/Lora/Utilities/timeServer.c ****  *
 107:Middlewares/Third_Party/Lora/Utilities/timeServer.c ****  * \param [IN]  obj Timer object to be added to the list
 108:Middlewares/Third_Party/Lora/Utilities/timeServer.c ****  * \param [IN]  remainingTime Remaining time of the running head after which the object may be adde
 109:Middlewares/Third_Party/Lora/Utilities/timeServer.c ****  */
 110:Middlewares/Third_Party/Lora/Utilities/timeServer.c **** static void TimerInsertTimer( TimerEvent_t *obj );
 111:Middlewares/Third_Party/Lora/Utilities/timeServer.c **** 
 112:Middlewares/Third_Party/Lora/Utilities/timeServer.c **** /*!
 113:Middlewares/Third_Party/Lora/Utilities/timeServer.c ****  * \brief Sets a timeout with the duration "timestamp"
 114:Middlewares/Third_Party/Lora/Utilities/timeServer.c ****  * 
 115:Middlewares/Third_Party/Lora/Utilities/timeServer.c ****  * \param [IN] timestamp Delay duration
 116:Middlewares/Third_Party/Lora/Utilities/timeServer.c ****  */
 117:Middlewares/Third_Party/Lora/Utilities/timeServer.c **** static void TimerSetTimeout( TimerEvent_t *obj );
 118:Middlewares/Third_Party/Lora/Utilities/timeServer.c **** 
 119:Middlewares/Third_Party/Lora/Utilities/timeServer.c **** /*!
 120:Middlewares/Third_Party/Lora/Utilities/timeServer.c ****  * \brief Check if the Object to be added is not already in the list
 121:Middlewares/Third_Party/Lora/Utilities/timeServer.c ****  * 
 122:Middlewares/Third_Party/Lora/Utilities/timeServer.c ****  * \param [IN] timestamp Delay duration
 123:Middlewares/Third_Party/Lora/Utilities/timeServer.c ****  * \retval true (the object is already in the list) or false  
 124:Middlewares/Third_Party/Lora/Utilities/timeServer.c ****  */
 125:Middlewares/Third_Party/Lora/Utilities/timeServer.c **** static bool TimerExists( TimerEvent_t *obj );
 126:Middlewares/Third_Party/Lora/Utilities/timeServer.c **** 
 127:Middlewares/Third_Party/Lora/Utilities/timeServer.c **** 
 128:Middlewares/Third_Party/Lora/Utilities/timeServer.c **** 
 129:Middlewares/Third_Party/Lora/Utilities/timeServer.c **** void TimerInit( TimerEvent_t *obj, void ( *callback )( void ) )
 130:Middlewares/Third_Party/Lora/Utilities/timeServer.c **** {
 131:Middlewares/Third_Party/Lora/Utilities/timeServer.c ****   obj->Timestamp = 0;
 132:Middlewares/Third_Party/Lora/Utilities/timeServer.c ****   obj->ReloadValue = 0;
 133:Middlewares/Third_Party/Lora/Utilities/timeServer.c ****   obj->IsRunning = false;
 134:Middlewares/Third_Party/Lora/Utilities/timeServer.c ****   obj->Callback = callback;
 135:Middlewares/Third_Party/Lora/Utilities/timeServer.c ****   obj->Next = NULL;
 136:Middlewares/Third_Party/Lora/Utilities/timeServer.c **** }
 137:Middlewares/Third_Party/Lora/Utilities/timeServer.c **** 
 138:Middlewares/Third_Party/Lora/Utilities/timeServer.c **** void TimerStart( TimerEvent_t *obj )
 139:Middlewares/Third_Party/Lora/Utilities/timeServer.c **** {
 140:Middlewares/Third_Party/Lora/Utilities/timeServer.c ****   uint32_t elapsedTime = 0;
 141:Middlewares/Third_Party/Lora/Utilities/timeServer.c ****   
 142:Middlewares/Third_Party/Lora/Utilities/timeServer.c ****   BACKUP_PRIMASK();
 143:Middlewares/Third_Party/Lora/Utilities/timeServer.c ****   
 144:Middlewares/Third_Party/Lora/Utilities/timeServer.c ****   DISABLE_IRQ( );
 145:Middlewares/Third_Party/Lora/Utilities/timeServer.c ****   
 146:Middlewares/Third_Party/Lora/Utilities/timeServer.c **** 
 147:Middlewares/Third_Party/Lora/Utilities/timeServer.c ****   if( ( obj == NULL ) || ( TimerExists( obj ) == true ) )
 148:Middlewares/Third_Party/Lora/Utilities/timeServer.c ****   {
ARM GAS  /var/folders/2m/zqg86yyd4hbf56w83tkxjpvr0000gn/T//ccgDZjkz.s 			page 4


 149:Middlewares/Third_Party/Lora/Utilities/timeServer.c ****     RESTORE_PRIMASK( );
 150:Middlewares/Third_Party/Lora/Utilities/timeServer.c ****     return;
 151:Middlewares/Third_Party/Lora/Utilities/timeServer.c ****   }
 152:Middlewares/Third_Party/Lora/Utilities/timeServer.c ****   obj->Timestamp = obj->ReloadValue;
 153:Middlewares/Third_Party/Lora/Utilities/timeServer.c ****   obj->IsRunning = false;
 154:Middlewares/Third_Party/Lora/Utilities/timeServer.c **** 
 155:Middlewares/Third_Party/Lora/Utilities/timeServer.c ****   if( TimerListHead == NULL )
 156:Middlewares/Third_Party/Lora/Utilities/timeServer.c ****   {
 157:Middlewares/Third_Party/Lora/Utilities/timeServer.c ****     HW_RTC_SetTimerContext( );
 158:Middlewares/Third_Party/Lora/Utilities/timeServer.c ****     TimerInsertNewHeadTimer( obj ); // insert a timeout at now+obj->Timestamp
 159:Middlewares/Third_Party/Lora/Utilities/timeServer.c ****   }
 160:Middlewares/Third_Party/Lora/Utilities/timeServer.c ****   else 
 161:Middlewares/Third_Party/Lora/Utilities/timeServer.c ****   {
 162:Middlewares/Third_Party/Lora/Utilities/timeServer.c ****     elapsedTime = HW_RTC_GetTimerElapsedTime( );
 163:Middlewares/Third_Party/Lora/Utilities/timeServer.c ****     obj->Timestamp += elapsedTime;
 164:Middlewares/Third_Party/Lora/Utilities/timeServer.c ****   
 165:Middlewares/Third_Party/Lora/Utilities/timeServer.c ****     if( obj->Timestamp < TimerListHead->Timestamp )
 166:Middlewares/Third_Party/Lora/Utilities/timeServer.c ****     {
 167:Middlewares/Third_Party/Lora/Utilities/timeServer.c ****       TimerInsertNewHeadTimer( obj);
 168:Middlewares/Third_Party/Lora/Utilities/timeServer.c ****     }
 169:Middlewares/Third_Party/Lora/Utilities/timeServer.c ****     else
 170:Middlewares/Third_Party/Lora/Utilities/timeServer.c ****     {
 171:Middlewares/Third_Party/Lora/Utilities/timeServer.c ****       TimerInsertTimer( obj);
 172:Middlewares/Third_Party/Lora/Utilities/timeServer.c ****     }
 173:Middlewares/Third_Party/Lora/Utilities/timeServer.c ****   }
 174:Middlewares/Third_Party/Lora/Utilities/timeServer.c ****   RESTORE_PRIMASK( );
 175:Middlewares/Third_Party/Lora/Utilities/timeServer.c **** }
 176:Middlewares/Third_Party/Lora/Utilities/timeServer.c **** 
 177:Middlewares/Third_Party/Lora/Utilities/timeServer.c **** static void TimerInsertTimer( TimerEvent_t *obj)
 178:Middlewares/Third_Party/Lora/Utilities/timeServer.c **** {
  25              		.loc 1 178 0
  26              		.cfi_startproc
  27              		@ args = 0, pretend = 0, frame = 0
  28              		@ frame_needed = 0, uses_anonymous_args = 0
  29              	.LVL0:
  30 0000 10B5     		push	{r4, lr}
  31              	.LCFI0:
  32              		.cfi_def_cfa_offset 8
  33              		.cfi_offset 4, -8
  34              		.cfi_offset 14, -4
 179:Middlewares/Third_Party/Lora/Utilities/timeServer.c ****   TimerEvent_t* cur = TimerListHead;
  35              		.loc 1 179 0
  36 0002 0A4B     		ldr	r3, .L7
  37 0004 1A68     		ldr	r2, [r3]
  38              	.LVL1:
 180:Middlewares/Third_Party/Lora/Utilities/timeServer.c ****   TimerEvent_t* next = TimerListHead->Next;
  39              		.loc 1 180 0
  40 0006 1369     		ldr	r3, [r2, #16]
  41              	.LVL2:
  42              	.L2:
 181:Middlewares/Third_Party/Lora/Utilities/timeServer.c **** 
 182:Middlewares/Third_Party/Lora/Utilities/timeServer.c ****   while (cur->Next != NULL )
  43              		.loc 1 182 0
  44 0008 1169     		ldr	r1, [r2, #16]
  45 000a 0029     		cmp	r1, #0
  46 000c 09D0     		beq	.L6
 183:Middlewares/Third_Party/Lora/Utilities/timeServer.c ****   {  
ARM GAS  /var/folders/2m/zqg86yyd4hbf56w83tkxjpvr0000gn/T//ccgDZjkz.s 			page 5


 184:Middlewares/Third_Party/Lora/Utilities/timeServer.c ****     if( obj->Timestamp  > next->Timestamp )
  47              		.loc 1 184 0
  48 000e 0168     		ldr	r1, [r0]
  49 0010 1C68     		ldr	r4, [r3]
  50 0012 A142     		cmp	r1, r4
  51 0014 02D9     		bls	.L3
  52              	.LVL3:
 185:Middlewares/Third_Party/Lora/Utilities/timeServer.c ****     {
 186:Middlewares/Third_Party/Lora/Utilities/timeServer.c ****         cur = next;
  53              		.loc 1 186 0
  54 0016 1A00     		movs	r2, r3
 187:Middlewares/Third_Party/Lora/Utilities/timeServer.c ****         next = next->Next;
  55              		.loc 1 187 0
  56 0018 1B69     		ldr	r3, [r3, #16]
  57              	.LVL4:
  58 001a F5E7     		b	.L2
  59              	.L3:
 188:Middlewares/Third_Party/Lora/Utilities/timeServer.c ****     }
 189:Middlewares/Third_Party/Lora/Utilities/timeServer.c ****     else
 190:Middlewares/Third_Party/Lora/Utilities/timeServer.c ****     {
 191:Middlewares/Third_Party/Lora/Utilities/timeServer.c ****         cur->Next = obj;
  60              		.loc 1 191 0
  61 001c 1061     		str	r0, [r2, #16]
 192:Middlewares/Third_Party/Lora/Utilities/timeServer.c ****         obj->Next = next;
  62              		.loc 1 192 0
  63 001e 0361     		str	r3, [r0, #16]
 193:Middlewares/Third_Party/Lora/Utilities/timeServer.c ****         return;
  64              		.loc 1 193 0
  65 0020 02E0     		b	.L1
  66              	.L6:
 194:Middlewares/Third_Party/Lora/Utilities/timeServer.c **** 
 195:Middlewares/Third_Party/Lora/Utilities/timeServer.c ****     }
 196:Middlewares/Third_Party/Lora/Utilities/timeServer.c ****   }
 197:Middlewares/Third_Party/Lora/Utilities/timeServer.c ****   cur->Next = obj;
  67              		.loc 1 197 0
  68 0022 1061     		str	r0, [r2, #16]
 198:Middlewares/Third_Party/Lora/Utilities/timeServer.c ****   obj->Next = NULL;
  69              		.loc 1 198 0
  70 0024 0023     		movs	r3, #0
  71              	.LVL5:
  72 0026 0361     		str	r3, [r0, #16]
  73              	.L1:
 199:Middlewares/Third_Party/Lora/Utilities/timeServer.c **** }
  74              		.loc 1 199 0
  75              		@ sp needed
  76 0028 10BD     		pop	{r4, pc}
  77              	.L8:
  78 002a C046     		.align	2
  79              	.L7:
  80 002c 00000000 		.word	.LANCHOR0
  81              		.cfi_endproc
  82              	.LFE42:
  84              		.section	.text.TimerExists,"ax",%progbits
  85              		.align	1
  86              		.syntax unified
  87              		.code	16
  88              		.thumb_func
ARM GAS  /var/folders/2m/zqg86yyd4hbf56w83tkxjpvr0000gn/T//ccgDZjkz.s 			page 6


  89              		.fpu softvfp
  91              	TimerExists:
  92              	.LFB46:
 200:Middlewares/Third_Party/Lora/Utilities/timeServer.c **** 
 201:Middlewares/Third_Party/Lora/Utilities/timeServer.c **** static void TimerInsertNewHeadTimer( TimerEvent_t *obj )
 202:Middlewares/Third_Party/Lora/Utilities/timeServer.c **** {
 203:Middlewares/Third_Party/Lora/Utilities/timeServer.c ****   TimerEvent_t* cur = TimerListHead;
 204:Middlewares/Third_Party/Lora/Utilities/timeServer.c **** 
 205:Middlewares/Third_Party/Lora/Utilities/timeServer.c ****   if( cur != NULL )
 206:Middlewares/Third_Party/Lora/Utilities/timeServer.c ****   {
 207:Middlewares/Third_Party/Lora/Utilities/timeServer.c ****     cur->IsRunning = false;
 208:Middlewares/Third_Party/Lora/Utilities/timeServer.c ****   }
 209:Middlewares/Third_Party/Lora/Utilities/timeServer.c **** 
 210:Middlewares/Third_Party/Lora/Utilities/timeServer.c ****   obj->Next = cur;
 211:Middlewares/Third_Party/Lora/Utilities/timeServer.c ****   TimerListHead = obj;
 212:Middlewares/Third_Party/Lora/Utilities/timeServer.c ****   TimerSetTimeout( TimerListHead );
 213:Middlewares/Third_Party/Lora/Utilities/timeServer.c **** }
 214:Middlewares/Third_Party/Lora/Utilities/timeServer.c **** 
 215:Middlewares/Third_Party/Lora/Utilities/timeServer.c **** void TimerIrqHandler( void )
 216:Middlewares/Third_Party/Lora/Utilities/timeServer.c **** {
 217:Middlewares/Third_Party/Lora/Utilities/timeServer.c ****   TimerEvent_t* cur;
 218:Middlewares/Third_Party/Lora/Utilities/timeServer.c ****   TimerEvent_t* next;
 219:Middlewares/Third_Party/Lora/Utilities/timeServer.c ****   
 220:Middlewares/Third_Party/Lora/Utilities/timeServer.c **** 
 221:Middlewares/Third_Party/Lora/Utilities/timeServer.c ****   
 222:Middlewares/Third_Party/Lora/Utilities/timeServer.c ****   uint32_t old =  HW_RTC_GetTimerContext( );
 223:Middlewares/Third_Party/Lora/Utilities/timeServer.c ****   uint32_t now =  HW_RTC_SetTimerContext( );
 224:Middlewares/Third_Party/Lora/Utilities/timeServer.c ****   uint32_t DeltaContext = now - old; //intentionnal wrap around
 225:Middlewares/Third_Party/Lora/Utilities/timeServer.c ****   
 226:Middlewares/Third_Party/Lora/Utilities/timeServer.c ****   /* update timeStamp based upon new Time Reference*/
 227:Middlewares/Third_Party/Lora/Utilities/timeServer.c ****   /* beacuse delta context should never exceed 2^32*/
 228:Middlewares/Third_Party/Lora/Utilities/timeServer.c ****   if ( TimerListHead != NULL )
 229:Middlewares/Third_Party/Lora/Utilities/timeServer.c ****   {
 230:Middlewares/Third_Party/Lora/Utilities/timeServer.c ****     for (cur=TimerListHead; cur->Next != NULL; cur= cur->Next)
 231:Middlewares/Third_Party/Lora/Utilities/timeServer.c ****     {
 232:Middlewares/Third_Party/Lora/Utilities/timeServer.c ****       next =cur->Next;
 233:Middlewares/Third_Party/Lora/Utilities/timeServer.c ****       if (next->Timestamp > DeltaContext)
 234:Middlewares/Third_Party/Lora/Utilities/timeServer.c ****       {
 235:Middlewares/Third_Party/Lora/Utilities/timeServer.c ****         next->Timestamp -= DeltaContext;
 236:Middlewares/Third_Party/Lora/Utilities/timeServer.c ****       }
 237:Middlewares/Third_Party/Lora/Utilities/timeServer.c ****       else
 238:Middlewares/Third_Party/Lora/Utilities/timeServer.c ****       {
 239:Middlewares/Third_Party/Lora/Utilities/timeServer.c ****         next->Timestamp = 0 ;
 240:Middlewares/Third_Party/Lora/Utilities/timeServer.c ****       }
 241:Middlewares/Third_Party/Lora/Utilities/timeServer.c ****     }
 242:Middlewares/Third_Party/Lora/Utilities/timeServer.c ****   }
 243:Middlewares/Third_Party/Lora/Utilities/timeServer.c ****   
 244:Middlewares/Third_Party/Lora/Utilities/timeServer.c ****   /* execute imediately the alarm callback */
 245:Middlewares/Third_Party/Lora/Utilities/timeServer.c ****   if ( TimerListHead != NULL )
 246:Middlewares/Third_Party/Lora/Utilities/timeServer.c ****   {
 247:Middlewares/Third_Party/Lora/Utilities/timeServer.c ****     cur = TimerListHead;
 248:Middlewares/Third_Party/Lora/Utilities/timeServer.c ****     TimerListHead = TimerListHead->Next;
 249:Middlewares/Third_Party/Lora/Utilities/timeServer.c ****     exec_cb( cur->Callback );
 250:Middlewares/Third_Party/Lora/Utilities/timeServer.c ****   }
 251:Middlewares/Third_Party/Lora/Utilities/timeServer.c **** 
 252:Middlewares/Third_Party/Lora/Utilities/timeServer.c **** 
 253:Middlewares/Third_Party/Lora/Utilities/timeServer.c ****   // remove all the expired object from the list
ARM GAS  /var/folders/2m/zqg86yyd4hbf56w83tkxjpvr0000gn/T//ccgDZjkz.s 			page 7


 254:Middlewares/Third_Party/Lora/Utilities/timeServer.c ****   while( ( TimerListHead != NULL ) && ( TimerListHead->Timestamp < HW_RTC_GetTimerElapsedTime(  )  
 255:Middlewares/Third_Party/Lora/Utilities/timeServer.c ****   {
 256:Middlewares/Third_Party/Lora/Utilities/timeServer.c ****    cur = TimerListHead;
 257:Middlewares/Third_Party/Lora/Utilities/timeServer.c ****    TimerListHead = TimerListHead->Next;
 258:Middlewares/Third_Party/Lora/Utilities/timeServer.c ****    exec_cb( cur->Callback );
 259:Middlewares/Third_Party/Lora/Utilities/timeServer.c ****   }
 260:Middlewares/Third_Party/Lora/Utilities/timeServer.c **** 
 261:Middlewares/Third_Party/Lora/Utilities/timeServer.c ****   /* start the next TimerListHead if it exists AND NOT running */
 262:Middlewares/Third_Party/Lora/Utilities/timeServer.c ****   if(( TimerListHead != NULL ) && (TimerListHead->IsRunning == false))
 263:Middlewares/Third_Party/Lora/Utilities/timeServer.c ****   {
 264:Middlewares/Third_Party/Lora/Utilities/timeServer.c ****     TimerSetTimeout( TimerListHead );
 265:Middlewares/Third_Party/Lora/Utilities/timeServer.c ****   }
 266:Middlewares/Third_Party/Lora/Utilities/timeServer.c **** }
 267:Middlewares/Third_Party/Lora/Utilities/timeServer.c **** 
 268:Middlewares/Third_Party/Lora/Utilities/timeServer.c **** void TimerStop( TimerEvent_t *obj ) 
 269:Middlewares/Third_Party/Lora/Utilities/timeServer.c **** {
 270:Middlewares/Third_Party/Lora/Utilities/timeServer.c ****   BACKUP_PRIMASK();
 271:Middlewares/Third_Party/Lora/Utilities/timeServer.c ****   
 272:Middlewares/Third_Party/Lora/Utilities/timeServer.c ****   DISABLE_IRQ( );
 273:Middlewares/Third_Party/Lora/Utilities/timeServer.c ****   
 274:Middlewares/Third_Party/Lora/Utilities/timeServer.c ****   TimerEvent_t* prev = TimerListHead;
 275:Middlewares/Third_Party/Lora/Utilities/timeServer.c ****   TimerEvent_t* cur = TimerListHead;
 276:Middlewares/Third_Party/Lora/Utilities/timeServer.c **** 
 277:Middlewares/Third_Party/Lora/Utilities/timeServer.c ****   // List is empty or the Obj to stop does not exist 
 278:Middlewares/Third_Party/Lora/Utilities/timeServer.c ****   if( ( TimerListHead == NULL ) || ( obj == NULL ) )
 279:Middlewares/Third_Party/Lora/Utilities/timeServer.c ****   {
 280:Middlewares/Third_Party/Lora/Utilities/timeServer.c ****     RESTORE_PRIMASK( );
 281:Middlewares/Third_Party/Lora/Utilities/timeServer.c ****     return;
 282:Middlewares/Third_Party/Lora/Utilities/timeServer.c ****   }
 283:Middlewares/Third_Party/Lora/Utilities/timeServer.c **** 
 284:Middlewares/Third_Party/Lora/Utilities/timeServer.c ****   if( TimerListHead == obj ) // Stop the Head                  
 285:Middlewares/Third_Party/Lora/Utilities/timeServer.c ****   {
 286:Middlewares/Third_Party/Lora/Utilities/timeServer.c ****     if( TimerListHead->IsRunning == true ) // The head is already running 
 287:Middlewares/Third_Party/Lora/Utilities/timeServer.c ****     {  
 288:Middlewares/Third_Party/Lora/Utilities/timeServer.c **** 	  
 289:Middlewares/Third_Party/Lora/Utilities/timeServer.c ****       TimerListHead->IsRunning = false;
 290:Middlewares/Third_Party/Lora/Utilities/timeServer.c ****       if( TimerListHead->Next != NULL )
 291:Middlewares/Third_Party/Lora/Utilities/timeServer.c ****       {
 292:Middlewares/Third_Party/Lora/Utilities/timeServer.c ****         TimerListHead = TimerListHead->Next;
 293:Middlewares/Third_Party/Lora/Utilities/timeServer.c ****         TimerSetTimeout( TimerListHead );
 294:Middlewares/Third_Party/Lora/Utilities/timeServer.c ****       }
 295:Middlewares/Third_Party/Lora/Utilities/timeServer.c ****       else
 296:Middlewares/Third_Party/Lora/Utilities/timeServer.c ****       {
 297:Middlewares/Third_Party/Lora/Utilities/timeServer.c ****         HW_RTC_StopAlarm( );
 298:Middlewares/Third_Party/Lora/Utilities/timeServer.c ****         TimerListHead = NULL;
 299:Middlewares/Third_Party/Lora/Utilities/timeServer.c ****       }
 300:Middlewares/Third_Party/Lora/Utilities/timeServer.c ****     }
 301:Middlewares/Third_Party/Lora/Utilities/timeServer.c ****     else // Stop the head before it is started
 302:Middlewares/Third_Party/Lora/Utilities/timeServer.c ****     {   
 303:Middlewares/Third_Party/Lora/Utilities/timeServer.c ****       if( TimerListHead->Next != NULL )   
 304:Middlewares/Third_Party/Lora/Utilities/timeServer.c ****       {
 305:Middlewares/Third_Party/Lora/Utilities/timeServer.c ****         TimerListHead = TimerListHead->Next;
 306:Middlewares/Third_Party/Lora/Utilities/timeServer.c ****       }
 307:Middlewares/Third_Party/Lora/Utilities/timeServer.c ****       else
 308:Middlewares/Third_Party/Lora/Utilities/timeServer.c ****       {
 309:Middlewares/Third_Party/Lora/Utilities/timeServer.c ****         TimerListHead = NULL;
 310:Middlewares/Third_Party/Lora/Utilities/timeServer.c ****       }
ARM GAS  /var/folders/2m/zqg86yyd4hbf56w83tkxjpvr0000gn/T//ccgDZjkz.s 			page 8


 311:Middlewares/Third_Party/Lora/Utilities/timeServer.c ****     }
 312:Middlewares/Third_Party/Lora/Utilities/timeServer.c ****   }
 313:Middlewares/Third_Party/Lora/Utilities/timeServer.c ****   else // Stop an object within the list
 314:Middlewares/Third_Party/Lora/Utilities/timeServer.c ****   {      
 315:Middlewares/Third_Party/Lora/Utilities/timeServer.c ****     while( cur != NULL )
 316:Middlewares/Third_Party/Lora/Utilities/timeServer.c ****     {
 317:Middlewares/Third_Party/Lora/Utilities/timeServer.c ****       if( cur == obj )
 318:Middlewares/Third_Party/Lora/Utilities/timeServer.c ****       {
 319:Middlewares/Third_Party/Lora/Utilities/timeServer.c ****         if( cur->Next != NULL )
 320:Middlewares/Third_Party/Lora/Utilities/timeServer.c ****         {
 321:Middlewares/Third_Party/Lora/Utilities/timeServer.c ****           cur = cur->Next;
 322:Middlewares/Third_Party/Lora/Utilities/timeServer.c ****           prev->Next = cur;
 323:Middlewares/Third_Party/Lora/Utilities/timeServer.c ****         }
 324:Middlewares/Third_Party/Lora/Utilities/timeServer.c ****         else
 325:Middlewares/Third_Party/Lora/Utilities/timeServer.c ****         {
 326:Middlewares/Third_Party/Lora/Utilities/timeServer.c ****           cur = NULL;
 327:Middlewares/Third_Party/Lora/Utilities/timeServer.c ****           prev->Next = cur;
 328:Middlewares/Third_Party/Lora/Utilities/timeServer.c ****         }
 329:Middlewares/Third_Party/Lora/Utilities/timeServer.c ****         break;
 330:Middlewares/Third_Party/Lora/Utilities/timeServer.c ****       }
 331:Middlewares/Third_Party/Lora/Utilities/timeServer.c ****       else
 332:Middlewares/Third_Party/Lora/Utilities/timeServer.c ****       {
 333:Middlewares/Third_Party/Lora/Utilities/timeServer.c ****         prev = cur;
 334:Middlewares/Third_Party/Lora/Utilities/timeServer.c ****         cur = cur->Next;
 335:Middlewares/Third_Party/Lora/Utilities/timeServer.c ****       }
 336:Middlewares/Third_Party/Lora/Utilities/timeServer.c ****     }   
 337:Middlewares/Third_Party/Lora/Utilities/timeServer.c ****   }
 338:Middlewares/Third_Party/Lora/Utilities/timeServer.c ****   
 339:Middlewares/Third_Party/Lora/Utilities/timeServer.c ****   RESTORE_PRIMASK( );
 340:Middlewares/Third_Party/Lora/Utilities/timeServer.c **** }  
 341:Middlewares/Third_Party/Lora/Utilities/timeServer.c ****   
 342:Middlewares/Third_Party/Lora/Utilities/timeServer.c **** static bool TimerExists( TimerEvent_t *obj )
 343:Middlewares/Third_Party/Lora/Utilities/timeServer.c **** {
  93              		.loc 1 343 0
  94              		.cfi_startproc
  95              		@ args = 0, pretend = 0, frame = 0
  96              		@ frame_needed = 0, uses_anonymous_args = 0
  97              		@ link register save eliminated.
  98              	.LVL6:
 344:Middlewares/Third_Party/Lora/Utilities/timeServer.c ****   TimerEvent_t* cur = TimerListHead;
  99              		.loc 1 344 0
 100 0000 054B     		ldr	r3, .L15
 101 0002 1B68     		ldr	r3, [r3]
 102              	.LVL7:
 103              	.L10:
 345:Middlewares/Third_Party/Lora/Utilities/timeServer.c **** 
 346:Middlewares/Third_Party/Lora/Utilities/timeServer.c ****   while( cur != NULL )
 104              		.loc 1 346 0
 105 0004 002B     		cmp	r3, #0
 106 0006 03D0     		beq	.L14
 347:Middlewares/Third_Party/Lora/Utilities/timeServer.c ****   {
 348:Middlewares/Third_Party/Lora/Utilities/timeServer.c ****     if( cur == obj )
 107              		.loc 1 348 0
 108 0008 8342     		cmp	r3, r0
 109 000a 03D0     		beq	.L13
 349:Middlewares/Third_Party/Lora/Utilities/timeServer.c ****     {
 350:Middlewares/Third_Party/Lora/Utilities/timeServer.c ****       return true;
ARM GAS  /var/folders/2m/zqg86yyd4hbf56w83tkxjpvr0000gn/T//ccgDZjkz.s 			page 9


 351:Middlewares/Third_Party/Lora/Utilities/timeServer.c ****     }
 352:Middlewares/Third_Party/Lora/Utilities/timeServer.c ****     cur = cur->Next;
 110              		.loc 1 352 0
 111 000c 1B69     		ldr	r3, [r3, #16]
 112              	.LVL8:
 113 000e F9E7     		b	.L10
 114              	.L14:
 353:Middlewares/Third_Party/Lora/Utilities/timeServer.c ****   }
 354:Middlewares/Third_Party/Lora/Utilities/timeServer.c ****   return false;
 115              		.loc 1 354 0
 116 0010 0020     		movs	r0, #0
 117              	.LVL9:
 118              	.L11:
 355:Middlewares/Third_Party/Lora/Utilities/timeServer.c **** }
 119              		.loc 1 355 0
 120              		@ sp needed
 121 0012 7047     		bx	lr
 122              	.LVL10:
 123              	.L13:
 350:Middlewares/Third_Party/Lora/Utilities/timeServer.c ****     }
 124              		.loc 1 350 0
 125 0014 0120     		movs	r0, #1
 126              	.LVL11:
 127 0016 FCE7     		b	.L11
 128              	.L16:
 129              		.align	2
 130              	.L15:
 131 0018 00000000 		.word	.LANCHOR0
 132              		.cfi_endproc
 133              	.LFE46:
 135              		.section	.text.TimerSetTimeout,"ax",%progbits
 136              		.align	1
 137              		.syntax unified
 138              		.code	16
 139              		.thumb_func
 140              		.fpu softvfp
 142              	TimerSetTimeout:
 143              	.LFB51:
 356:Middlewares/Third_Party/Lora/Utilities/timeServer.c **** 
 357:Middlewares/Third_Party/Lora/Utilities/timeServer.c **** void TimerReset( TimerEvent_t *obj )
 358:Middlewares/Third_Party/Lora/Utilities/timeServer.c **** {
 359:Middlewares/Third_Party/Lora/Utilities/timeServer.c ****   TimerStop( obj );
 360:Middlewares/Third_Party/Lora/Utilities/timeServer.c ****   TimerStart( obj );
 361:Middlewares/Third_Party/Lora/Utilities/timeServer.c **** }
 362:Middlewares/Third_Party/Lora/Utilities/timeServer.c **** 
 363:Middlewares/Third_Party/Lora/Utilities/timeServer.c **** void TimerSetValue( TimerEvent_t *obj, uint32_t value )
 364:Middlewares/Third_Party/Lora/Utilities/timeServer.c **** {
 365:Middlewares/Third_Party/Lora/Utilities/timeServer.c ****   uint32_t minValue = 0;
 366:Middlewares/Third_Party/Lora/Utilities/timeServer.c ****   uint32_t ticks = HW_RTC_ms2Tick( value );
 367:Middlewares/Third_Party/Lora/Utilities/timeServer.c **** 
 368:Middlewares/Third_Party/Lora/Utilities/timeServer.c ****   TimerStop( obj );
 369:Middlewares/Third_Party/Lora/Utilities/timeServer.c **** 
 370:Middlewares/Third_Party/Lora/Utilities/timeServer.c ****   minValue = HW_RTC_GetMinimumTimeout( );
 371:Middlewares/Third_Party/Lora/Utilities/timeServer.c ****   
 372:Middlewares/Third_Party/Lora/Utilities/timeServer.c ****   if( ticks < minValue )
 373:Middlewares/Third_Party/Lora/Utilities/timeServer.c ****   {
 374:Middlewares/Third_Party/Lora/Utilities/timeServer.c ****     ticks = minValue;
ARM GAS  /var/folders/2m/zqg86yyd4hbf56w83tkxjpvr0000gn/T//ccgDZjkz.s 			page 10


 375:Middlewares/Third_Party/Lora/Utilities/timeServer.c ****   }
 376:Middlewares/Third_Party/Lora/Utilities/timeServer.c **** 
 377:Middlewares/Third_Party/Lora/Utilities/timeServer.c ****   obj->Timestamp = ticks;
 378:Middlewares/Third_Party/Lora/Utilities/timeServer.c ****   obj->ReloadValue = ticks;
 379:Middlewares/Third_Party/Lora/Utilities/timeServer.c **** }
 380:Middlewares/Third_Party/Lora/Utilities/timeServer.c **** 
 381:Middlewares/Third_Party/Lora/Utilities/timeServer.c **** TimerTime_t TimerGetCurrentTime( void )
 382:Middlewares/Third_Party/Lora/Utilities/timeServer.c **** {
 383:Middlewares/Third_Party/Lora/Utilities/timeServer.c ****   uint32_t now = HW_RTC_GetTimerValue( );
 384:Middlewares/Third_Party/Lora/Utilities/timeServer.c ****   return  HW_RTC_Tick2ms(now);
 385:Middlewares/Third_Party/Lora/Utilities/timeServer.c **** }
 386:Middlewares/Third_Party/Lora/Utilities/timeServer.c **** 
 387:Middlewares/Third_Party/Lora/Utilities/timeServer.c **** TimerTime_t TimerGetElapsedTime( TimerTime_t past )
 388:Middlewares/Third_Party/Lora/Utilities/timeServer.c **** {
 389:Middlewares/Third_Party/Lora/Utilities/timeServer.c ****   uint32_t nowInTicks = HW_RTC_GetTimerValue( );
 390:Middlewares/Third_Party/Lora/Utilities/timeServer.c ****   uint32_t pastInTicks = HW_RTC_ms2Tick( past );
 391:Middlewares/Third_Party/Lora/Utilities/timeServer.c ****   /* intentional wrap around. Works Ok if tick duation below 1ms */
 392:Middlewares/Third_Party/Lora/Utilities/timeServer.c ****   return HW_RTC_Tick2ms( nowInTicks- pastInTicks );
 393:Middlewares/Third_Party/Lora/Utilities/timeServer.c **** }
 394:Middlewares/Third_Party/Lora/Utilities/timeServer.c **** 
 395:Middlewares/Third_Party/Lora/Utilities/timeServer.c **** static void TimerSetTimeout( TimerEvent_t *obj )
 396:Middlewares/Third_Party/Lora/Utilities/timeServer.c **** {
 144              		.loc 1 396 0
 145              		.cfi_startproc
 146              		@ args = 0, pretend = 0, frame = 0
 147              		@ frame_needed = 0, uses_anonymous_args = 0
 148              	.LVL12:
 149 0000 70B5     		push	{r4, r5, r6, lr}
 150              	.LCFI1:
 151              		.cfi_def_cfa_offset 16
 152              		.cfi_offset 4, -16
 153              		.cfi_offset 5, -12
 154              		.cfi_offset 6, -8
 155              		.cfi_offset 14, -4
 156 0002 0400     		movs	r4, r0
 397:Middlewares/Third_Party/Lora/Utilities/timeServer.c ****   int32_t minTicks= HW_RTC_GetMinimumTimeout( );
 157              		.loc 1 397 0
 158 0004 FFF7FEFF 		bl	HW_RTC_GetMinimumTimeout
 159              	.LVL13:
 160 0008 0500     		movs	r5, r0
 161              	.LVL14:
 398:Middlewares/Third_Party/Lora/Utilities/timeServer.c ****   obj->IsRunning = true; 
 162              		.loc 1 398 0
 163 000a 0123     		movs	r3, #1
 164 000c 2372     		strb	r3, [r4, #8]
 399:Middlewares/Third_Party/Lora/Utilities/timeServer.c **** 
 400:Middlewares/Third_Party/Lora/Utilities/timeServer.c ****   //in case deadline too soon
 401:Middlewares/Third_Party/Lora/Utilities/timeServer.c ****   if(obj->Timestamp  < (HW_RTC_GetTimerElapsedTime(  ) + minTicks) )
 165              		.loc 1 401 0
 166 000e 2668     		ldr	r6, [r4]
 167 0010 FFF7FEFF 		bl	HW_RTC_GetTimerElapsedTime
 168              	.LVL15:
 169 0014 2818     		adds	r0, r5, r0
 170 0016 8642     		cmp	r6, r0
 171 0018 03D3     		bcc	.L19
 172              	.LVL16:
 173              	.L18:
ARM GAS  /var/folders/2m/zqg86yyd4hbf56w83tkxjpvr0000gn/T//ccgDZjkz.s 			page 11


 402:Middlewares/Third_Party/Lora/Utilities/timeServer.c ****   {
 403:Middlewares/Third_Party/Lora/Utilities/timeServer.c ****     obj->Timestamp = HW_RTC_GetTimerElapsedTime(  ) + minTicks;
 404:Middlewares/Third_Party/Lora/Utilities/timeServer.c ****   }
 405:Middlewares/Third_Party/Lora/Utilities/timeServer.c ****   HW_RTC_SetAlarm( obj->Timestamp );
 174              		.loc 1 405 0
 175 001a 2068     		ldr	r0, [r4]
 176 001c FFF7FEFF 		bl	HW_RTC_SetAlarm
 177              	.LVL17:
 406:Middlewares/Third_Party/Lora/Utilities/timeServer.c **** }
 178              		.loc 1 406 0
 179              		@ sp needed
 180              	.LVL18:
 181 0020 70BD     		pop	{r4, r5, r6, pc}
 182              	.LVL19:
 183              	.L19:
 403:Middlewares/Third_Party/Lora/Utilities/timeServer.c ****   }
 184              		.loc 1 403 0
 185 0022 FFF7FEFF 		bl	HW_RTC_GetTimerElapsedTime
 186              	.LVL20:
 187 0026 2D18     		adds	r5, r5, r0
 188              	.LVL21:
 189 0028 2560     		str	r5, [r4]
 190 002a F6E7     		b	.L18
 191              		.cfi_endproc
 192              	.LFE51:
 194              		.section	.text.TimerInsertNewHeadTimer,"ax",%progbits
 195              		.align	1
 196              		.syntax unified
 197              		.code	16
 198              		.thumb_func
 199              		.fpu softvfp
 201              	TimerInsertNewHeadTimer:
 202              	.LFB43:
 202:Middlewares/Third_Party/Lora/Utilities/timeServer.c ****   TimerEvent_t* cur = TimerListHead;
 203              		.loc 1 202 0
 204              		.cfi_startproc
 205              		@ args = 0, pretend = 0, frame = 0
 206              		@ frame_needed = 0, uses_anonymous_args = 0
 207              	.LVL22:
 208 0000 10B5     		push	{r4, lr}
 209              	.LCFI2:
 210              		.cfi_def_cfa_offset 8
 211              		.cfi_offset 4, -8
 212              		.cfi_offset 14, -4
 203:Middlewares/Third_Party/Lora/Utilities/timeServer.c **** 
 213              		.loc 1 203 0
 214 0002 064B     		ldr	r3, .L22
 215 0004 1B68     		ldr	r3, [r3]
 216              	.LVL23:
 205:Middlewares/Third_Party/Lora/Utilities/timeServer.c ****   {
 217              		.loc 1 205 0
 218 0006 002B     		cmp	r3, #0
 219 0008 01D0     		beq	.L21
 207:Middlewares/Third_Party/Lora/Utilities/timeServer.c ****   }
 220              		.loc 1 207 0
 221 000a 0022     		movs	r2, #0
 222 000c 1A72     		strb	r2, [r3, #8]
ARM GAS  /var/folders/2m/zqg86yyd4hbf56w83tkxjpvr0000gn/T//ccgDZjkz.s 			page 12


 223              	.L21:
 210:Middlewares/Third_Party/Lora/Utilities/timeServer.c ****   TimerListHead = obj;
 224              		.loc 1 210 0
 225 000e 0361     		str	r3, [r0, #16]
 211:Middlewares/Third_Party/Lora/Utilities/timeServer.c ****   TimerSetTimeout( TimerListHead );
 226              		.loc 1 211 0
 227 0010 024B     		ldr	r3, .L22
 228              	.LVL24:
 229 0012 1860     		str	r0, [r3]
 230              	.LVL25:
 212:Middlewares/Third_Party/Lora/Utilities/timeServer.c **** }
 231              		.loc 1 212 0
 232 0014 FFF7FEFF 		bl	TimerSetTimeout
 233              	.LVL26:
 213:Middlewares/Third_Party/Lora/Utilities/timeServer.c **** 
 234              		.loc 1 213 0
 235              		@ sp needed
 236 0018 10BD     		pop	{r4, pc}
 237              	.L23:
 238 001a C046     		.align	2
 239              	.L22:
 240 001c 00000000 		.word	.LANCHOR0
 241              		.cfi_endproc
 242              	.LFE43:
 244              		.section	.text.TimerInit,"ax",%progbits
 245              		.align	1
 246              		.global	TimerInit
 247              		.syntax unified
 248              		.code	16
 249              		.thumb_func
 250              		.fpu softvfp
 252              	TimerInit:
 253              	.LFB40:
 130:Middlewares/Third_Party/Lora/Utilities/timeServer.c ****   obj->Timestamp = 0;
 254              		.loc 1 130 0
 255              		.cfi_startproc
 256              		@ args = 0, pretend = 0, frame = 0
 257              		@ frame_needed = 0, uses_anonymous_args = 0
 258              		@ link register save eliminated.
 259              	.LVL27:
 131:Middlewares/Third_Party/Lora/Utilities/timeServer.c ****   obj->ReloadValue = 0;
 260              		.loc 1 131 0
 261 0000 0023     		movs	r3, #0
 262 0002 0360     		str	r3, [r0]
 132:Middlewares/Third_Party/Lora/Utilities/timeServer.c ****   obj->IsRunning = false;
 263              		.loc 1 132 0
 264 0004 4360     		str	r3, [r0, #4]
 133:Middlewares/Third_Party/Lora/Utilities/timeServer.c ****   obj->Callback = callback;
 265              		.loc 1 133 0
 266 0006 0372     		strb	r3, [r0, #8]
 134:Middlewares/Third_Party/Lora/Utilities/timeServer.c ****   obj->Next = NULL;
 267              		.loc 1 134 0
 268 0008 C160     		str	r1, [r0, #12]
 135:Middlewares/Third_Party/Lora/Utilities/timeServer.c **** }
 269              		.loc 1 135 0
 270 000a 0361     		str	r3, [r0, #16]
 136:Middlewares/Third_Party/Lora/Utilities/timeServer.c **** 
ARM GAS  /var/folders/2m/zqg86yyd4hbf56w83tkxjpvr0000gn/T//ccgDZjkz.s 			page 13


 271              		.loc 1 136 0
 272              		@ sp needed
 273 000c 7047     		bx	lr
 274              		.cfi_endproc
 275              	.LFE40:
 277              		.section	.text.TimerStart,"ax",%progbits
 278              		.align	1
 279              		.global	TimerStart
 280              		.syntax unified
 281              		.code	16
 282              		.thumb_func
 283              		.fpu softvfp
 285              	TimerStart:
 286              	.LFB41:
 139:Middlewares/Third_Party/Lora/Utilities/timeServer.c ****   uint32_t elapsedTime = 0;
 287              		.loc 1 139 0
 288              		.cfi_startproc
 289              		@ args = 0, pretend = 0, frame = 0
 290              		@ frame_needed = 0, uses_anonymous_args = 0
 291              	.LVL28:
 292 0000 70B5     		push	{r4, r5, r6, lr}
 293              	.LCFI3:
 294              		.cfi_def_cfa_offset 16
 295              		.cfi_offset 4, -16
 296              		.cfi_offset 5, -12
 297              		.cfi_offset 6, -8
 298              		.cfi_offset 14, -4
 299 0002 0400     		movs	r4, r0
 300              	.LVL29:
 301              	.LBB18:
 302              	.LBB19:
 303              		.file 2 "Drivers/CMSIS/Include/cmsis_gcc.h"
   1:Drivers/CMSIS/Include/cmsis_gcc.h **** /**************************************************************************//**
   2:Drivers/CMSIS/Include/cmsis_gcc.h ****  * @file     cmsis_gcc.h
   3:Drivers/CMSIS/Include/cmsis_gcc.h ****  * @brief    CMSIS Cortex-M Core Function/Instruction Header File
   4:Drivers/CMSIS/Include/cmsis_gcc.h ****  * @version  V4.30
   5:Drivers/CMSIS/Include/cmsis_gcc.h ****  * @date     20. October 2015
   6:Drivers/CMSIS/Include/cmsis_gcc.h ****  ******************************************************************************/
   7:Drivers/CMSIS/Include/cmsis_gcc.h **** /* Copyright (c) 2009 - 2015 ARM LIMITED
   8:Drivers/CMSIS/Include/cmsis_gcc.h **** 
   9:Drivers/CMSIS/Include/cmsis_gcc.h ****    All rights reserved.
  10:Drivers/CMSIS/Include/cmsis_gcc.h ****    Redistribution and use in source and binary forms, with or without
  11:Drivers/CMSIS/Include/cmsis_gcc.h ****    modification, are permitted provided that the following conditions are met:
  12:Drivers/CMSIS/Include/cmsis_gcc.h ****    - Redistributions of source code must retain the above copyright
  13:Drivers/CMSIS/Include/cmsis_gcc.h ****      notice, this list of conditions and the following disclaimer.
  14:Drivers/CMSIS/Include/cmsis_gcc.h ****    - Redistributions in binary form must reproduce the above copyright
  15:Drivers/CMSIS/Include/cmsis_gcc.h ****      notice, this list of conditions and the following disclaimer in the
  16:Drivers/CMSIS/Include/cmsis_gcc.h ****      documentation and/or other materials provided with the distribution.
  17:Drivers/CMSIS/Include/cmsis_gcc.h ****    - Neither the name of ARM nor the names of its contributors may be used
  18:Drivers/CMSIS/Include/cmsis_gcc.h ****      to endorse or promote products derived from this software without
  19:Drivers/CMSIS/Include/cmsis_gcc.h ****      specific prior written permission.
  20:Drivers/CMSIS/Include/cmsis_gcc.h ****    *
  21:Drivers/CMSIS/Include/cmsis_gcc.h ****    THIS SOFTWARE IS PROVIDED BY THE COPYRIGHT HOLDERS AND CONTRIBUTORS "AS IS"
  22:Drivers/CMSIS/Include/cmsis_gcc.h ****    AND ANY EXPRESS OR IMPLIED WARRANTIES, INCLUDING, BUT NOT LIMITED TO, THE
  23:Drivers/CMSIS/Include/cmsis_gcc.h ****    IMPLIED WARRANTIES OF MERCHANTABILITY AND FITNESS FOR A PARTICULAR PURPOSE
  24:Drivers/CMSIS/Include/cmsis_gcc.h ****    ARE DISCLAIMED. IN NO EVENT SHALL COPYRIGHT HOLDERS AND CONTRIBUTORS BE
  25:Drivers/CMSIS/Include/cmsis_gcc.h ****    LIABLE FOR ANY DIRECT, INDIRECT, INCIDENTAL, SPECIAL, EXEMPLARY, OR
ARM GAS  /var/folders/2m/zqg86yyd4hbf56w83tkxjpvr0000gn/T//ccgDZjkz.s 			page 14


  26:Drivers/CMSIS/Include/cmsis_gcc.h ****    CONSEQUENTIAL DAMAGES (INCLUDING, BUT NOT LIMITED TO, PROCUREMENT OF
  27:Drivers/CMSIS/Include/cmsis_gcc.h ****    SUBSTITUTE GOODS OR SERVICES; LOSS OF USE, DATA, OR PROFITS; OR BUSINESS
  28:Drivers/CMSIS/Include/cmsis_gcc.h ****    INTERRUPTION) HOWEVER CAUSED AND ON ANY THEORY OF LIABILITY, WHETHER IN
  29:Drivers/CMSIS/Include/cmsis_gcc.h ****    CONTRACT, STRICT LIABILITY, OR TORT (INCLUDING NEGLIGENCE OR OTHERWISE)
  30:Drivers/CMSIS/Include/cmsis_gcc.h ****    ARISING IN ANY WAY OUT OF THE USE OF THIS SOFTWARE, EVEN IF ADVISED OF THE
  31:Drivers/CMSIS/Include/cmsis_gcc.h ****    POSSIBILITY OF SUCH DAMAGE.
  32:Drivers/CMSIS/Include/cmsis_gcc.h ****    ---------------------------------------------------------------------------*/
  33:Drivers/CMSIS/Include/cmsis_gcc.h **** 
  34:Drivers/CMSIS/Include/cmsis_gcc.h **** 
  35:Drivers/CMSIS/Include/cmsis_gcc.h **** #ifndef __CMSIS_GCC_H
  36:Drivers/CMSIS/Include/cmsis_gcc.h **** #define __CMSIS_GCC_H
  37:Drivers/CMSIS/Include/cmsis_gcc.h **** 
  38:Drivers/CMSIS/Include/cmsis_gcc.h **** /* ignore some GCC warnings */
  39:Drivers/CMSIS/Include/cmsis_gcc.h **** #if defined ( __GNUC__ )
  40:Drivers/CMSIS/Include/cmsis_gcc.h **** #pragma GCC diagnostic push
  41:Drivers/CMSIS/Include/cmsis_gcc.h **** #pragma GCC diagnostic ignored "-Wsign-conversion"
  42:Drivers/CMSIS/Include/cmsis_gcc.h **** #pragma GCC diagnostic ignored "-Wconversion"
  43:Drivers/CMSIS/Include/cmsis_gcc.h **** #pragma GCC diagnostic ignored "-Wunused-parameter"
  44:Drivers/CMSIS/Include/cmsis_gcc.h **** #endif
  45:Drivers/CMSIS/Include/cmsis_gcc.h **** 
  46:Drivers/CMSIS/Include/cmsis_gcc.h **** 
  47:Drivers/CMSIS/Include/cmsis_gcc.h **** /* ###########################  Core Function Access  ########################### */
  48:Drivers/CMSIS/Include/cmsis_gcc.h **** /** \ingroup  CMSIS_Core_FunctionInterface
  49:Drivers/CMSIS/Include/cmsis_gcc.h ****     \defgroup CMSIS_Core_RegAccFunctions CMSIS Core Register Access Functions
  50:Drivers/CMSIS/Include/cmsis_gcc.h ****   @{
  51:Drivers/CMSIS/Include/cmsis_gcc.h ****  */
  52:Drivers/CMSIS/Include/cmsis_gcc.h **** 
  53:Drivers/CMSIS/Include/cmsis_gcc.h **** /**
  54:Drivers/CMSIS/Include/cmsis_gcc.h ****   \brief   Enable IRQ Interrupts
  55:Drivers/CMSIS/Include/cmsis_gcc.h ****   \details Enables IRQ interrupts by clearing the I-bit in the CPSR.
  56:Drivers/CMSIS/Include/cmsis_gcc.h ****            Can only be executed in Privileged modes.
  57:Drivers/CMSIS/Include/cmsis_gcc.h ****  */
  58:Drivers/CMSIS/Include/cmsis_gcc.h **** __attribute__( ( always_inline ) ) __STATIC_INLINE void __enable_irq(void)
  59:Drivers/CMSIS/Include/cmsis_gcc.h **** {
  60:Drivers/CMSIS/Include/cmsis_gcc.h ****   __ASM volatile ("cpsie i" : : : "memory");
  61:Drivers/CMSIS/Include/cmsis_gcc.h **** }
  62:Drivers/CMSIS/Include/cmsis_gcc.h **** 
  63:Drivers/CMSIS/Include/cmsis_gcc.h **** 
  64:Drivers/CMSIS/Include/cmsis_gcc.h **** /**
  65:Drivers/CMSIS/Include/cmsis_gcc.h ****   \brief   Disable IRQ Interrupts
  66:Drivers/CMSIS/Include/cmsis_gcc.h ****   \details Disables IRQ interrupts by setting the I-bit in the CPSR.
  67:Drivers/CMSIS/Include/cmsis_gcc.h ****   Can only be executed in Privileged modes.
  68:Drivers/CMSIS/Include/cmsis_gcc.h ****  */
  69:Drivers/CMSIS/Include/cmsis_gcc.h **** __attribute__( ( always_inline ) ) __STATIC_INLINE void __disable_irq(void)
  70:Drivers/CMSIS/Include/cmsis_gcc.h **** {
  71:Drivers/CMSIS/Include/cmsis_gcc.h ****   __ASM volatile ("cpsid i" : : : "memory");
  72:Drivers/CMSIS/Include/cmsis_gcc.h **** }
  73:Drivers/CMSIS/Include/cmsis_gcc.h **** 
  74:Drivers/CMSIS/Include/cmsis_gcc.h **** 
  75:Drivers/CMSIS/Include/cmsis_gcc.h **** /**
  76:Drivers/CMSIS/Include/cmsis_gcc.h ****   \brief   Get Control Register
  77:Drivers/CMSIS/Include/cmsis_gcc.h ****   \details Returns the content of the Control Register.
  78:Drivers/CMSIS/Include/cmsis_gcc.h ****   \return               Control Register value
  79:Drivers/CMSIS/Include/cmsis_gcc.h ****  */
  80:Drivers/CMSIS/Include/cmsis_gcc.h **** __attribute__( ( always_inline ) ) __STATIC_INLINE uint32_t __get_CONTROL(void)
  81:Drivers/CMSIS/Include/cmsis_gcc.h **** {
  82:Drivers/CMSIS/Include/cmsis_gcc.h ****   uint32_t result;
ARM GAS  /var/folders/2m/zqg86yyd4hbf56w83tkxjpvr0000gn/T//ccgDZjkz.s 			page 15


  83:Drivers/CMSIS/Include/cmsis_gcc.h **** 
  84:Drivers/CMSIS/Include/cmsis_gcc.h ****   __ASM volatile ("MRS %0, control" : "=r" (result) );
  85:Drivers/CMSIS/Include/cmsis_gcc.h ****   return(result);
  86:Drivers/CMSIS/Include/cmsis_gcc.h **** }
  87:Drivers/CMSIS/Include/cmsis_gcc.h **** 
  88:Drivers/CMSIS/Include/cmsis_gcc.h **** 
  89:Drivers/CMSIS/Include/cmsis_gcc.h **** /**
  90:Drivers/CMSIS/Include/cmsis_gcc.h ****   \brief   Set Control Register
  91:Drivers/CMSIS/Include/cmsis_gcc.h ****   \details Writes the given value to the Control Register.
  92:Drivers/CMSIS/Include/cmsis_gcc.h ****   \param [in]    control  Control Register value to set
  93:Drivers/CMSIS/Include/cmsis_gcc.h ****  */
  94:Drivers/CMSIS/Include/cmsis_gcc.h **** __attribute__( ( always_inline ) ) __STATIC_INLINE void __set_CONTROL(uint32_t control)
  95:Drivers/CMSIS/Include/cmsis_gcc.h **** {
  96:Drivers/CMSIS/Include/cmsis_gcc.h ****   __ASM volatile ("MSR control, %0" : : "r" (control) : "memory");
  97:Drivers/CMSIS/Include/cmsis_gcc.h **** }
  98:Drivers/CMSIS/Include/cmsis_gcc.h **** 
  99:Drivers/CMSIS/Include/cmsis_gcc.h **** 
 100:Drivers/CMSIS/Include/cmsis_gcc.h **** /**
 101:Drivers/CMSIS/Include/cmsis_gcc.h ****   \brief   Get IPSR Register
 102:Drivers/CMSIS/Include/cmsis_gcc.h ****   \details Returns the content of the IPSR Register.
 103:Drivers/CMSIS/Include/cmsis_gcc.h ****   \return               IPSR Register value
 104:Drivers/CMSIS/Include/cmsis_gcc.h ****  */
 105:Drivers/CMSIS/Include/cmsis_gcc.h **** __attribute__( ( always_inline ) ) __STATIC_INLINE uint32_t __get_IPSR(void)
 106:Drivers/CMSIS/Include/cmsis_gcc.h **** {
 107:Drivers/CMSIS/Include/cmsis_gcc.h ****   uint32_t result;
 108:Drivers/CMSIS/Include/cmsis_gcc.h **** 
 109:Drivers/CMSIS/Include/cmsis_gcc.h ****   __ASM volatile ("MRS %0, ipsr" : "=r" (result) );
 110:Drivers/CMSIS/Include/cmsis_gcc.h ****   return(result);
 111:Drivers/CMSIS/Include/cmsis_gcc.h **** }
 112:Drivers/CMSIS/Include/cmsis_gcc.h **** 
 113:Drivers/CMSIS/Include/cmsis_gcc.h **** 
 114:Drivers/CMSIS/Include/cmsis_gcc.h **** /**
 115:Drivers/CMSIS/Include/cmsis_gcc.h ****   \brief   Get APSR Register
 116:Drivers/CMSIS/Include/cmsis_gcc.h ****   \details Returns the content of the APSR Register.
 117:Drivers/CMSIS/Include/cmsis_gcc.h ****   \return               APSR Register value
 118:Drivers/CMSIS/Include/cmsis_gcc.h ****  */
 119:Drivers/CMSIS/Include/cmsis_gcc.h **** __attribute__( ( always_inline ) ) __STATIC_INLINE uint32_t __get_APSR(void)
 120:Drivers/CMSIS/Include/cmsis_gcc.h **** {
 121:Drivers/CMSIS/Include/cmsis_gcc.h ****   uint32_t result;
 122:Drivers/CMSIS/Include/cmsis_gcc.h **** 
 123:Drivers/CMSIS/Include/cmsis_gcc.h ****   __ASM volatile ("MRS %0, apsr" : "=r" (result) );
 124:Drivers/CMSIS/Include/cmsis_gcc.h ****   return(result);
 125:Drivers/CMSIS/Include/cmsis_gcc.h **** }
 126:Drivers/CMSIS/Include/cmsis_gcc.h **** 
 127:Drivers/CMSIS/Include/cmsis_gcc.h **** 
 128:Drivers/CMSIS/Include/cmsis_gcc.h **** /**
 129:Drivers/CMSIS/Include/cmsis_gcc.h ****   \brief   Get xPSR Register
 130:Drivers/CMSIS/Include/cmsis_gcc.h ****   \details Returns the content of the xPSR Register.
 131:Drivers/CMSIS/Include/cmsis_gcc.h **** 
 132:Drivers/CMSIS/Include/cmsis_gcc.h ****     \return               xPSR Register value
 133:Drivers/CMSIS/Include/cmsis_gcc.h ****  */
 134:Drivers/CMSIS/Include/cmsis_gcc.h **** __attribute__( ( always_inline ) ) __STATIC_INLINE uint32_t __get_xPSR(void)
 135:Drivers/CMSIS/Include/cmsis_gcc.h **** {
 136:Drivers/CMSIS/Include/cmsis_gcc.h ****   uint32_t result;
 137:Drivers/CMSIS/Include/cmsis_gcc.h **** 
 138:Drivers/CMSIS/Include/cmsis_gcc.h ****   __ASM volatile ("MRS %0, xpsr" : "=r" (result) );
 139:Drivers/CMSIS/Include/cmsis_gcc.h ****   return(result);
ARM GAS  /var/folders/2m/zqg86yyd4hbf56w83tkxjpvr0000gn/T//ccgDZjkz.s 			page 16


 140:Drivers/CMSIS/Include/cmsis_gcc.h **** }
 141:Drivers/CMSIS/Include/cmsis_gcc.h **** 
 142:Drivers/CMSIS/Include/cmsis_gcc.h **** 
 143:Drivers/CMSIS/Include/cmsis_gcc.h **** /**
 144:Drivers/CMSIS/Include/cmsis_gcc.h ****   \brief   Get Process Stack Pointer
 145:Drivers/CMSIS/Include/cmsis_gcc.h ****   \details Returns the current value of the Process Stack Pointer (PSP).
 146:Drivers/CMSIS/Include/cmsis_gcc.h ****   \return               PSP Register value
 147:Drivers/CMSIS/Include/cmsis_gcc.h ****  */
 148:Drivers/CMSIS/Include/cmsis_gcc.h **** __attribute__( ( always_inline ) ) __STATIC_INLINE uint32_t __get_PSP(void)
 149:Drivers/CMSIS/Include/cmsis_gcc.h **** {
 150:Drivers/CMSIS/Include/cmsis_gcc.h ****   register uint32_t result;
 151:Drivers/CMSIS/Include/cmsis_gcc.h **** 
 152:Drivers/CMSIS/Include/cmsis_gcc.h ****   __ASM volatile ("MRS %0, psp\n"  : "=r" (result) );
 153:Drivers/CMSIS/Include/cmsis_gcc.h ****   return(result);
 154:Drivers/CMSIS/Include/cmsis_gcc.h **** }
 155:Drivers/CMSIS/Include/cmsis_gcc.h **** 
 156:Drivers/CMSIS/Include/cmsis_gcc.h **** 
 157:Drivers/CMSIS/Include/cmsis_gcc.h **** /**
 158:Drivers/CMSIS/Include/cmsis_gcc.h ****   \brief   Set Process Stack Pointer
 159:Drivers/CMSIS/Include/cmsis_gcc.h ****   \details Assigns the given value to the Process Stack Pointer (PSP).
 160:Drivers/CMSIS/Include/cmsis_gcc.h ****   \param [in]    topOfProcStack  Process Stack Pointer value to set
 161:Drivers/CMSIS/Include/cmsis_gcc.h ****  */
 162:Drivers/CMSIS/Include/cmsis_gcc.h **** __attribute__( ( always_inline ) ) __STATIC_INLINE void __set_PSP(uint32_t topOfProcStack)
 163:Drivers/CMSIS/Include/cmsis_gcc.h **** {
 164:Drivers/CMSIS/Include/cmsis_gcc.h ****   __ASM volatile ("MSR psp, %0\n" : : "r" (topOfProcStack) : "sp");
 165:Drivers/CMSIS/Include/cmsis_gcc.h **** }
 166:Drivers/CMSIS/Include/cmsis_gcc.h **** 
 167:Drivers/CMSIS/Include/cmsis_gcc.h **** 
 168:Drivers/CMSIS/Include/cmsis_gcc.h **** /**
 169:Drivers/CMSIS/Include/cmsis_gcc.h ****   \brief   Get Main Stack Pointer
 170:Drivers/CMSIS/Include/cmsis_gcc.h ****   \details Returns the current value of the Main Stack Pointer (MSP).
 171:Drivers/CMSIS/Include/cmsis_gcc.h ****   \return               MSP Register value
 172:Drivers/CMSIS/Include/cmsis_gcc.h ****  */
 173:Drivers/CMSIS/Include/cmsis_gcc.h **** __attribute__( ( always_inline ) ) __STATIC_INLINE uint32_t __get_MSP(void)
 174:Drivers/CMSIS/Include/cmsis_gcc.h **** {
 175:Drivers/CMSIS/Include/cmsis_gcc.h ****   register uint32_t result;
 176:Drivers/CMSIS/Include/cmsis_gcc.h **** 
 177:Drivers/CMSIS/Include/cmsis_gcc.h ****   __ASM volatile ("MRS %0, msp\n" : "=r" (result) );
 178:Drivers/CMSIS/Include/cmsis_gcc.h ****   return(result);
 179:Drivers/CMSIS/Include/cmsis_gcc.h **** }
 180:Drivers/CMSIS/Include/cmsis_gcc.h **** 
 181:Drivers/CMSIS/Include/cmsis_gcc.h **** 
 182:Drivers/CMSIS/Include/cmsis_gcc.h **** /**
 183:Drivers/CMSIS/Include/cmsis_gcc.h ****   \brief   Set Main Stack Pointer
 184:Drivers/CMSIS/Include/cmsis_gcc.h ****   \details Assigns the given value to the Main Stack Pointer (MSP).
 185:Drivers/CMSIS/Include/cmsis_gcc.h **** 
 186:Drivers/CMSIS/Include/cmsis_gcc.h ****     \param [in]    topOfMainStack  Main Stack Pointer value to set
 187:Drivers/CMSIS/Include/cmsis_gcc.h ****  */
 188:Drivers/CMSIS/Include/cmsis_gcc.h **** __attribute__( ( always_inline ) ) __STATIC_INLINE void __set_MSP(uint32_t topOfMainStack)
 189:Drivers/CMSIS/Include/cmsis_gcc.h **** {
 190:Drivers/CMSIS/Include/cmsis_gcc.h ****   __ASM volatile ("MSR msp, %0\n" : : "r" (topOfMainStack) : "sp");
 191:Drivers/CMSIS/Include/cmsis_gcc.h **** }
 192:Drivers/CMSIS/Include/cmsis_gcc.h **** 
 193:Drivers/CMSIS/Include/cmsis_gcc.h **** 
 194:Drivers/CMSIS/Include/cmsis_gcc.h **** /**
 195:Drivers/CMSIS/Include/cmsis_gcc.h ****   \brief   Get Priority Mask
 196:Drivers/CMSIS/Include/cmsis_gcc.h ****   \details Returns the current state of the priority mask bit from the Priority Mask Register.
ARM GAS  /var/folders/2m/zqg86yyd4hbf56w83tkxjpvr0000gn/T//ccgDZjkz.s 			page 17


 197:Drivers/CMSIS/Include/cmsis_gcc.h ****   \return               Priority Mask value
 198:Drivers/CMSIS/Include/cmsis_gcc.h ****  */
 199:Drivers/CMSIS/Include/cmsis_gcc.h **** __attribute__( ( always_inline ) ) __STATIC_INLINE uint32_t __get_PRIMASK(void)
 200:Drivers/CMSIS/Include/cmsis_gcc.h **** {
 201:Drivers/CMSIS/Include/cmsis_gcc.h ****   uint32_t result;
 202:Drivers/CMSIS/Include/cmsis_gcc.h **** 
 203:Drivers/CMSIS/Include/cmsis_gcc.h ****   __ASM volatile ("MRS %0, primask" : "=r" (result) );
 304              		.loc 2 203 0
 305              		.syntax divided
 306              	@ 203 "Drivers/CMSIS/Include/cmsis_gcc.h" 1
 307 0004 EFF31085 		MRS r5, primask
 308              	@ 0 "" 2
 309              		.thumb
 310              		.syntax unified
 311              	.LBE19:
 312              	.LBE18:
 313              	.LBB20:
 314              	.LBB21:
  71:Drivers/CMSIS/Include/cmsis_gcc.h **** }
 315              		.loc 2 71 0
 316              		.syntax divided
 317              	@ 71 "Drivers/CMSIS/Include/cmsis_gcc.h" 1
 318 0008 72B6     		cpsid i
 319              	@ 0 "" 2
 320              		.thumb
 321              		.syntax unified
 322              	.LBE21:
 323              	.LBE20:
 147:Middlewares/Third_Party/Lora/Utilities/timeServer.c ****   {
 324              		.loc 1 147 0
 325 000a 0028     		cmp	r0, #0
 326 000c 1CD0     		beq	.L26
 147:Middlewares/Third_Party/Lora/Utilities/timeServer.c ****   {
 327              		.loc 1 147 0 is_stmt 0 discriminator 1
 328 000e FFF7FEFF 		bl	TimerExists
 329              	.LVL30:
 330 0012 0028     		cmp	r0, #0
 331 0014 18D1     		bne	.L26
 152:Middlewares/Third_Party/Lora/Utilities/timeServer.c ****   obj->IsRunning = false;
 332              		.loc 1 152 0 is_stmt 1
 333 0016 6368     		ldr	r3, [r4, #4]
 334 0018 2360     		str	r3, [r4]
 153:Middlewares/Third_Party/Lora/Utilities/timeServer.c **** 
 335              		.loc 1 153 0
 336 001a 0023     		movs	r3, #0
 337 001c 2372     		strb	r3, [r4, #8]
 155:Middlewares/Third_Party/Lora/Utilities/timeServer.c ****   {
 338              		.loc 1 155 0
 339 001e 114B     		ldr	r3, .L33
 340 0020 1B68     		ldr	r3, [r3]
 341 0022 002B     		cmp	r3, #0
 342 0024 13D0     		beq	.L32
 162:Middlewares/Third_Party/Lora/Utilities/timeServer.c ****     obj->Timestamp += elapsedTime;
 343              		.loc 1 162 0
 344 0026 FFF7FEFF 		bl	HW_RTC_GetTimerElapsedTime
 345              	.LVL31:
 163:Middlewares/Third_Party/Lora/Utilities/timeServer.c ****   
ARM GAS  /var/folders/2m/zqg86yyd4hbf56w83tkxjpvr0000gn/T//ccgDZjkz.s 			page 18


 346              		.loc 1 163 0
 347 002a 2368     		ldr	r3, [r4]
 348 002c 9C46     		mov	ip, r3
 349 002e 6044     		add	r0, r0, ip
 350              	.LVL32:
 351 0030 2060     		str	r0, [r4]
 165:Middlewares/Third_Party/Lora/Utilities/timeServer.c ****     {
 352              		.loc 1 165 0
 353 0032 0C4B     		ldr	r3, .L33
 354 0034 1B68     		ldr	r3, [r3]
 355 0036 1B68     		ldr	r3, [r3]
 356 0038 9842     		cmp	r0, r3
 357 003a 0ED2     		bcs	.L31
 167:Middlewares/Third_Party/Lora/Utilities/timeServer.c ****     }
 358              		.loc 1 167 0
 359 003c 2000     		movs	r0, r4
 360 003e FFF7FEFF 		bl	TimerInsertNewHeadTimer
 361              	.LVL33:
 362              	.L30:
 363              	.LBB22:
 364              	.LBB23:
 204:Drivers/CMSIS/Include/cmsis_gcc.h ****   return(result);
 205:Drivers/CMSIS/Include/cmsis_gcc.h **** }
 206:Drivers/CMSIS/Include/cmsis_gcc.h **** 
 207:Drivers/CMSIS/Include/cmsis_gcc.h **** 
 208:Drivers/CMSIS/Include/cmsis_gcc.h **** /**
 209:Drivers/CMSIS/Include/cmsis_gcc.h ****   \brief   Set Priority Mask
 210:Drivers/CMSIS/Include/cmsis_gcc.h ****   \details Assigns the given value to the Priority Mask Register.
 211:Drivers/CMSIS/Include/cmsis_gcc.h ****   \param [in]    priMask  Priority Mask
 212:Drivers/CMSIS/Include/cmsis_gcc.h ****  */
 213:Drivers/CMSIS/Include/cmsis_gcc.h **** __attribute__( ( always_inline ) ) __STATIC_INLINE void __set_PRIMASK(uint32_t priMask)
 214:Drivers/CMSIS/Include/cmsis_gcc.h **** {
 215:Drivers/CMSIS/Include/cmsis_gcc.h ****   __ASM volatile ("MSR primask, %0" : : "r" (priMask) : "memory");
 365              		.loc 2 215 0
 366              		.syntax divided
 367              	@ 215 "Drivers/CMSIS/Include/cmsis_gcc.h" 1
 368 0042 85F31088 		MSR primask, r5
 369              	@ 0 "" 2
 370              		.thumb
 371              		.syntax unified
 372 0046 01E0     		b	.L25
 373              	.LVL34:
 374              	.L26:
 375              	.LBE23:
 376              	.LBE22:
 377              	.LBB24:
 378              	.LBB25:
 379              		.syntax divided
 380              	@ 215 "Drivers/CMSIS/Include/cmsis_gcc.h" 1
 381 0048 85F31088 		MSR primask, r5
 382              	@ 0 "" 2
 383              	.LVL35:
 384              		.thumb
 385              		.syntax unified
 386              	.L25:
 387              	.LBE25:
 388              	.LBE24:
ARM GAS  /var/folders/2m/zqg86yyd4hbf56w83tkxjpvr0000gn/T//ccgDZjkz.s 			page 19


 175:Middlewares/Third_Party/Lora/Utilities/timeServer.c **** 
 389              		.loc 1 175 0
 390              		@ sp needed
 391              	.LVL36:
 392 004c 70BD     		pop	{r4, r5, r6, pc}
 393              	.LVL37:
 394              	.L32:
 157:Middlewares/Third_Party/Lora/Utilities/timeServer.c ****     TimerInsertNewHeadTimer( obj ); // insert a timeout at now+obj->Timestamp
 395              		.loc 1 157 0
 396 004e FFF7FEFF 		bl	HW_RTC_SetTimerContext
 397              	.LVL38:
 158:Middlewares/Third_Party/Lora/Utilities/timeServer.c ****   }
 398              		.loc 1 158 0
 399 0052 2000     		movs	r0, r4
 400 0054 FFF7FEFF 		bl	TimerInsertNewHeadTimer
 401              	.LVL39:
 402 0058 F3E7     		b	.L30
 403              	.LVL40:
 404              	.L31:
 171:Middlewares/Third_Party/Lora/Utilities/timeServer.c ****     }
 405              		.loc 1 171 0
 406 005a 2000     		movs	r0, r4
 407 005c FFF7FEFF 		bl	TimerInsertTimer
 408              	.LVL41:
 409 0060 EFE7     		b	.L30
 410              	.L34:
 411 0062 C046     		.align	2
 412              	.L33:
 413 0064 00000000 		.word	.LANCHOR0
 414              		.cfi_endproc
 415              	.LFE41:
 417              		.section	.text.TimerIrqHandler,"ax",%progbits
 418              		.align	1
 419              		.global	TimerIrqHandler
 420              		.syntax unified
 421              		.code	16
 422              		.thumb_func
 423              		.fpu softvfp
 425              	TimerIrqHandler:
 426              	.LFB44:
 216:Middlewares/Third_Party/Lora/Utilities/timeServer.c ****   TimerEvent_t* cur;
 427              		.loc 1 216 0
 428              		.cfi_startproc
 429              		@ args = 0, pretend = 0, frame = 0
 430              		@ frame_needed = 0, uses_anonymous_args = 0
 431 0000 10B5     		push	{r4, lr}
 432              	.LCFI4:
 433              		.cfi_def_cfa_offset 8
 434              		.cfi_offset 4, -8
 435              		.cfi_offset 14, -4
 222:Middlewares/Third_Party/Lora/Utilities/timeServer.c ****   uint32_t now =  HW_RTC_SetTimerContext( );
 436              		.loc 1 222 0
 437 0002 FFF7FEFF 		bl	HW_RTC_GetTimerContext
 438              	.LVL42:
 439 0006 0400     		movs	r4, r0
 440              	.LVL43:
 223:Middlewares/Third_Party/Lora/Utilities/timeServer.c ****   uint32_t DeltaContext = now - old; //intentionnal wrap around
ARM GAS  /var/folders/2m/zqg86yyd4hbf56w83tkxjpvr0000gn/T//ccgDZjkz.s 			page 20


 441              		.loc 1 223 0
 442 0008 FFF7FEFF 		bl	HW_RTC_SetTimerContext
 443              	.LVL44:
 224:Middlewares/Third_Party/Lora/Utilities/timeServer.c ****   
 444              		.loc 1 224 0
 445 000c 001B     		subs	r0, r0, r4
 446              	.LVL45:
 228:Middlewares/Third_Party/Lora/Utilities/timeServer.c ****   {
 447              		.loc 1 228 0
 448 000e 1C4B     		ldr	r3, .L51
 449 0010 1B68     		ldr	r3, [r3]
 450 0012 002B     		cmp	r3, #0
 451 0014 0DD0     		beq	.L37
 230:Middlewares/Third_Party/Lora/Utilities/timeServer.c ****     {
 452              		.loc 1 230 0
 453 0016 1C00     		movs	r4, r3
 454              	.LVL46:
 455 0018 02E0     		b	.L36
 456              	.LVL47:
 457              	.L38:
 239:Middlewares/Third_Party/Lora/Utilities/timeServer.c ****       }
 458              		.loc 1 239 0
 459 001a 0021     		movs	r1, #0
 460 001c 1160     		str	r1, [r2]
 461              	.L39:
 230:Middlewares/Third_Party/Lora/Utilities/timeServer.c ****     {
 462              		.loc 1 230 0 discriminator 2
 463 001e 2469     		ldr	r4, [r4, #16]
 464              	.LVL48:
 465              	.L36:
 230:Middlewares/Third_Party/Lora/Utilities/timeServer.c ****     {
 466              		.loc 1 230 0 is_stmt 0 discriminator 1
 467 0020 2269     		ldr	r2, [r4, #16]
 468 0022 002A     		cmp	r2, #0
 469 0024 05D0     		beq	.L37
 470              	.LVL49:
 233:Middlewares/Third_Party/Lora/Utilities/timeServer.c ****       {
 471              		.loc 1 233 0 is_stmt 1
 472 0026 1168     		ldr	r1, [r2]
 473 0028 8142     		cmp	r1, r0
 474 002a F6D9     		bls	.L38
 235:Middlewares/Third_Party/Lora/Utilities/timeServer.c ****       }
 475              		.loc 1 235 0
 476 002c 091A     		subs	r1, r1, r0
 477 002e 1160     		str	r1, [r2]
 478 0030 F5E7     		b	.L39
 479              	.LVL50:
 480              	.L37:
 245:Middlewares/Third_Party/Lora/Utilities/timeServer.c ****   {
 481              		.loc 1 245 0
 482 0032 002B     		cmp	r3, #0
 483 0034 06D0     		beq	.L46
 484              	.LVL51:
 248:Middlewares/Third_Party/Lora/Utilities/timeServer.c ****     exec_cb( cur->Callback );
 485              		.loc 1 248 0
 486 0036 124A     		ldr	r2, .L51
 487 0038 1969     		ldr	r1, [r3, #16]
ARM GAS  /var/folders/2m/zqg86yyd4hbf56w83tkxjpvr0000gn/T//ccgDZjkz.s 			page 21


 488 003a 1160     		str	r1, [r2]
 249:Middlewares/Third_Party/Lora/Utilities/timeServer.c ****   }
 489              		.loc 1 249 0
 490 003c DB68     		ldr	r3, [r3, #12]
 491              	.LVL52:
 492 003e 002B     		cmp	r3, #0
 493 0040 12D0     		beq	.L43
 249:Middlewares/Third_Party/Lora/Utilities/timeServer.c ****   }
 494              		.loc 1 249 0 is_stmt 0 discriminator 1
 495 0042 9847     		blx	r3
 496              	.LVL53:
 497              	.L46:
 254:Middlewares/Third_Party/Lora/Utilities/timeServer.c ****   {
 498              		.loc 1 254 0 is_stmt 1
 499 0044 0E4B     		ldr	r3, .L51
 500 0046 1B68     		ldr	r3, [r3]
 501 0048 002B     		cmp	r3, #0
 502 004a 0FD0     		beq	.L47
 254:Middlewares/Third_Party/Lora/Utilities/timeServer.c ****   {
 503              		.loc 1 254 0 is_stmt 0 discriminator 1
 504 004c 1C68     		ldr	r4, [r3]
 505 004e FFF7FEFF 		bl	HW_RTC_GetTimerElapsedTime
 506              	.LVL54:
 507 0052 8442     		cmp	r4, r0
 508 0054 0AD2     		bcs	.L47
 256:Middlewares/Third_Party/Lora/Utilities/timeServer.c ****    TimerListHead = TimerListHead->Next;
 509              		.loc 1 256 0 is_stmt 1
 510 0056 0A4A     		ldr	r2, .L51
 511 0058 1368     		ldr	r3, [r2]
 512              	.LVL55:
 257:Middlewares/Third_Party/Lora/Utilities/timeServer.c ****    exec_cb( cur->Callback );
 513              		.loc 1 257 0
 514 005a 1969     		ldr	r1, [r3, #16]
 515 005c 1160     		str	r1, [r2]
 258:Middlewares/Third_Party/Lora/Utilities/timeServer.c ****   }
 516              		.loc 1 258 0
 517 005e DB68     		ldr	r3, [r3, #12]
 518              	.LVL56:
 519 0060 002B     		cmp	r3, #0
 520 0062 02D0     		beq	.L45
 258:Middlewares/Third_Party/Lora/Utilities/timeServer.c ****   }
 521              		.loc 1 258 0 is_stmt 0 discriminator 1
 522 0064 9847     		blx	r3
 523              	.LVL57:
 524 0066 EDE7     		b	.L46
 525              	.LVL58:
 526              	.L43:
 527 0068 FEE7     		b	.L43
 528              	.LVL59:
 529              	.L45:
 530 006a FEE7     		b	.L45
 531              	.L47:
 262:Middlewares/Third_Party/Lora/Utilities/timeServer.c ****   {
 532              		.loc 1 262 0 is_stmt 1
 533 006c 044B     		ldr	r3, .L51
 534 006e 1868     		ldr	r0, [r3]
 535 0070 0028     		cmp	r0, #0
ARM GAS  /var/folders/2m/zqg86yyd4hbf56w83tkxjpvr0000gn/T//ccgDZjkz.s 			page 22


 536 0072 04D0     		beq	.L35
 262:Middlewares/Third_Party/Lora/Utilities/timeServer.c ****   {
 537              		.loc 1 262 0 is_stmt 0 discriminator 1
 538 0074 037A     		ldrb	r3, [r0, #8]
 539 0076 002B     		cmp	r3, #0
 540 0078 01D1     		bne	.L35
 264:Middlewares/Third_Party/Lora/Utilities/timeServer.c ****   }
 541              		.loc 1 264 0 is_stmt 1
 542 007a FFF7FEFF 		bl	TimerSetTimeout
 543              	.LVL60:
 544              	.L35:
 266:Middlewares/Third_Party/Lora/Utilities/timeServer.c **** 
 545              		.loc 1 266 0
 546              		@ sp needed
 547 007e 10BD     		pop	{r4, pc}
 548              	.L52:
 549              		.align	2
 550              	.L51:
 551 0080 00000000 		.word	.LANCHOR0
 552              		.cfi_endproc
 553              	.LFE44:
 555              		.section	.text.TimerStop,"ax",%progbits
 556              		.align	1
 557              		.global	TimerStop
 558              		.syntax unified
 559              		.code	16
 560              		.thumb_func
 561              		.fpu softvfp
 563              	TimerStop:
 564              	.LFB45:
 269:Middlewares/Third_Party/Lora/Utilities/timeServer.c ****   BACKUP_PRIMASK();
 565              		.loc 1 269 0
 566              		.cfi_startproc
 567              		@ args = 0, pretend = 0, frame = 0
 568              		@ frame_needed = 0, uses_anonymous_args = 0
 569              	.LVL61:
 570 0000 10B5     		push	{r4, lr}
 571              	.LCFI5:
 572              		.cfi_def_cfa_offset 8
 573              		.cfi_offset 4, -8
 574              		.cfi_offset 14, -4
 575              	.LBB26:
 576              	.LBB27:
 203:Drivers/CMSIS/Include/cmsis_gcc.h ****   return(result);
 577              		.loc 2 203 0
 578              		.syntax divided
 579              	@ 203 "Drivers/CMSIS/Include/cmsis_gcc.h" 1
 580 0002 EFF31084 		MRS r4, primask
 581              	@ 0 "" 2
 582              		.thumb
 583              		.syntax unified
 584              	.LBE27:
 585              	.LBE26:
 586              	.LBB28:
 587              	.LBB29:
  71:Drivers/CMSIS/Include/cmsis_gcc.h **** }
 588              		.loc 2 71 0
ARM GAS  /var/folders/2m/zqg86yyd4hbf56w83tkxjpvr0000gn/T//ccgDZjkz.s 			page 23


 589              		.syntax divided
 590              	@ 71 "Drivers/CMSIS/Include/cmsis_gcc.h" 1
 591 0006 72B6     		cpsid i
 592              	@ 0 "" 2
 593              		.thumb
 594              		.syntax unified
 595              	.LBE29:
 596              	.LBE28:
 274:Middlewares/Third_Party/Lora/Utilities/timeServer.c ****   TimerEvent_t* cur = TimerListHead;
 597              		.loc 1 274 0
 598 0008 1C4B     		ldr	r3, .L68
 599 000a 1A68     		ldr	r2, [r3]
 600              	.LVL62:
 278:Middlewares/Third_Party/Lora/Utilities/timeServer.c ****   {
 601              		.loc 1 278 0
 602 000c 002A     		cmp	r2, #0
 603 000e 0BD0     		beq	.L54
 278:Middlewares/Third_Party/Lora/Utilities/timeServer.c ****   {
 604              		.loc 1 278 0 is_stmt 0 discriminator 1
 605 0010 0028     		cmp	r0, #0
 606 0012 09D0     		beq	.L54
 284:Middlewares/Third_Party/Lora/Utilities/timeServer.c ****   {
 607              		.loc 1 284 0 is_stmt 1
 608 0014 8242     		cmp	r2, r0
 609 0016 0AD0     		beq	.L66
 275:Middlewares/Third_Party/Lora/Utilities/timeServer.c **** 
 610              		.loc 1 275 0
 611 0018 1300     		movs	r3, r2
 612              	.LVL63:
 613              	.L57:
 315:Middlewares/Third_Party/Lora/Utilities/timeServer.c ****     {
 614              		.loc 1 315 0
 615 001a 002B     		cmp	r3, #0
 616 001c 28D0     		beq	.L60
 317:Middlewares/Third_Party/Lora/Utilities/timeServer.c ****       {
 617              		.loc 1 317 0
 618 001e 8342     		cmp	r3, r0
 619 0020 22D0     		beq	.L67
 620              	.LVL64:
 333:Middlewares/Third_Party/Lora/Utilities/timeServer.c ****         cur = cur->Next;
 621              		.loc 1 333 0
 622 0022 1A00     		movs	r2, r3
 334:Middlewares/Third_Party/Lora/Utilities/timeServer.c ****       }
 623              		.loc 1 334 0
 624 0024 1B69     		ldr	r3, [r3, #16]
 625              	.LVL65:
 626 0026 F8E7     		b	.L57
 627              	.LVL66:
 628              	.L54:
 629              	.LBB30:
 630              	.LBB31:
 631              		.loc 2 215 0
 632              		.syntax divided
 633              	@ 215 "Drivers/CMSIS/Include/cmsis_gcc.h" 1
 634 0028 84F31088 		MSR primask, r4
 635              	@ 0 "" 2
 636              		.thumb
ARM GAS  /var/folders/2m/zqg86yyd4hbf56w83tkxjpvr0000gn/T//ccgDZjkz.s 			page 24


 637              		.syntax unified
 638 002c 22E0     		b	.L53
 639              	.LVL67:
 640              	.L66:
 641              	.LBE31:
 642              	.LBE30:
 286:Middlewares/Third_Party/Lora/Utilities/timeServer.c ****     {  
 643              		.loc 1 286 0
 644 002e 137A     		ldrb	r3, [r2, #8]
 645 0030 002B     		cmp	r3, #0
 646 0032 0FD0     		beq	.L58
 289:Middlewares/Third_Party/Lora/Utilities/timeServer.c ****       if( TimerListHead->Next != NULL )
 647              		.loc 1 289 0
 648 0034 0023     		movs	r3, #0
 649 0036 1372     		strb	r3, [r2, #8]
 290:Middlewares/Third_Party/Lora/Utilities/timeServer.c ****       {
 650              		.loc 1 290 0
 651 0038 1069     		ldr	r0, [r2, #16]
 652              	.LVL68:
 653 003a 0028     		cmp	r0, #0
 654 003c 04D0     		beq	.L59
 292:Middlewares/Third_Party/Lora/Utilities/timeServer.c ****         TimerSetTimeout( TimerListHead );
 655              		.loc 1 292 0
 656 003e 0F4B     		ldr	r3, .L68
 657 0040 1860     		str	r0, [r3]
 293:Middlewares/Third_Party/Lora/Utilities/timeServer.c ****       }
 658              		.loc 1 293 0
 659 0042 FFF7FEFF 		bl	TimerSetTimeout
 660              	.LVL69:
 661 0046 13E0     		b	.L60
 662              	.LVL70:
 663              	.L59:
 297:Middlewares/Third_Party/Lora/Utilities/timeServer.c ****         TimerListHead = NULL;
 664              		.loc 1 297 0
 665 0048 FFF7FEFF 		bl	HW_RTC_StopAlarm
 666              	.LVL71:
 298:Middlewares/Third_Party/Lora/Utilities/timeServer.c ****       }
 667              		.loc 1 298 0
 668 004c 0B4B     		ldr	r3, .L68
 669 004e 0022     		movs	r2, #0
 670 0050 1A60     		str	r2, [r3]
 671 0052 0DE0     		b	.L60
 672              	.LVL72:
 673              	.L58:
 303:Middlewares/Third_Party/Lora/Utilities/timeServer.c ****       {
 674              		.loc 1 303 0
 675 0054 1369     		ldr	r3, [r2, #16]
 676 0056 002B     		cmp	r3, #0
 677 0058 02D0     		beq	.L61
 305:Middlewares/Third_Party/Lora/Utilities/timeServer.c ****       }
 678              		.loc 1 305 0
 679 005a 084A     		ldr	r2, .L68
 680              	.LVL73:
 681 005c 1360     		str	r3, [r2]
 682              	.LVL74:
 683 005e 07E0     		b	.L60
 684              	.LVL75:
ARM GAS  /var/folders/2m/zqg86yyd4hbf56w83tkxjpvr0000gn/T//ccgDZjkz.s 			page 25


 685              	.L61:
 309:Middlewares/Third_Party/Lora/Utilities/timeServer.c ****       }
 686              		.loc 1 309 0
 687 0060 064B     		ldr	r3, .L68
 688 0062 0022     		movs	r2, #0
 689              	.LVL76:
 690 0064 1A60     		str	r2, [r3]
 691              	.LVL77:
 692 0066 03E0     		b	.L60
 693              	.LVL78:
 694              	.L67:
 319:Middlewares/Third_Party/Lora/Utilities/timeServer.c ****         {
 695              		.loc 1 319 0
 696 0068 1B69     		ldr	r3, [r3, #16]
 697              	.LVL79:
 698 006a 002B     		cmp	r3, #0
 699 006c 03D0     		beq	.L63
 700              	.LVL80:
 322:Middlewares/Third_Party/Lora/Utilities/timeServer.c ****         }
 701              		.loc 1 322 0
 702 006e 1361     		str	r3, [r2, #16]
 703              	.LVL81:
 704              	.L60:
 705              	.LBB32:
 706              	.LBB33:
 707              		.loc 2 215 0
 708              		.syntax divided
 709              	@ 215 "Drivers/CMSIS/Include/cmsis_gcc.h" 1
 710 0070 84F31088 		MSR primask, r4
 711              	@ 0 "" 2
 712              	.LVL82:
 713              		.thumb
 714              		.syntax unified
 715              	.L53:
 716              	.LBE33:
 717              	.LBE32:
 340:Middlewares/Third_Party/Lora/Utilities/timeServer.c ****   
 718              		.loc 1 340 0
 719              		@ sp needed
 720 0074 10BD     		pop	{r4, pc}
 721              	.LVL83:
 722              	.L63:
 327:Middlewares/Third_Party/Lora/Utilities/timeServer.c ****         }
 723              		.loc 1 327 0
 724 0076 0023     		movs	r3, #0
 725 0078 1361     		str	r3, [r2, #16]
 726 007a F9E7     		b	.L60
 727              	.L69:
 728              		.align	2
 729              	.L68:
 730 007c 00000000 		.word	.LANCHOR0
 731              		.cfi_endproc
 732              	.LFE45:
 734              		.section	.text.TimerReset,"ax",%progbits
 735              		.align	1
 736              		.global	TimerReset
 737              		.syntax unified
ARM GAS  /var/folders/2m/zqg86yyd4hbf56w83tkxjpvr0000gn/T//ccgDZjkz.s 			page 26


 738              		.code	16
 739              		.thumb_func
 740              		.fpu softvfp
 742              	TimerReset:
 743              	.LFB47:
 358:Middlewares/Third_Party/Lora/Utilities/timeServer.c ****   TimerStop( obj );
 744              		.loc 1 358 0
 745              		.cfi_startproc
 746              		@ args = 0, pretend = 0, frame = 0
 747              		@ frame_needed = 0, uses_anonymous_args = 0
 748              	.LVL84:
 749 0000 10B5     		push	{r4, lr}
 750              	.LCFI6:
 751              		.cfi_def_cfa_offset 8
 752              		.cfi_offset 4, -8
 753              		.cfi_offset 14, -4
 754 0002 0400     		movs	r4, r0
 359:Middlewares/Third_Party/Lora/Utilities/timeServer.c ****   TimerStart( obj );
 755              		.loc 1 359 0
 756 0004 FFF7FEFF 		bl	TimerStop
 757              	.LVL85:
 360:Middlewares/Third_Party/Lora/Utilities/timeServer.c **** }
 758              		.loc 1 360 0
 759 0008 2000     		movs	r0, r4
 760 000a FFF7FEFF 		bl	TimerStart
 761              	.LVL86:
 361:Middlewares/Third_Party/Lora/Utilities/timeServer.c **** 
 762              		.loc 1 361 0
 763              		@ sp needed
 764              	.LVL87:
 765 000e 10BD     		pop	{r4, pc}
 766              		.cfi_endproc
 767              	.LFE47:
 769              		.section	.text.TimerSetValue,"ax",%progbits
 770              		.align	1
 771              		.global	TimerSetValue
 772              		.syntax unified
 773              		.code	16
 774              		.thumb_func
 775              		.fpu softvfp
 777              	TimerSetValue:
 778              	.LFB48:
 364:Middlewares/Third_Party/Lora/Utilities/timeServer.c ****   uint32_t minValue = 0;
 779              		.loc 1 364 0
 780              		.cfi_startproc
 781              		@ args = 0, pretend = 0, frame = 0
 782              		@ frame_needed = 0, uses_anonymous_args = 0
 783              	.LVL88:
 784 0000 70B5     		push	{r4, r5, r6, lr}
 785              	.LCFI7:
 786              		.cfi_def_cfa_offset 16
 787              		.cfi_offset 4, -16
 788              		.cfi_offset 5, -12
 789              		.cfi_offset 6, -8
 790              		.cfi_offset 14, -4
 791 0002 0400     		movs	r4, r0
 792              	.LVL89:
ARM GAS  /var/folders/2m/zqg86yyd4hbf56w83tkxjpvr0000gn/T//ccgDZjkz.s 			page 27


 366:Middlewares/Third_Party/Lora/Utilities/timeServer.c **** 
 793              		.loc 1 366 0
 794 0004 0800     		movs	r0, r1
 795              	.LVL90:
 796 0006 FFF7FEFF 		bl	HW_RTC_ms2Tick
 797              	.LVL91:
 798 000a 0500     		movs	r5, r0
 799              	.LVL92:
 368:Middlewares/Third_Party/Lora/Utilities/timeServer.c **** 
 800              		.loc 1 368 0
 801 000c 2000     		movs	r0, r4
 802              	.LVL93:
 803 000e FFF7FEFF 		bl	TimerStop
 804              	.LVL94:
 370:Middlewares/Third_Party/Lora/Utilities/timeServer.c ****   
 805              		.loc 1 370 0
 806 0012 FFF7FEFF 		bl	HW_RTC_GetMinimumTimeout
 807              	.LVL95:
 372:Middlewares/Third_Party/Lora/Utilities/timeServer.c ****   {
 808              		.loc 1 372 0
 809 0016 8542     		cmp	r5, r0
 810 0018 02D2     		bcs	.L73
 811              	.LVL96:
 812              	.L72:
 377:Middlewares/Third_Party/Lora/Utilities/timeServer.c ****   obj->ReloadValue = ticks;
 813              		.loc 1 377 0
 814 001a 2060     		str	r0, [r4]
 378:Middlewares/Third_Party/Lora/Utilities/timeServer.c **** }
 815              		.loc 1 378 0
 816 001c 6060     		str	r0, [r4, #4]
 379:Middlewares/Third_Party/Lora/Utilities/timeServer.c **** 
 817              		.loc 1 379 0
 818              		@ sp needed
 819              	.LVL97:
 820 001e 70BD     		pop	{r4, r5, r6, pc}
 821              	.LVL98:
 822              	.L73:
 366:Middlewares/Third_Party/Lora/Utilities/timeServer.c **** 
 823              		.loc 1 366 0
 824 0020 2800     		movs	r0, r5
 825              	.LVL99:
 826 0022 FAE7     		b	.L72
 827              		.cfi_endproc
 828              	.LFE48:
 830              		.section	.text.TimerGetCurrentTime,"ax",%progbits
 831              		.align	1
 832              		.global	TimerGetCurrentTime
 833              		.syntax unified
 834              		.code	16
 835              		.thumb_func
 836              		.fpu softvfp
 838              	TimerGetCurrentTime:
 839              	.LFB49:
 382:Middlewares/Third_Party/Lora/Utilities/timeServer.c ****   uint32_t now = HW_RTC_GetTimerValue( );
 840              		.loc 1 382 0
 841              		.cfi_startproc
 842              		@ args = 0, pretend = 0, frame = 0
ARM GAS  /var/folders/2m/zqg86yyd4hbf56w83tkxjpvr0000gn/T//ccgDZjkz.s 			page 28


 843              		@ frame_needed = 0, uses_anonymous_args = 0
 844 0000 10B5     		push	{r4, lr}
 845              	.LCFI8:
 846              		.cfi_def_cfa_offset 8
 847              		.cfi_offset 4, -8
 848              		.cfi_offset 14, -4
 383:Middlewares/Third_Party/Lora/Utilities/timeServer.c ****   return  HW_RTC_Tick2ms(now);
 849              		.loc 1 383 0
 850 0002 FFF7FEFF 		bl	HW_RTC_GetTimerValue
 851              	.LVL100:
 384:Middlewares/Third_Party/Lora/Utilities/timeServer.c **** }
 852              		.loc 1 384 0
 853 0006 FFF7FEFF 		bl	HW_RTC_Tick2ms
 854              	.LVL101:
 385:Middlewares/Third_Party/Lora/Utilities/timeServer.c **** 
 855              		.loc 1 385 0
 856              		@ sp needed
 857 000a 10BD     		pop	{r4, pc}
 858              		.cfi_endproc
 859              	.LFE49:
 861              		.section	.text.TimerGetElapsedTime,"ax",%progbits
 862              		.align	1
 863              		.global	TimerGetElapsedTime
 864              		.syntax unified
 865              		.code	16
 866              		.thumb_func
 867              		.fpu softvfp
 869              	TimerGetElapsedTime:
 870              	.LFB50:
 388:Middlewares/Third_Party/Lora/Utilities/timeServer.c ****   uint32_t nowInTicks = HW_RTC_GetTimerValue( );
 871              		.loc 1 388 0
 872              		.cfi_startproc
 873              		@ args = 0, pretend = 0, frame = 0
 874              		@ frame_needed = 0, uses_anonymous_args = 0
 875              	.LVL102:
 876 0000 70B5     		push	{r4, r5, r6, lr}
 877              	.LCFI9:
 878              		.cfi_def_cfa_offset 16
 879              		.cfi_offset 4, -16
 880              		.cfi_offset 5, -12
 881              		.cfi_offset 6, -8
 882              		.cfi_offset 14, -4
 883 0002 0500     		movs	r5, r0
 389:Middlewares/Third_Party/Lora/Utilities/timeServer.c ****   uint32_t pastInTicks = HW_RTC_ms2Tick( past );
 884              		.loc 1 389 0
 885 0004 FFF7FEFF 		bl	HW_RTC_GetTimerValue
 886              	.LVL103:
 887 0008 0400     		movs	r4, r0
 888              	.LVL104:
 390:Middlewares/Third_Party/Lora/Utilities/timeServer.c ****   /* intentional wrap around. Works Ok if tick duation below 1ms */
 889              		.loc 1 390 0
 890 000a 2800     		movs	r0, r5
 891              	.LVL105:
 892 000c FFF7FEFF 		bl	HW_RTC_ms2Tick
 893              	.LVL106:
 392:Middlewares/Third_Party/Lora/Utilities/timeServer.c **** }
 894              		.loc 1 392 0
ARM GAS  /var/folders/2m/zqg86yyd4hbf56w83tkxjpvr0000gn/T//ccgDZjkz.s 			page 29


 895 0010 201A     		subs	r0, r4, r0
 896              	.LVL107:
 897 0012 FFF7FEFF 		bl	HW_RTC_Tick2ms
 898              	.LVL108:
 393:Middlewares/Third_Party/Lora/Utilities/timeServer.c **** 
 899              		.loc 1 393 0
 900              		@ sp needed
 901              	.LVL109:
 902              	.LVL110:
 903 0016 70BD     		pop	{r4, r5, r6, pc}
 904              		.cfi_endproc
 905              	.LFE50:
 907              		.bss
 908              		.align	2
 909              		.set	.LANCHOR0,. + 0
 912              	TimerListHead:
 913 0000 00000000 		.space	4
 914              		.text
 915              	.Letext0:
 916              		.file 3 "/opt/gcc-arm-none-eabi-7-2017-q4-major/arm-none-eabi/include/machine/_default_types.h"
 917              		.file 4 "/opt/gcc-arm-none-eabi-7-2017-q4-major/arm-none-eabi/include/sys/lock.h"
 918              		.file 5 "/opt/gcc-arm-none-eabi-7-2017-q4-major/arm-none-eabi/include/sys/_types.h"
 919              		.file 6 "/opt/gcc-arm-none-eabi-7-2017-q4-major/lib/gcc/arm-none-eabi/7.2.1/include/stddef.h"
 920              		.file 7 "/opt/gcc-arm-none-eabi-7-2017-q4-major/arm-none-eabi/include/sys/reent.h"
 921              		.file 8 "/opt/gcc-arm-none-eabi-7-2017-q4-major/arm-none-eabi/include/sys/_stdint.h"
 922              		.file 9 "/opt/gcc-arm-none-eabi-7-2017-q4-major/arm-none-eabi/include/time.h"
 923              		.file 10 "/opt/gcc-arm-none-eabi-7-2017-q4-major/arm-none-eabi/include/math.h"
 924              		.file 11 "Drivers/CMSIS/Device/ST/STM32L0xx/Include/system_stm32l0xx.h"
 925              		.file 12 "/opt/gcc-arm-none-eabi-7-2017-q4-major/arm-none-eabi/include/stdlib.h"
 926              		.file 13 "Middlewares/Third_Party/Lora/Utilities/utilities.h"
 927              		.file 14 "Middlewares/Third_Party/Lora/Utilities/timeServer.h"
 928              		.file 15 "Inc/hw_rtc.h"
ARM GAS  /var/folders/2m/zqg86yyd4hbf56w83tkxjpvr0000gn/T//ccgDZjkz.s 			page 30

