ARM GAS  /var/folders/2m/zqg86yyd4hbf56w83tkxjpvr0000gn/T//ccaC0Kmo.s 			page 1


   1              		.cpu cortex-m0plus
   2              		.eabi_attribute 20, 1
   3              		.eabi_attribute 21, 1
   4              		.eabi_attribute 23, 3
   5              		.eabi_attribute 24, 1
   6              		.eabi_attribute 25, 1
   7              		.eabi_attribute 26, 1
   8              		.eabi_attribute 30, 1
   9              		.eabi_attribute 34, 0
  10              		.eabi_attribute 18, 4
  11              		.file	"utilities.c"
  12              		.text
  13              	.Ltext0:
  14              		.cfi_sections	.debug_frame
  15              		.global	__aeabi_uidivmod
  16              		.section	.text.rand1,"ax",%progbits
  17              		.align	1
  18              		.global	rand1
  19              		.syntax unified
  20              		.code	16
  21              		.thumb_func
  22              		.fpu softvfp
  24              	rand1:
  25              	.LFB40:
  26              		.file 1 "Middlewares/Third_Party/Lora/Utilities/utilities.c"
   1:Middlewares/Third_Party/Lora/Utilities/utilities.c **** /*
   2:Middlewares/Third_Party/Lora/Utilities/utilities.c ****  / _____)             _              | |
   3:Middlewares/Third_Party/Lora/Utilities/utilities.c **** ( (____  _____ ____ _| |_ _____  ____| |__
   4:Middlewares/Third_Party/Lora/Utilities/utilities.c ****  \____ \| ___ |    (_   _) ___ |/ ___)  _ \
   5:Middlewares/Third_Party/Lora/Utilities/utilities.c ****  _____) ) ____| | | || |_| ____( (___| | | |
   6:Middlewares/Third_Party/Lora/Utilities/utilities.c **** (______/|_____)_|_|_| \__)_____)\____)_| |_|
   7:Middlewares/Third_Party/Lora/Utilities/utilities.c ****     (C)2013 Semtech
   8:Middlewares/Third_Party/Lora/Utilities/utilities.c **** 
   9:Middlewares/Third_Party/Lora/Utilities/utilities.c **** Description: Helper functions implementation
  10:Middlewares/Third_Party/Lora/Utilities/utilities.c **** 
  11:Middlewares/Third_Party/Lora/Utilities/utilities.c **** License: Revised BSD License, see LICENSE.TXT file include in the project
  12:Middlewares/Third_Party/Lora/Utilities/utilities.c **** 
  13:Middlewares/Third_Party/Lora/Utilities/utilities.c **** Maintainer: Miguel Luis and Gregory Cristian
  14:Middlewares/Third_Party/Lora/Utilities/utilities.c **** */
  15:Middlewares/Third_Party/Lora/Utilities/utilities.c **** #include <stdlib.h>
  16:Middlewares/Third_Party/Lora/Utilities/utilities.c **** #include <stdio.h>
  17:Middlewares/Third_Party/Lora/Utilities/utilities.c **** #include <stdint.h>
  18:Middlewares/Third_Party/Lora/Utilities/utilities.c **** #include "utilities.h"
  19:Middlewares/Third_Party/Lora/Utilities/utilities.c **** 
  20:Middlewares/Third_Party/Lora/Utilities/utilities.c **** /*!
  21:Middlewares/Third_Party/Lora/Utilities/utilities.c ****  * Redefinition of rand() and srand() standard C functions.
  22:Middlewares/Third_Party/Lora/Utilities/utilities.c ****  * These functions are redefined in order to get the same behavior across
  23:Middlewares/Third_Party/Lora/Utilities/utilities.c ****  * different compiler toolchains implementations.
  24:Middlewares/Third_Party/Lora/Utilities/utilities.c ****  */
  25:Middlewares/Third_Party/Lora/Utilities/utilities.c **** // Standard random functions redefinition start
  26:Middlewares/Third_Party/Lora/Utilities/utilities.c **** #define RAND_LOCAL_MAX 2147483647L
  27:Middlewares/Third_Party/Lora/Utilities/utilities.c **** 
  28:Middlewares/Third_Party/Lora/Utilities/utilities.c **** static uint32_t next = 1;
  29:Middlewares/Third_Party/Lora/Utilities/utilities.c **** 
  30:Middlewares/Third_Party/Lora/Utilities/utilities.c **** int32_t rand1( void )
  31:Middlewares/Third_Party/Lora/Utilities/utilities.c **** {
  27              		.loc 1 31 0
ARM GAS  /var/folders/2m/zqg86yyd4hbf56w83tkxjpvr0000gn/T//ccaC0Kmo.s 			page 2


  28              		.cfi_startproc
  29              		@ args = 0, pretend = 0, frame = 0
  30              		@ frame_needed = 0, uses_anonymous_args = 0
  31 0000 10B5     		push	{r4, lr}
  32              	.LCFI0:
  33              		.cfi_def_cfa_offset 8
  34              		.cfi_offset 4, -8
  35              		.cfi_offset 14, -4
  32:Middlewares/Third_Party/Lora/Utilities/utilities.c ****     return ( ( next = next * 1103515245L + 12345L ) % RAND_LOCAL_MAX );
  36              		.loc 1 32 0
  37 0002 064B     		ldr	r3, .L2
  38 0004 0648     		ldr	r0, .L2+4
  39 0006 1A68     		ldr	r2, [r3]
  40 0008 5043     		muls	r0, r2
  41 000a 064A     		ldr	r2, .L2+8
  42 000c 9446     		mov	ip, r2
  43 000e 6044     		add	r0, r0, ip
  44 0010 1860     		str	r0, [r3]
  45 0012 0549     		ldr	r1, .L2+12
  46 0014 FFF7FEFF 		bl	__aeabi_uidivmod
  47              	.LVL0:
  33:Middlewares/Third_Party/Lora/Utilities/utilities.c **** }
  48              		.loc 1 33 0
  49 0018 0800     		movs	r0, r1
  50              		@ sp needed
  51 001a 10BD     		pop	{r4, pc}
  52              	.L3:
  53              		.align	2
  54              	.L2:
  55 001c 00000000 		.word	.LANCHOR0
  56 0020 6D4EC641 		.word	1103515245
  57 0024 39300000 		.word	12345
  58 0028 FFFFFF7F 		.word	2147483647
  59              		.cfi_endproc
  60              	.LFE40:
  62              		.section	.text.srand1,"ax",%progbits
  63              		.align	1
  64              		.global	srand1
  65              		.syntax unified
  66              		.code	16
  67              		.thumb_func
  68              		.fpu softvfp
  70              	srand1:
  71              	.LFB41:
  34:Middlewares/Third_Party/Lora/Utilities/utilities.c **** 
  35:Middlewares/Third_Party/Lora/Utilities/utilities.c **** void srand1( uint32_t seed )
  36:Middlewares/Third_Party/Lora/Utilities/utilities.c **** {
  72              		.loc 1 36 0
  73              		.cfi_startproc
  74              		@ args = 0, pretend = 0, frame = 0
  75              		@ frame_needed = 0, uses_anonymous_args = 0
  76              		@ link register save eliminated.
  77              	.LVL1:
  37:Middlewares/Third_Party/Lora/Utilities/utilities.c ****     next = seed;
  78              		.loc 1 37 0
  79 0000 014B     		ldr	r3, .L5
  80 0002 1860     		str	r0, [r3]
ARM GAS  /var/folders/2m/zqg86yyd4hbf56w83tkxjpvr0000gn/T//ccaC0Kmo.s 			page 3


  38:Middlewares/Third_Party/Lora/Utilities/utilities.c **** }
  81              		.loc 1 38 0
  82              		@ sp needed
  83 0004 7047     		bx	lr
  84              	.L6:
  85 0006 C046     		.align	2
  86              	.L5:
  87 0008 00000000 		.word	.LANCHOR0
  88              		.cfi_endproc
  89              	.LFE41:
  91              		.global	__aeabi_idivmod
  92              		.section	.text.randr,"ax",%progbits
  93              		.align	1
  94              		.global	randr
  95              		.syntax unified
  96              		.code	16
  97              		.thumb_func
  98              		.fpu softvfp
 100              	randr:
 101              	.LFB42:
  39:Middlewares/Third_Party/Lora/Utilities/utilities.c **** // Standard random functions redefinition end
  40:Middlewares/Third_Party/Lora/Utilities/utilities.c **** 
  41:Middlewares/Third_Party/Lora/Utilities/utilities.c **** int32_t randr( int32_t min, int32_t max )
  42:Middlewares/Third_Party/Lora/Utilities/utilities.c **** {
 102              		.loc 1 42 0
 103              		.cfi_startproc
 104              		@ args = 0, pretend = 0, frame = 0
 105              		@ frame_needed = 0, uses_anonymous_args = 0
 106              	.LVL2:
 107 0000 70B5     		push	{r4, r5, r6, lr}
 108              	.LCFI1:
 109              		.cfi_def_cfa_offset 16
 110              		.cfi_offset 4, -16
 111              		.cfi_offset 5, -12
 112              		.cfi_offset 6, -8
 113              		.cfi_offset 14, -4
 114 0002 0500     		movs	r5, r0
 115 0004 0C00     		movs	r4, r1
  43:Middlewares/Third_Party/Lora/Utilities/utilities.c ****     return ( int32_t )rand1( ) % ( max - min + 1 ) + min;
 116              		.loc 1 43 0
 117 0006 FFF7FEFF 		bl	rand1
 118              	.LVL3:
 119 000a 611B     		subs	r1, r4, r5
 120 000c 0131     		adds	r1, r1, #1
 121 000e FFF7FEFF 		bl	__aeabi_idivmod
 122              	.LVL4:
 123 0012 4819     		adds	r0, r1, r5
  44:Middlewares/Third_Party/Lora/Utilities/utilities.c **** }
 124              		.loc 1 44 0
 125              		@ sp needed
 126              	.LVL5:
 127              	.LVL6:
 128 0014 70BD     		pop	{r4, r5, r6, pc}
 129              		.cfi_endproc
 130              	.LFE42:
 132              		.section	.text.memcpy1,"ax",%progbits
 133              		.align	1
ARM GAS  /var/folders/2m/zqg86yyd4hbf56w83tkxjpvr0000gn/T//ccaC0Kmo.s 			page 4


 134              		.global	memcpy1
 135              		.syntax unified
 136              		.code	16
 137              		.thumb_func
 138              		.fpu softvfp
 140              	memcpy1:
 141              	.LFB43:
  45:Middlewares/Third_Party/Lora/Utilities/utilities.c **** 
  46:Middlewares/Third_Party/Lora/Utilities/utilities.c **** void memcpy1( uint8_t *dst, const uint8_t *src, uint16_t size )
  47:Middlewares/Third_Party/Lora/Utilities/utilities.c **** {
 142              		.loc 1 47 0
 143              		.cfi_startproc
 144              		@ args = 0, pretend = 0, frame = 0
 145              		@ frame_needed = 0, uses_anonymous_args = 0
 146              		@ link register save eliminated.
 147              	.LVL7:
  48:Middlewares/Third_Party/Lora/Utilities/utilities.c ****     while( size-- )
 148              		.loc 1 48 0
 149 0000 04E0     		b	.L9
 150              	.LVL8:
 151              	.L10:
  49:Middlewares/Third_Party/Lora/Utilities/utilities.c ****     {
  50:Middlewares/Third_Party/Lora/Utilities/utilities.c ****         *dst++ = *src++;
 152              		.loc 1 50 0
 153 0002 0A78     		ldrb	r2, [r1]
 154 0004 0270     		strb	r2, [r0]
  48:Middlewares/Third_Party/Lora/Utilities/utilities.c ****     while( size-- )
 155              		.loc 1 48 0
 156 0006 1A00     		movs	r2, r3
 157              		.loc 1 50 0
 158 0008 0131     		adds	r1, r1, #1
 159              	.LVL9:
 160 000a 0130     		adds	r0, r0, #1
 161              	.LVL10:
 162              	.L9:
  48:Middlewares/Third_Party/Lora/Utilities/utilities.c ****     while( size-- )
 163              		.loc 1 48 0
 164 000c 531E     		subs	r3, r2, #1
 165 000e 9BB2     		uxth	r3, r3
 166              	.LVL11:
 167 0010 002A     		cmp	r2, #0
 168 0012 F6D1     		bne	.L10
  51:Middlewares/Third_Party/Lora/Utilities/utilities.c ****     }
  52:Middlewares/Third_Party/Lora/Utilities/utilities.c **** }
 169              		.loc 1 52 0
 170              		@ sp needed
 171 0014 7047     		bx	lr
 172              		.cfi_endproc
 173              	.LFE43:
 175              		.section	.text.memcpyr,"ax",%progbits
 176              		.align	1
 177              		.global	memcpyr
 178              		.syntax unified
 179              		.code	16
 180              		.thumb_func
 181              		.fpu softvfp
 183              	memcpyr:
ARM GAS  /var/folders/2m/zqg86yyd4hbf56w83tkxjpvr0000gn/T//ccaC0Kmo.s 			page 5


 184              	.LFB44:
  53:Middlewares/Third_Party/Lora/Utilities/utilities.c **** 
  54:Middlewares/Third_Party/Lora/Utilities/utilities.c **** void memcpyr( uint8_t *dst, const uint8_t *src, uint16_t size )
  55:Middlewares/Third_Party/Lora/Utilities/utilities.c **** {
 185              		.loc 1 55 0
 186              		.cfi_startproc
 187              		@ args = 0, pretend = 0, frame = 0
 188              		@ frame_needed = 0, uses_anonymous_args = 0
 189              		@ link register save eliminated.
 190              	.LVL12:
  56:Middlewares/Third_Party/Lora/Utilities/utilities.c ****     dst = dst + ( size - 1 );
 191              		.loc 1 56 0
 192 0000 531E     		subs	r3, r2, #1
 193 0002 C018     		adds	r0, r0, r3
 194              	.LVL13:
  57:Middlewares/Third_Party/Lora/Utilities/utilities.c ****     while( size-- )
 195              		.loc 1 57 0
 196 0004 04E0     		b	.L12
 197              	.LVL14:
 198              	.L13:
  58:Middlewares/Third_Party/Lora/Utilities/utilities.c ****     {
  59:Middlewares/Third_Party/Lora/Utilities/utilities.c ****         *dst-- = *src++;
 199              		.loc 1 59 0
 200 0006 0A78     		ldrb	r2, [r1]
 201 0008 0270     		strb	r2, [r0]
  57:Middlewares/Third_Party/Lora/Utilities/utilities.c ****     while( size-- )
 202              		.loc 1 57 0
 203 000a 1A00     		movs	r2, r3
 204              		.loc 1 59 0
 205 000c 0131     		adds	r1, r1, #1
 206              	.LVL15:
 207 000e 0138     		subs	r0, r0, #1
 208              	.LVL16:
 209              	.L12:
  57:Middlewares/Third_Party/Lora/Utilities/utilities.c ****     while( size-- )
 210              		.loc 1 57 0
 211 0010 531E     		subs	r3, r2, #1
 212 0012 9BB2     		uxth	r3, r3
 213              	.LVL17:
 214 0014 002A     		cmp	r2, #0
 215 0016 F6D1     		bne	.L13
  60:Middlewares/Third_Party/Lora/Utilities/utilities.c ****     }
  61:Middlewares/Third_Party/Lora/Utilities/utilities.c **** }
 216              		.loc 1 61 0
 217              		@ sp needed
 218 0018 7047     		bx	lr
 219              		.cfi_endproc
 220              	.LFE44:
 222              		.section	.text.memset1,"ax",%progbits
 223              		.align	1
 224              		.global	memset1
 225              		.syntax unified
 226              		.code	16
 227              		.thumb_func
 228              		.fpu softvfp
 230              	memset1:
 231              	.LFB45:
ARM GAS  /var/folders/2m/zqg86yyd4hbf56w83tkxjpvr0000gn/T//ccaC0Kmo.s 			page 6


  62:Middlewares/Third_Party/Lora/Utilities/utilities.c **** 
  63:Middlewares/Third_Party/Lora/Utilities/utilities.c **** void memset1( uint8_t *dst, uint8_t value, uint16_t size )
  64:Middlewares/Third_Party/Lora/Utilities/utilities.c **** {
 232              		.loc 1 64 0
 233              		.cfi_startproc
 234              		@ args = 0, pretend = 0, frame = 0
 235              		@ frame_needed = 0, uses_anonymous_args = 0
 236              		@ link register save eliminated.
 237              	.LVL18:
  65:Middlewares/Third_Party/Lora/Utilities/utilities.c ****     while( size-- )
 238              		.loc 1 65 0
 239 0000 02E0     		b	.L15
 240              	.LVL19:
 241              	.L16:
  66:Middlewares/Third_Party/Lora/Utilities/utilities.c ****     {
  67:Middlewares/Third_Party/Lora/Utilities/utilities.c ****         *dst++ = value;
 242              		.loc 1 67 0
 243 0002 0170     		strb	r1, [r0]
  65:Middlewares/Third_Party/Lora/Utilities/utilities.c ****     while( size-- )
 244              		.loc 1 65 0
 245 0004 1A00     		movs	r2, r3
 246              		.loc 1 67 0
 247 0006 0130     		adds	r0, r0, #1
 248              	.LVL20:
 249              	.L15:
  65:Middlewares/Third_Party/Lora/Utilities/utilities.c ****     while( size-- )
 250              		.loc 1 65 0
 251 0008 531E     		subs	r3, r2, #1
 252 000a 9BB2     		uxth	r3, r3
 253              	.LVL21:
 254 000c 002A     		cmp	r2, #0
 255 000e F8D1     		bne	.L16
  68:Middlewares/Third_Party/Lora/Utilities/utilities.c ****     }
  69:Middlewares/Third_Party/Lora/Utilities/utilities.c **** }
 256              		.loc 1 69 0
 257              		@ sp needed
 258 0010 7047     		bx	lr
 259              		.cfi_endproc
 260              	.LFE45:
 262              		.section	.text.Nibble2HexChar,"ax",%progbits
 263              		.align	1
 264              		.global	Nibble2HexChar
 265              		.syntax unified
 266              		.code	16
 267              		.thumb_func
 268              		.fpu softvfp
 270              	Nibble2HexChar:
 271              	.LFB46:
  70:Middlewares/Third_Party/Lora/Utilities/utilities.c **** 
  71:Middlewares/Third_Party/Lora/Utilities/utilities.c **** int8_t Nibble2HexChar( uint8_t a )
  72:Middlewares/Third_Party/Lora/Utilities/utilities.c **** {
 272              		.loc 1 72 0
 273              		.cfi_startproc
 274              		@ args = 0, pretend = 0, frame = 0
 275              		@ frame_needed = 0, uses_anonymous_args = 0
 276              		@ link register save eliminated.
 277              	.LVL22:
ARM GAS  /var/folders/2m/zqg86yyd4hbf56w83tkxjpvr0000gn/T//ccaC0Kmo.s 			page 7


  73:Middlewares/Third_Party/Lora/Utilities/utilities.c ****     if( a < 10 )
 278              		.loc 1 73 0
 279 0000 0928     		cmp	r0, #9
 280 0002 04D9     		bls	.L21
  74:Middlewares/Third_Party/Lora/Utilities/utilities.c ****     {
  75:Middlewares/Third_Party/Lora/Utilities/utilities.c ****         return '0' + a;
  76:Middlewares/Third_Party/Lora/Utilities/utilities.c ****     }
  77:Middlewares/Third_Party/Lora/Utilities/utilities.c ****     else if( a < 16 )
 281              		.loc 1 77 0
 282 0004 0F28     		cmp	r0, #15
 283 0006 05D8     		bhi	.L20
  78:Middlewares/Third_Party/Lora/Utilities/utilities.c ****     {
  79:Middlewares/Third_Party/Lora/Utilities/utilities.c ****         return 'A' + ( a - 10 );
 284              		.loc 1 79 0
 285 0008 3730     		adds	r0, r0, #55
 286              	.LVL23:
 287 000a 40B2     		sxtb	r0, r0
 288 000c 01E0     		b	.L19
 289              	.LVL24:
 290              	.L21:
  75:Middlewares/Third_Party/Lora/Utilities/utilities.c ****     }
 291              		.loc 1 75 0
 292 000e 3030     		adds	r0, r0, #48
 293              	.LVL25:
 294 0010 40B2     		sxtb	r0, r0
 295              	.L19:
  80:Middlewares/Third_Party/Lora/Utilities/utilities.c ****     }
  81:Middlewares/Third_Party/Lora/Utilities/utilities.c ****     else
  82:Middlewares/Third_Party/Lora/Utilities/utilities.c ****     {
  83:Middlewares/Third_Party/Lora/Utilities/utilities.c ****         return '?';
  84:Middlewares/Third_Party/Lora/Utilities/utilities.c ****     }
  85:Middlewares/Third_Party/Lora/Utilities/utilities.c **** }
 296              		.loc 1 85 0
 297              		@ sp needed
 298 0012 7047     		bx	lr
 299              	.LVL26:
 300              	.L20:
  83:Middlewares/Third_Party/Lora/Utilities/utilities.c ****     }
 301              		.loc 1 83 0
 302 0014 3F20     		movs	r0, #63
 303              	.LVL27:
 304 0016 FCE7     		b	.L19
 305              		.cfi_endproc
 306              	.LFE46:
 308              		.data
 309              		.align	2
 310              		.set	.LANCHOR0,. + 0
 313              	next:
 314 0000 01000000 		.word	1
 315              		.text
 316              	.Letext0:
 317              		.file 2 "/opt/gcc-arm-none-eabi-7-2017-q4-major/arm-none-eabi/include/machine/_default_types.h"
 318              		.file 3 "/opt/gcc-arm-none-eabi-7-2017-q4-major/arm-none-eabi/include/sys/lock.h"
 319              		.file 4 "/opt/gcc-arm-none-eabi-7-2017-q4-major/arm-none-eabi/include/sys/_types.h"
 320              		.file 5 "/opt/gcc-arm-none-eabi-7-2017-q4-major/lib/gcc/arm-none-eabi/7.2.1/include/stddef.h"
 321              		.file 6 "/opt/gcc-arm-none-eabi-7-2017-q4-major/arm-none-eabi/include/sys/reent.h"
 322              		.file 7 "/opt/gcc-arm-none-eabi-7-2017-q4-major/arm-none-eabi/include/stdlib.h"
ARM GAS  /var/folders/2m/zqg86yyd4hbf56w83tkxjpvr0000gn/T//ccaC0Kmo.s 			page 8


 323              		.file 8 "/opt/gcc-arm-none-eabi-7-2017-q4-major/arm-none-eabi/include/sys/_stdint.h"
 324              		.file 9 "Drivers/CMSIS/Device/ST/STM32L0xx/Include/system_stm32l0xx.h"
ARM GAS  /var/folders/2m/zqg86yyd4hbf56w83tkxjpvr0000gn/T//ccaC0Kmo.s 			page 9

